TMS340 COFF Macro Assembler Version 6.10     Wed Apr 21 11:31:53 2021
 Copyright (c) 1985-1991  Texas Instruments Incorporated 

                                                                     PAGE    1

       1                            .MLIB   "HHMACS.LIB"
       2                            .FILE   "HHSCORE.ASM"
       3                            .WIDTH  132
       4                            .OPTION B,D,L,T
       5                            .MNOLIST
       6                    
       7                    *
       8                    *GET THE SYSTEM STUFF
       9                    *
      10                            .INCLUDE        "HH.INC"
      11                            .INCLUDE        "HHSTRING.H"
      12                            .INCLUDE        "IMGTBL.GLO"
      13                            .include        "hhscore.tbl"
      14                            .INCLUDE        "NETEXPLO.TBL"
      15                            .include        "hhscore.e"
      16                            .include        "hhpuck.g"
      17                            .include        "hhproc.g"
      18                            .include        "hhgame.g"
      19                            .include        "hh.g"
      20                            .include        "hhd.g"
      21                            .include        "hhram.g"
      22                            .include        "hhplayer.g"
      23                            .include        "hhhigher.g"
      24                            .include        "hhc.g"
      25                            .include        "hhutil.g"
      26                            .include        "hhtimer.g"
      27                            .include        "hhshow.g"
      28                            .include        "hhmisc.g"
      29                            .include        "hhspeech.g"
      30                            .include        "hhpall.g"
      31                            .include        "hhselect.g"
      32                            .include        "hhstable.g"
      33                            .include        "hhstabl2.g"
      34                    ;       .include        "hhmath.g"
      35                            .ref    set_obj_to_rect
      36                            .ref    move_to_speed_x
      37                            .include        "hhscr_fn.g"
      38                            .include        "hhscr_cb.g"
      39                            .include        "hhcmos.g"
      40                            .include        "hhcontr2.g"
      41                    ;       .include        "hhndrone.g"
      42                            .ref    set_drone_levels
      43                            .include        "hhcontrl.g"
      44                            .include        "hhstats.g"
      45                            .include        "hhvids.g"
      46                            .include        "hhsnd.g"
      47                            .include        "hhcontr3.g"
      48                    
      49                    ; end of include files
      50                    
      51 00000000                   .bss    has_scored,16
      52 00000010                   .bss    scored_by,16
      53 00000020                   .bss    assist_by,16
      54 00000030                   .bss    team_scored,16
      55                    
TMS340 COFF Macro Assembler Version 6.10     Wed Apr 21 11:31:53 2021
 Copyright (c) 1985-1991  Texas Instruments Incorporated 

                                                                     PAGE    2

      56 00000040                   .bss    VIDCLIP_PLAYER,16
      57 00000050                   .bss    VIDCLIP_TIME,32
      58                    
      59 00000070                   .bss    VIDCLIP_TYPE,16
      60 00000080                   .bss    FIRE_GOAL,16
      61                    
      62 00000090                   .BSS    EXPLO_FLAG,16                   ;UHW GOAL EXPLODING FLAG
      63 000000a0                   .BSS    EXPLO_COVER_FLAG,16             ;UHW EXPLOSION COVER FLAG
      64                    
      65 00000000                   .TEXT
      66 00000000                   .EVEN
      67                    
      68                    ;types from hhspeech
      69                    
      70              0005  DEKE_TYPE       .equ    5
      71              0008  SLOT_TYPE       .equ    8
      72                    
      73              ffff  SLAP_TYPE       .equ    -1      ;not a location type
      74              fffd  SPIN_TYPE       .equ    -3      ;not a location type
      75                    
      76                    ;SCORE_LAMP_PROC
      77                    ;       MOVE    A9,A0
      78                    ;       CALLA   LAMP_ON
      79                    ;       SLEEP   120
      80                    ;       MOVE    A9,A0
      81                    ;       CALLA   LAMP_OFF
      82                    ;       DIE
      83                    
      84 00000000           score_left_team
      85 00000000     05ae          move    @has_scored,a14,W
         00000010 00000000- 
      86 00000030     cb00          jrnz    sc99
         00000040     00a9  
      87 00000050     07c0          move    @WAVEIRQS,@time_score_left,L    ;easier
         00000060 00000000! 
         00000080 00000000! 
      88 000000a0     05ae          move    @team1_score,a14,W
         000000b0 00000000! 
      89 000000d0     102e          inc     a14
      90 000000e0     058e          move    a14,@has_scored,W
         000000f0 00000000- 
      91 00000110     058e          move    a14,@team1_score,W
         00000120 00000000! 
      92 00000140     182e          movk    1,a14
      93 00000150     058e          move    a14,@team_scored,W
         00000160 00000030- 
      94 00000180     0d3f          callr   record_goal_assist_t1
         00000190     00d0  
      95                    ;       MOVK    M_RGHT_LAMP,A9
      96                    ;       CREATE  PID_LAMP,SCORE_LAMP_PROC
      97 000001a0     05ae          move    @GAME_STATE,a14
         000001b0 00000000! 
      98 000001d0     0b4e          cmpi    INAMODE,a14
         000001e0     ffcf  
      99 000001f0     ca14          jrz     sltrk
TMS340 COFF Macro Assembler Version 6.10     Wed Apr 21 11:31:53 2021
 Copyright (c) 1985-1991  Texas Instruments Incorporated 

                                                                     PAGE    3

     100 00000200     098f          mmtm    sp,a0,a4
         00000210     8800  
     101 00000220     09c0          movi    AUD_LEFT_GOALS,a0
         00000230     0021  
     102 00000240     0d5f          calla   AUD1
         00000250 00000000! 
     103 00000270     0d5f          calla   find_cpu_team
         00000280 00000000! 
     104 000002a0     0b44          cmpi    1,a4
         000002b0     fffe  
     105 000002c0     cb05          jrnz    nonc1
     106 000002d0     09c0          movi    AUD_CPU_TEAM_GOALS,a0
         000002e0     0023  
     107 000002f0     0d5f          calla   AUD1
         00000300 00000000! 
     108 00000320     09af  nonc1   mmfm    sp,a0,a4
         00000330     0011  
     109 00000340     c033  sltrk   jruc    sc_50
     110 00000350           score_right_team
     111 00000350     05ae          move    @has_scored,a14,W
         00000360 00000000- 
     112 00000380     cb75          jrnz    sc99
     113 00000390     07c0          move    @WAVEIRQS,@time_score_right,L   ;easier
         000003a0 00000000! 
         000003c0 00000000! 
     114 000003e0     05ae          move    @team2_score,a14,W
         000003f0 00000000! 
     115 00000410     102e          inc     a14
     116 00000420     058e          move    a14,@has_scored,W
         00000430 00000000- 
     117 00000450     058e          move    a14,@team2_score,W
         00000460 00000000! 
     118 00000480     184e          movk    2,a14
     119 00000490     058e          move    a14,@team_scored,W
         000004a0 00000030- 
     120 000004c0     0d3f          callr   record_goal_assist_t2
         000004d0     00a0  
     121                    ;       MOVK    M_LEFT_LAMP,A9
     122                    ;       CREATE  PID_LAMP,SCORE_LAMP_PROC
     123 000004e0     05ae          move    @GAME_STATE,a14
         000004f0 00000000! 
     124 00000510     0b4e          cmpi    INAMODE,a14
         00000520     ffcf  
     125 00000530     ca14          jrz     srtrk
     126 00000540     098f          mmtm    sp,a0,a4
         00000550     8800  
     127 00000560     09c0          movi    AUD_RIGHT_GOALS,a0
         00000570     0022  
     128 00000580     0d5f          calla   AUD1
         00000590 00000000! 
     129 000005b0     0d5f          calla   find_cpu_team
         000005c0 00000000! 
     130 000005e0     0b44          cmpi    2,a4
         000005f0     fffd  
     131 00000600     cb05          jrnz    nonc2
TMS340 COFF Macro Assembler Version 6.10     Wed Apr 21 11:31:53 2021
 Copyright (c) 1985-1991  Texas Instruments Incorporated 

                                                                     PAGE    4

     132 00000610     09c0          movi    AUD_CPU_TEAM_GOALS,a0
         00000620     0023  
     133 00000630     0d5f          calla   AUD1
         00000640 00000000! 
     134 00000660     09af  nonc2   mmfm    sp,a0,a4
         00000670     0011  
     135 00000680           srtrk   
     136 00000680           sc_50
     137 00000680     57ce          clr     a14
     138 00000690     058e          move    a14,@global_control_slow,W
         000006a0 00000000! 
     139 000006c0     0d5f          calla   clean_fill_scores
         000006d0 00000000! 
     140 000006f0     0d5f          calla   flash_team_who_scored
         00000700 00000000! 
     141 00000720     0d5f          calla   fix_palette_lights
         00000730 00000000! 
     142 00000750     0d3f          callr   goal_cycle
         00000760     010d  
     143 00000770     09c0          movi    99,a0
         00000780     0063  
     144 00000790     0d5f          calla   set_safe_puck_mode_a0           ;turn control off
         000007a0 00000000! 
     145 000007c0     0d5f          calla   kill_all_trails
         000007d0 00000000! 
     146                    
     147 000007f0     05a0          MOVE    @GOALIE_MISS,A0,W
         00000800 00000000! 
     148 00000820     ca11          JRZ     SC_CHECK_PAY_OT                 ;BR=GOALIE SUCKED!
     149                    
     150 00000830     05a0          MOVE    @GAME_STATE,A0,W
         00000840 00000000! 
     151 00000860     0b40          CMPI    INAMODE,A0
         00000870     ffcf  
     152 00000880     ca0b          JREQ    SC_CHECK_PAY_OT                 ;BR=IN ATTRACT MODE
     153 00000890     05a0          MOVE    @PUCK_MODE,A0,W
         000008a0 00000000! 
     154 000008c0     0b40          CMPI    PUM_FACEOFF,A0
         000008d0     ff9b  
     155 000008e0     c905          JRHS    SC_CHECK_PAY_OT                 ;BR=FACEOFF OR END OF PERIOD
     156 000008f0     09c0          MOVI    AUD_GOALIE_MISSES,A0
         00000900     0028  
     157 00000910     0d5f          CALLA   AUD1
         00000920 00000000! 
     158 00000940           SC_CHECK_PAY_OT
     159                    
     160 00000940     05a0          move    @period,a0,W
         00000950 00000000! 
     161 00000970     0b40          cmpi    4,a0
         00000980     fffb  
     162 00000990     cb05          JRNE    SC_GO                           ;BR=NOT OVERTIME
     163                    
     164 000009a0     1ac0          MOVK    ADJPAYOT,A0
     165 000009b0     0d5f          CALLA   GET_ADJ                         ;CHECK FOR FULL OVERTIME
         000009c0 00000000! 
TMS340 COFF Macro Assembler Version 6.10     Wed Apr 21 11:31:53 2021
 Copyright (c) 1985-1991  Texas Instruments Incorporated 

                                                                     PAGE    5

     166 000009e0     ca10          JRZ     sc_51                           ;BR=NOPE, SUDDEN DEATH
     167 000009f0           SC_GO
     168 000009f0     0d3f          callr   score_by_window
         00000a00     0129  
     169 00000a10     0d5f          calla   set_drone_levels
         00000a20 00000000! 
     170 00000a40     0d5f          calla   check_on_fire
         00000a50 00000000! 
     171 00000a70     0d5f          calla   spx_score
         00000a80 00000000! 
     172 00000aa0     0d5f          calla   score_celebrations
         00000ab0 00000000! 
     173 00000ad0     c00a          jruc    canned_puck_score
     174 00000ae0     0960  sc99    rets
     175 00000af0     0d5f  sc_51   calla   spx_score_game_over
         00000b00 00000000! 
     176 00000b20                   P_FORK  period_over     ;we can use our id, because it gets changed right away
     177                            ; taken out by mdp for doz callr        score_by_window
     178                            ;
     179 00000b80           canned_puck_score
     180 00000b80                   C_A_K   PID_CANNED_SCORE,can_puck_score_process
     181                            ;do some extra stuff here to help with display
     182 00000c00     0d5f          calla   kill_all_trails
         00000c10 00000000! 
     183 00000c30     07a7          move    @PUCK_OBJECT,a7,L
         00000c40 00000000! 
     184 00000c60     b4ee          move    *a7(OCTRL),a14,W
         00000c70     01f0  
     185 00000c80     0bae          ori     M_WRNONZ,a14
         00000c90 00000002  
     186 00000cb0     b1c7          move    a14,*a7(OCTRL),W
         00000cc0     01f0  
     187 00000cd0     07a7          move    @PUCK_SHADOW,a7,L
         00000ce0 00000000! 
     188 00000d00     b4ee          move    *a7(OCTRL),a14,W
         00000d10     01f0  
     189 00000d20     0bae          ori     M_WRNONZ,a14
         00000d30 00000002  
     190 00000d50     b1c7          move    a14,*a7(OCTRL),W
         00000d60     01f0  
     191                    
     192                    
     193 00000d70     0960          rets
     194                    
     195                    **************************************************************************
     196                    *                                                                        *
     197                    * get_potential_scorer                                                   *
     198                    *       input   a1 = 0 for right goal, 1 for left goal                   *
     199                    *       output  a0 = player who will be credited for score (or 0)        *
     200                    *                                                                        *
     201                    **************************************************************************
     202 00000d80           get_potential_scorer
     203 00000d80     098f          mmtm    sp,a2,a3
         00000d90     3000  
     204 00000da0     190e          movk    8,a14
TMS340 COFF Macro Assembler Version 6.10     Wed Apr 21 11:31:53 2021
 Copyright (c) 1985-1991  Texas Instruments Incorporated 

                                                                     PAGE    6

     205 00000db0     07a2          move    @puck_owner_pointer,a2,L
         00000dc0 00000000! 
     206 00000de0     0d3f  gps_1   callr   rtea    ;get last owner in a3
         00000df0     009a  
     207 00000e00     4c60          move    a3,a0
     208 00000e10     1423          dec     a3
     209 00000e20     2bc3          sra     2,a3
     210 00000e30     4861          cmp     a3,a1   ;does owner match team
     211 00000e40     ca02          jrz     gps_2   ;goal scorer found
     212 00000e50     3d0e          dsjs    a14,gps_1
     213 00000e60     5600          clr     a0
     214 00000e70     09af  gps_2   mmfm    sp,a2,a3
         00000e80     000c  
     215 00000e90     0960          rets
     216                    
     217 00000ea0           record_goal_assist_t1
     218 00000ea0     098f          mmtm    sp,a1,a2,a3,a4,a6
         00000eb0     7a00  
     219 00000ec0     5621          clr     a1
     220 00000ed0     c003          jruc    rga1
     221 00000ee0           record_goal_assist_t2
     222 00000ee0     098f          mmtm    sp,a1,a2,a3,a4,a6
         00000ef0     7a00  
     223 00000f00     1821          movk    1,a1
     224 00000f10     098f  rga1    mmtm    sp,a0
         00000f20     8000  
     225 00000f30     05a0          move    @GAME_STATE,a0,W
         00000f40 00000000! 
     226 00000f60     0b40          cmpi    INAMODE,a0
         00000f70     ffcf  
     227 00000f80     ca05          jrz     nadj1
     228 00000f90     09c0          movi    AUD_GOALS,a0
         00000fa0     001f  
     229 00000fb0     0d5f          calla   AUD1
         00000fc0 00000000! 
     230 00000fe0     09af  nadj1   mmfm    sp,a0
         00000ff0     0001  
     231 00001000     190e          movk    8,a14
     232 00001010     07a2          move    @puck_owner_pointer,a2,L
         00001020 00000000! 
     233 00001040     0d3f  rga2    callr   rtea    ;get last owner in a3
         00001050     0074  
     234 00001060     4c60          move    a3,a0
     235 00001070     1423          dec     a3
     236 00001080     2bc3          sra     2,a3
     237 00001090     4861          cmp     a3,a1   ;does owner match team
     238 000010a0     ca0f          jrz     rg_gf   ;goal scorer found
     239 000010b0     3d0e          dsjs    a14,rga2
     240 000010c0     57ce          clr     a14
     241 000010d0     058e          move    a14,@scored_by,W
         000010e0 00000010- 
     242 00001100     098f          mmtm    sp,a0
         00001110     8000  
     243 00001120     09c0          movi    AUD_UNCREDITED_GOALS,a0
         00001130     0026  
TMS340 COFF Macro Assembler Version 6.10     Wed Apr 21 11:31:53 2021
 Copyright (c) 1985-1991  Texas Instruments Incorporated 

                                                                     PAGE    7

     244 00001140     0d5f          calla   AUD1
         00001150 00000000! 
     245 00001170     09af          mmfm    sp,a0
         00001180     0001  
     246 00001190     c05a          jruc    rga9    ;no scorer found (freak bounce?)
     247 000011a0     0580  rg_gf   move    a0,@scored_by,W
         000011b0 00000010- 
     248 000011d0                   GBLOCK  a0,a6                   ;tally scorer in a0
     249 00001220     098f          mmtm    sp,a0,a14
         00001230     8002  
     250 00001240     09c0          movi    AUD_HUMAN_GOALS,a0
         00001250     0025  
     251 00001260     b4ce          move    *a6(POF_FLAGS),a14,W
         00001270     0200  
     252 00001280     1fee          btst    B_PF_HUMAN,a14
     253 00001290     cb08          jrnz    ahg_0
     254 000012a0     05a0          move    @GAME_STATE,a0,W
         000012b0 00000000! 
     255 000012d0     0b40          cmpi    INAMODE,a0
         000012e0     ffcf  
     256 000012f0     ca05          jrz     nadj4
     257 00001300     09c0          movi    AUD_CPU_PLAYER_GOALS,a0
         00001310     0024  
     258 00001320     0d5f  ahg_0   calla   AUD1
         00001330 00000000! 
     259 00001350     09af  nadj4   mmfm    sp,a0,a14
         00001360     4001  
     260 00001370     05a4          move    @period,a4,W
         00001380 00000000! 
     261 000013a0     2464          sll     3,a4
     262 000013b0     0b04          addi    POF_GOALS_P1-8,a4
         000013c0     0798  
     263 000013d0     40c4          add     a6,a4   ;a4 POF_SHOTS offset by period
     264 000013e0     5663          CLR     A3
     265 000013f0     b066          MOVE    A3,*A6(POF_SHOT_ATTEMPTS),W             ;CLEAR SCORER'S ATTEMPTS
         00001400     0ba0  
     266 00001410     8e83          movb    *a4,a3
     267 00001420     1023          inc     a3
     268 00001430     8c64          movb    a3,*a4  ;assume we don't get 0255H goals/period
     269 00001440     0b4e          cmpi    1,a14
         00001450     fffe  
     270 00001460     ca09          jrz     rg_na   ;we went back 8, no assist
     271 00001470     0d3f          callr   rtea
         00001480     0031  
     272 00001490     4803          cmp     a0,a3
     273 000014a0     ca05          jrz     rg_na   ;we were last, no assist
     274 000014b0     4c60          move    a3,a0
     275 000014c0     1423          dec     a3
     276 000014d0     2bc3          sra     2,a3
     277 000014e0     4861          cmp     a3,a1
     278 000014f0     ca01          jrz     rg_af   ;we have an assist
     279 00001500     5600  rg_na   clr     a0      ;the other team (or 0) touched it before us, no assist
     280 00001510     0580  rg_af   move    a0,@assist_by,W
         00001520 00000020- 
     281 00001540     4c00          move    a0,a0
TMS340 COFF Macro Assembler Version 6.10     Wed Apr 21 11:31:53 2021
 Copyright (c) 1985-1991  Texas Instruments Incorporated 

                                                                     PAGE    8

     282 00001550     ca1e          jrz     rga9    ;don't tally, no assister
     283 00001560     098f          mmtm    sp,a0
         00001570     8000  
     284 00001580     05a0          move    @GAME_STATE,a0,W
         00001590 00000000! 
     285 000015b0     0b40          cmpi    INAMODE,a0
         000015c0     ffcf  
     286 000015d0     ca05          jrz     nadj5
     287 000015e0     09c0          movi    AUD_ASSISTS,a0
         000015f0     0020  
     288 00001600     0d5f          calla   AUD1
         00001610 00000000! 
     289 00001630     09af  nadj5   mmfm    sp,a0
         00001640     0001  
     290 00001650                   GBLOCK  a0,a6   ;tally assister in a0
     291 000016a0     05a4          move    @period,a4,W
         000016b0 00000000! 
     292 000016d0     2464          sll     3,a4
     293 000016e0     0b04          addi    POF_ASSISTS_P1-8,a4
         000016f0     07b8  
     294 00001700     40c4          add     a6,a4   ;a4 POF_ASSISTS offset by period
     295 00001710     8e83          movb    *a4,a3
     296 00001720     1023          inc     a3
     297 00001730     8c64          movb    a3,*a4  ;assume we don't get 0255H goals/period
     298 00001740     09af  rga9    mmfm    sp,a1,a2,a3,a4,a6
         00001750     005e  
     299 00001760     0960          rets
     300                    
     301                    **************************************************************************
     302                    *                                                                        *
     303                    * get_very_last_player                                                   *
     304                    *                                                                        *
     305                    **************************************************************************
     306 00001770           get_very_last_player
     307 00001770     07a2          move    @puck_owner_pointer,a2,L
         00001780 00000000! 
     308                            ;
     309 000017a0     1502  rtea    subk    8,a2
     310 000017b0     0b62          cmpi    puck_owner_data,a2
         000017c0 ffffffff! 
     311 000017e0     c903          jrhs    rte1
     312 000017f0     09e2          movi    puck_owner_pointer-8,a2
         00001800 fffffff8! 
     313 00001820     8e43  rte1    movb    *a2,a3
     314 00001830     0960          rets
     315                    
     316 00001840           goal_cycle
     317 00001840                   C_A_K   PID_GOAL_CYCLE,gc_1
     318 000018c0     0960          rets
     319                    
     320 000018d0           gc_1    ;calla  puck_score_show
     321 000018d0     05a0          move    @period,a0,W
         000018e0 00000000! 
     322 00001900     0b40          cmpi    4,a0
         00001910     fffb  
TMS340 COFF Macro Assembler Version 6.10     Wed Apr 21 11:31:53 2021
 Copyright (c) 1985-1991  Texas Instruments Incorporated 

                                                                     PAGE    9

     323 00001920     cb05          jrnz    gc4
     324 00001930     1ac0          movk    ADJPAYOT,a0
     325 00001940     0d5f          calla   GET_ADJ
         00001950 00000000! 
     326 00001970     ca05          jrz     gc5
     327 00001980     09c0  gc4     movi    400,a0                  ;take us through to face off
         00001990     0190  
     328 000019a0     0d5f          calla   show_timer
         000019b0 00000000! 
     329 000019d0     0d5f  gc5     calla   stop_timer
         000019e0 00000000! 
     330 00001a00     05ae          move    @period,a14,W
         00001a10 00000000! 
     331 00001a30     0b4e          cmpi    4,a14
         00001a40     fffb  
     332 00001a50     cb05          jrnz    gc_45
     333 00001a60     1ac0          movk    ADJPAYOT,a0
     334 00001a70     0d5f          calla   GET_ADJ
         00001a80 00000000! 
     335 00001aa0     ca1c          jrz     gcccc1
     336 00001ab0     0d5f  gc_45   calla   store_players_tired
         00001ac0 00000000! 
     337                    
     338                    
     339 00001ae0           GC_EXPLO_WAIT
     340 00001ae0                   SLEEP   1
     341 00001b20     05ae          MOVE    @EXPLO_FLAG,A14,W
         00001b30 00000090- 
     342 00001b50     cbf8          JRNZ    GC_EXPLO_WAIT           ;BR=STILL EXPLODIN'
     343                    
     344 00001b60                   sleep   80      ;100
     345                    ;       calla   reset_puck_position
     346 00001bb0     0d5f          calla   reset_players_turbo
         00001bc0 00000000! 
     347 00001be0     5600          clr     a0              ;faceoff at 0,339
     348 00001bf0     09c1          movi    339,a1
         00001c00     0153  
     349 00001c10     0d5f          calla   spx_goal_faceoff
         00001c20 00000000! 
     350 00001c40     0d5f          calla   faceoff
         00001c50 00000000! 
     351 00001c70     c080  gcccc1  jauc    SUCIDE
         00001c80 00000000! 
     352                    
     353 00001ca0           score_by_window
     354 00001ca0     05ae          move    @scored_by,a14,W
         00001cb0 00000010- 
     355 00001cd0     ca08          jrz     sbw9
     356 00001ce0                   C_A_KP  PID_SCORED_BY,score_by_ud
     357 00001d60     0960  sbw9    rets
     358                    
     359 00001d70           score_by_ud
     360 00001d70     05ae          move    @scored_by,a14
         00001d80 00000010- 
     361 00001da0     ca3f          jrz     scort9          ;safety
TMS340 COFF Macro Assembler Version 6.10     Wed Apr 21 11:31:53 2021
 Copyright (c) 1985-1991  Texas Instruments Incorporated 

                                                                     PAGE   10

     362 00001db0                   GBLOCK  a14,a6
     363 00001e00     0d3f          callr   create_scored_by
         00001e10     0124  
     364 00001e20     07a8  suds2   move    @SUPPLSTS+5*020h,a8,L
         00001e30 000000a0! 
     365 00001e50     b70e          move    *a8(OYVAL),a14,L
         00001e60     0160  
     366 00001e70     0b6e          cmpi    [155,0],a14
         00001e80 ff64ffff  
     367 00001ea0     c60c          jrle    suds1
     368 00001eb0     09e0          movi    [155-22,0],a0
         00001ec0 00850000  
     369 00001ee0     45c0          sub     a14,a0
     370 00001ef0     2b80          sra     4,a0
     371 00001f00     0d3f          callr   svsupp5
         00001f10     002b  
     372 00001f20                   SLEEP   2
     373 00001f60     c0eb          jruc    suds2
     374                    
     375                    ;       movi    [-8,0],a0
     376                    ;       callr   svsupp5
     377                    ;       SLEEP   27
     378                    
     379 00001f70     5600  suds1   clr     a0
     380 00001f80     0d3f          callr   svsupp5
         00001f90     0023  
     381 00001fa0                   SLEEP   60
     382 00001ff0     09e0          movi    [8,0],a0
         00002000 00080000  
     383 00002020     0d3f          callr   svsupp5
         00002030     0019  
     384 00002040                   SLEEP   17
     385 00002080     57ce          clr     a14
     386 00002090     058e          move    a14,@scored_by,W
         000020a0 00000010- 
     387 000020c0                   SLEEP   11
     388 00002100     09c0          movi    PID_BOXCOLOR,a0
         00002110     2cc1  
     389 00002120     0d5f          calla   KILLPROC_ALL
         00002130 00000000! 
     390 00002150     09c0          movi    OID_SCORED_BY,a0
         00002160     2a08  
     391 00002170     0d5f          calla   KILOBJ_ALL
         00002180 00000000! 
     392 000021a0     c080  scort9  jauc    SUCIDE
         000021b0 00000000! 
     393                    
     394 000021d0     01e0  svsupp5 pushst
     395 000021e0     0360          dint
     396 000021f0     07a8          move    @SUPPLSTS+5*020h,a8,L
         00002200 000000a0! 
     397 00002220     ca05          jrz     sbud2
     398 00002230     b208  sbud3   move    a0,*a8(OYVEL),L
         00002240     0120  
     399 00002250     b708          move    *a8(OSLINK),a8,L
TMS340 COFF Macro Assembler Version 6.10     Wed Apr 21 11:31:53 2021
 Copyright (c) 1985-1991  Texas Instruments Incorporated 

                                                                     PAGE   11

         00002260     0040  
     400 00002270     cbfb          jrnz    sbud3
     401 00002280     01c0  sbud2   popst
     402 00002290     0960          rets
     403                    
     404                    **************************************************************************
     405                    *                                                                        *
     406                    * start_clip_running_us                                                  *
     407                    *                                                                        *
     408                    **************************************************************************
     409                    
     410 000022a0           start_clip_running_us
     411                    
     412                    ;       MOVK    1,A0
     413                    ;       sll     5,a0
     414                    ;       addi    all_clips_us,a0
     415                    ;       move    *a0,a1,L
     416                    ;
     417                    ;       MOVI    video_33_clip,A1        
     418                    ;       jauc    STRT_ANIM
     419                    
     420 000022a0     09e1          MOVI    video_1_clip,A1 
         000022b0 00000000! 
     421 000022d0     05ae          MOVE    @PUCK_MODE,A14,W
         000022e0 00000000! 
     422 00002300     0b4e          CMPI    PUM_ENDPER,A14
         00002310     ff9a  
     423 00002320     ca80          JAEQ    STRT_ANIM                       ;BR=END OF PERIOD
         00002330 00000000! 
     424                    
     425 00002350     05ae          MOVE    @minutes,A14,W
         00002360 00000000! 
     426 00002380     146e          SUBK    3,A14
     427 00002390     ca80          JAZ     STRT_ANIM                       ;BR=BEGINNING OF PERIOD
         000023a0 00000000! 
     428                            
     429 000023c0     05a2          MOVE    @scored_by,A2,W
         000023d0 00000010- 
     430 000023f0     ca00          JRZ     SCRUS_GENERAL                   ;BR=WHO?
         00002400     0084  
     431 00002410                   GBLOCK  A2,A6
     432                    
     433 00002460     09c0          MOVI    POF_GOALS_P1,A0
         00002470     07a0  
     434 00002480     0d5f          CALLA   TOTAL_STAT
         00002490 00000000! 
     435 000024b0     4c23          MOVE    A1,A3
     436                    
     437 000024c0     09e1          MOVI    video_14_clip,A1        
         000024d0 00000000! 
     438 000024f0     1463          SUBK    3,A3
     439 00002500     ca80          JAZ     STRT_ANIM                       ;BR=HAT TRICK
         00002510 00000000! 
     440 00002530     09e1          MOVI    video_11_clip,A1        
         00002540 00000000! 
TMS340 COFF Macro Assembler Version 6.10     Wed Apr 21 11:31:53 2021
 Copyright (c) 1985-1991  Texas Instruments Incorporated 

                                                                     PAGE   12

     441 00002560     14c3          SUBK    6,A3
     442 00002570     ca80          JAZ     STRT_ANIM                       ;BR=HAT RACK
         00002580 00000000! 
     443                    
     444 000025a0     05a3          MOVE    @FIRE_GOAL,A3,W
         000025b0 00000080- 
     445 000025d0     ca0d          JRZ     SCRUS_CHECK_SPEECH              ;BR=NO CHANGE IN FIRE
     446                    
     447 000025e0     57ce          CLR     A14
     448 000025f0     058e          MOVE    A14,@FIRE_GOAL,W
         00002600 00000080- 
     449                    
     450 00002620     09e1          MOVI    ON_FIRE_CLIP_TABLE,A1
         00002630 00002f50' 
     451 00002650     4c63          MOVE    A3,A3
     452 00002660     c162          JRP     A                               ;BR=ON FIRE GOAL
     453 00002670     09e1          MOVI    OFF_FIRE_CLIP_TABLE,A1          ;OFF FIRE GOAL
         00002680 00002fc0' 
     454 000026a0     c05e          JRUC    A
     455                    
     456 000026b0           SCRUS_CHECK_SPEECH
     457                    
     458 000026b0     05ae          MOVE    @VIDCLIP_PLAYER,A14,W
         000026c0 00000040- 
     459 000026e0     484e          CMP     A2,A14
     460 000026f0     cb39          JRNE    SCRUS_CHECK_DETROIT             ;BR=NOT THIS PLAYER
     461                    
     462 00002700     07a0          MOVE    @VIDCLIP_TIME,A0,L
         00002710 00000050- 
     463 00002730     07ae          MOVE    @WAVEIRQS,A14,L
         00002740 00000000! 
     464 00002760     440e          SUB     A0,A14
     465 00002770     0b4e          CMPI    120,A14
         00002780     ff87  
     466 00002790     c72f          JRGT    SCRUS_CHECK_DETROIT             ;BR=DIDN'T JUST HAPPEN
     467                    
     468 000027a0     05a3          MOVE    @VIDCLIP_TYPE,A3,W
         000027b0 00000070- 
     469                    
     470 000027d0     57ce          CLR     A14
     471 000027e0     078e          MOVE    A14,@VIDCLIP_TIME,L
         000027f0 00000050- 
     472 00002810     058e          MOVE    A14,@VIDCLIP_PLAYER,W
         00002820 00000040- 
     473 00002840     058e          MOVE    A14,@VIDCLIP_TYPE,W
         00002850 00000070- 
     474                    
     475 00002870     09c0          MOVI    512,A0
         00002880     0200  
     476 00002890     0d5f          CALLA   RANDPER
         000028a0 00000000! 
     477 000028c0     c91c          JRNC    SCRUS_CHECK_DETROIT             ;BR=NOT THIS TIME
     478                    
     479 000028d0     09e1          MOVI    video_2_clip,A1 
         000028e0 00000000! 
TMS340 COFF Macro Assembler Version 6.10     Wed Apr 21 11:31:53 2021
 Copyright (c) 1985-1991  Texas Instruments Incorporated 

                                                                     PAGE   13

     480 00002900     0b43          CMPI    SLOT_TYPE,A3
         00002910     fff7  
     481 00002920     ca80          JAEQ    STRT_ANIM                       ;BR=FROM THE SLOT
         00002930 00000000! 
     482                    
     483 00002950     09e1          MOVI    video_3_clip,A1 
         00002960 00000000! 
     484 00002980     0b43          CMPI    SLAP_TYPE,A3
         00002990     0000  
     485 000029a0     ca80          JAEQ    STRT_ANIM                       ;BR=SLAP SHOT
         000029b0 00000000! 
     486                    
     487 000029d0     09e1          MOVI    DEKE_CLIP_TABLE,A1
         000029e0 00002f00' 
     488 00002a00     0b43          CMPI    DEKE_TYPE,A3
         00002a10     fffa  
     489 00002a20     ca26          JREQ    A                               ;BR=DEKE
     490                    
     491 00002a30     09e1          MOVI    SPIN_CLIP_TABLE,A1
         00002a40 00003010' 
     492 00002a60     0b43          CMPI    SPIN_TYPE,A3
         00002a70     0002  
     493 00002a80     ca20          JREQ    A                               ;BR=SPIN
     494                    
     495 00002a90           SCRUS_CHECK_DETROIT
     496                    
     497                    ;IF DETROIT HOME GOAL
     498                            
     499 00002a90     2fc2          SRL     2,A2
     500 00002aa0     2482          SLL     4,A2                            ;TEAM OFFSET
     501                    
     502 00002ab0     09e0          MOVI    team1,A0
         00002ac0 00000000! 
     503 00002ae0     4040          ADD     A2,A0
     504 00002af0     8400          MOVE    *A0,A0,W
     505 00002b00     1620          SUBK    team_red_wings,A0
     506 00002b10     cb13          JRNZ    SCRUS_GENERAL                   ;BR=NOT DETROIT
     507                    
     508 00002b20     09e0          MOVI    team1_home,A0
         00002b30 00000000! 
     509 00002b50     4040          ADD     A2,A0
     510 00002b60     8400          MOVE    *A0,A0,W
     511 00002b70     1420          DEC     A0
     512 00002b80     cb0c          JRNZ    SCRUS_GENERAL                   ;BR=NOT HOME
     513                    
     514 00002b90     09c0          MOVI    512,A0
         00002ba0     0200  
     515 00002bb0     0d5f          CALLA   RANDPER
         00002bc0 00000000! 
     516 00002be0     c906          JRNC    SCRUS_GENERAL                   ;BR=NO OCTOPUSES
     517                    
     518 00002bf0     09e1          MOVI    video_33_clip,A1
         00002c00 00000000! 
     519 00002c20     c080          JAUC    STRT_ANIM
         00002c30 00000000! 
TMS340 COFF Macro Assembler Version 6.10     Wed Apr 21 11:31:53 2021
 Copyright (c) 1985-1991  Texas Instruments Incorporated 

                                                                     PAGE   14

     520                    
     521 00002c50           SCRUS_GENERAL
     522                    
     523 00002c50     09e1          MOVI    GENERAL_CLIP_TABLE,A1
         00002c60 00002d30' 
     524 00002c80     0300          JRUC    A
     525                    
     526                    
     527                    **************************************************************************
     528                    *                                                                        *
     529                    * A                                                                      *
     530                    *                                                                        *
     531                    **************************************************************************
     532                            
     533 00002c90           A
     534 00002c90     9420          MOVE    *A1+,A0,W
     535 00002ca0     0d5f          CALLA   RAND0
         00002cb0 00000000! 
     536 00002cd0     24a0          SLL     5,A0
     537 00002ce0     4001          ADD     A0,A1
     538 00002cf0     8621          MOVE    *A1,A1,L
     539 00002d00     c080          JAUC    STRT_ANIM
         00002d10 00000000! 
     540                    
     541              000e  GENERAL_CLIPS   EQU     14
     542                    
     543 00002d30           GENERAL_CLIP_TABLE
     544 00002d30     000e          .WORD   GENERAL_CLIPS
     545 00002d40 00000000!         .long   video_5_clip
     546 00002d60 00000000!         .long   video_10_clip
     547 00002d80 00000000!         .long   video_12_clip
     548 00002da0 00000000!         .long   video_13_clip
     549 00002dc0 00000000!         .long   video_19_clip
     550 00002de0 00000000!         .long   video_20_clip
     551 00002e00 00000000!         .long   video_22_clip
     552 00002e20 00000000!         .long   video_23_clip
     553 00002e40 00000000!         .long   video_24_clip
     554 00002e60 00000000!         .long   video_26_clip
     555 00002e80 00000000!         .long   video_29_clip
     556 00002ea0 00000000!         .long   video_30_clip
     557 00002ec0 00000000!         .long   video_31_clip
     558 00002ee0 00000000!         .long   video_32_clip
     559                    
     560              0002  DEKE_CLIPS      EQU     2
     561                    
     562 00002f00           DEKE_CLIP_TABLE
     563 00002f00     0002          .WORD   DEKE_CLIPS
     564 00002f10 00000000!         .long   video_4_clip
     565 00002f30 00000000!         .long   video_8_clip
     566                    
     567              0003  ON_FIRE_CLIPS   EQU     3
     568                    
     569 00002f50           ON_FIRE_CLIP_TABLE
     570 00002f50     0003          .WORD   ON_FIRE_CLIPS
     571 00002f60 00000000!         .long   video_16_clip
TMS340 COFF Macro Assembler Version 6.10     Wed Apr 21 11:31:53 2021
 Copyright (c) 1985-1991  Texas Instruments Incorporated 

                                                                     PAGE   15

     572 00002f80 00000000!         .long   video_17_clip
     573 00002fa0 00000000!         .long   video_21_clip
     574                    
     575              0002  OFF_FIRE_CLIPS  EQU     2
     576                    
     577 00002fc0           OFF_FIRE_CLIP_TABLE
     578 00002fc0     0002          .WORD   OFF_FIRE_CLIPS
     579 00002fd0 00000000!         .long   video_18_clip
     580 00002ff0 00000000!         .long   video_27_clip
     581                    
     582              0002  SPIN_CLIPS      EQU     2
     583                    
     584 00003010           SPIN_CLIP_TABLE
     585 00003010     0002          .WORD   SPIN_CLIPS
     586 00003020 00000000!         .long   video_15_clip
     587 00003040 00000000!         .long   video_25_clip
     588                    
     589                            .if     0
     590                    
     591                    all_clips_us
     592                            .long   video_1_clip
     593                            .long   video_2_clip
     594                            .long   video_3_clip
     595                            .long   video_4_clip
     596                            .long   video_5_clip
     597                            .long   video_8_clip
     598                            .long   video_10_clip
     599                            .long   video_11_clip
     600                            .long   video_12_clip
     601                            .long   video_13_clip
     602                            .long   video_14_clip
     603                            .long   video_15_clip
     604                            .long   video_16_clip
     605                            .long   video_17_clip
     606                            .long   video_18_clip
     607                            .long   video_19_clip
     608                            .long   video_20_clip
     609                            .long   video_21_clip
     610                            .long   video_22_clip
     611                            .long   video_23_clip
     612                            .long   video_24_clip
     613                            .long   video_25_clip
     614                            .long   video_26_clip
     615                            .long   video_27_clip
     616                            .long   video_29_clip
     617                            .long   video_30_clip
     618                            .long   video_31_clip
     619                            .long   video_32_clip
     620                            .long   video_33_clip
     621                    
     622                            .endif
     623                    
     624                    **************************************************************************
     625                    *                                                                        *
     626                    * create_scored_by                                                       *
TMS340 COFF Macro Assembler Version 6.10     Wed Apr 21 11:31:53 2021
 Copyright (c) 1985-1991  Texas Instruments Incorporated 

                                                                     PAGE   16

     627                    *       input   a6 = player block                                        *
     628                    *                                                                        *
     629                    **************************************************************************
     630 00003060           create_scored_by
     631 00003060     aec0          movb    *a6(POF_NUMBER),a0
         00003070     0000  
     632 00003080     2480          sll     4,a0
     633 00003090     0b20          addi    sbdx,a0
         000030a0 00003ae0' 
     634 000030c0     8402          move    *a0,a2,W
     635 000030d0     09c3          movi    355,a3
         000030e0     0163  
     636 000030f0     09c4          movi    -07000h,a4
         00003100     9000  
     637 00003110     09eb          movi    score_box_list1,a11
         00003120 00003f80' 
     638 00003140     0d3f          callr   make_score_stuff1
         00003150     00a1  
     639                    ;       callr   start_clip_running
     640                    
     641 00003160     09e8          MOVI    CYCLEGLP3,A8
         00003170 00000000! 
     642 00003190     1829          MOVK    1,A9
     643 000031a0     19ea          MOVK    15,A10
     644 000031b0     184b          MOVK    2,A11
     645 000031c0                   CREATE  PID_BOXCOLOR,CYCLE16
     646                    
     647 00003240     098f          mmtm    sp,a4
         00003250     0800  
     648 00003260     09f0          movi    score_by_init,b0
         00003270 00003f20' 
     649 00003290     0d5f          calla   EASYMAKE
         000032a0 00000000! 
     650 000032c0     4c4e          move    a2,a14
     651 000032d0     0b0e          addi    47,a14
         000032e0     002f  
     652 000032f0     b1c8          move    a14,*a8(OXPOS),W
         00003300     0150  
     653 00003310     4dc0          move    a14,a0
     654 00003320     4c6e          move    a3,a14
     655 00003330     0b0e          addi    79,a14
         00003340     004f  
     656 00003350     b1c8          move    a14,*a8(OYPOS),W
         00003360     0170  
     657 00003370     260e          sll     16,a14
     658 00003380     efc0          movy    a14,a0
     659 00003390     4c8e          move    a4,a14
     660                    ;       addk    2,a14
     661 000033a0     b1c8          move    a14,*a8(OZPOS),W
         000033b0     0190  
     662 000033c0     0d5f          calla   set_scrnobj_to_pos
         000033d0 00000000! 
     663 000033f0     b4ce          move    *a6(POF_CHARACTER),a14,W
         00003400     0070  
     664 00003410     24ae          sll     5,a14
TMS340 COFF Macro Assembler Version 6.10     Wed Apr 21 11:31:53 2021
 Copyright (c) 1985-1991  Texas Instruments Incorporated 

                                                                     PAGE   17

     665 00003420     0b2e          addi    player_data,a14
         00003430 00000000! 
     666 00003450     87ce          move    *a14,a14,L
     667 00003460     b7ca          move    *a14(TP_PLYRMUG_IMG),a10,L
         00003470     0140  
     668 00003480     2f8a          srl     4,a10
     669 00003490     248a          sll     4,a10
     670 000034a0     b7c9          move    *a14(TP_PLYRNAME_IMG),a9,L
         000034b0     0120  
     671 000034c0     b740          move    *a10(070h),a0,L
         000034d0     0070  
     672 000034e0     0d5f          calla   CHANGE_PAL
         000034f0 00000000! 
     673 00003510     4d41          move    a10,a1
     674 00003520     b504          move    *a8(OCTRL),a4,W
         00003530     01f0  
     675 00003540     0d5f          calla   ANI
         00003550 00000000! 
     676 00003570     0d5f          calla   INSERT_OBJ
         00003580 00000000! 
     677                    
     678 000035a0     09f0          movi    score_by_init,b0
         000035b0 00003f20' 
     679 000035d0     0d5f          calla   EASYMAKE
         000035e0 00000000! 
     680 00003600     4c4e          move    a2,a14
     681 00003610     0b0e          addi    51,a14
         00003620     0033  
     682 00003630     b1c8          move    a14,*a8(OXPOS),W
         00003640     0150  
     683 00003650     4dc0          move    a14,a0
     684 00003660     4c6e          move    a3,a14
     685 00003670     110e          addk    8,a14
     686 00003680     b1c8          move    a14,*a8(OYPOS),W
         00003690     0170  
     687 000036a0     260e          sll     16,a14
     688 000036b0     efc0          movy    a14,a0
     689                    
     690 000036c0     09af          mmfm    sp,a4
         000036d0     0010  
     691 000036e0     098f          mmtm    sp,a4
         000036f0     0800  
     692                    
     693 00003700     4c8e          move    a4,a14
     694 00003710     144e          subk    2,a14
     695                    
     696 00003720     b1c8          move    a14,*a8(OZPOS),W
         00003730     0190  
     697 00003740     0d5f          calla   set_scrnobj_to_pos
         00003750 00000000! 
     698 00003770     b720          move    *a9(070h),a0,L
         00003780     0070  
     699 00003790     0d5f          calla   CHANGE_PAL
         000037a0 00000000! 
     700 000037c0     4d21          move    a9,a1
TMS340 COFF Macro Assembler Version 6.10     Wed Apr 21 11:31:53 2021
 Copyright (c) 1985-1991  Texas Instruments Incorporated 

                                                                     PAGE   18

     701 000037d0     b504          move    *a8(OCTRL),a4,W
         000037e0     01f0  
     702 000037f0     0d5f          calla   ANI
         00003800 00000000! 
     703 00003820     0d5f          calla   INSERT_OBJ
         00003830 00000000! 
     704 00003850     09af          mmfm    sp,a4
         00003860     0010  
     705                    
     706 00003870     aec0          movb    *a6(POF_GOALS_P1),a0
         00003880     07a0  
     707 00003890     aece          movb    *a6(POF_GOALS_P2),a14
         000038a0     07a8  
     708 000038b0     41c0          add     a14,a0
     709 000038c0     aece          movb    *a6(POF_GOALS_P3),a14
         000038d0     07b0  
     710 000038e0     41c0          add     a14,a0
     711 000038f0     aece          movb    *a6(POF_GOALS_PO),a14
         00003900     07b8  
     712 00003910     41c0          add     a14,a0
     713 00003920     0b40          cmpi    10,a0
         00003930     fff5  
     714 00003940     c40c          jrlt    csb_1d
     715 00003950     4c01  csb_2d  move    a0,a1
     716 00003960     5600          clr     a0
     717 00003970     194e          movk    10,a14
     718 00003980     5bc0          divu    a14,a0
     719 00003990     4c25          move    a1,a5
     720 000039a0     09eb          movi    score_box_2digits,a11
         000039b0 00004840' 
     721 000039d0     0d3f          callr   do_digt
         000039e0     0022  
     722 000039f0     4ca0          move    a5,a0
     723 00003a00     c003          jruc    csbpnum
     724 00003a10     09eb  csb_1d  movi    score_box_1digit,a11
         00003a20 000047f0' 
     725 00003a40     0d3f  csbpnum callr   do_digt
         00003a50     001b  
     726 00003a60     aecb          movb    *a6(POF_NUMBER),a11
         00003a70     0000  
     727 00003a80     24eb          sll     7,a11
     728 00003a90     0b2b          addi    score_box_playernum,a11
         00003aa0 00004240' 
     729 00003ac0     976a          move    *a11+,a10,L
     730 00003ad0     c018          jruc    mss_11
     731                    
     732 00003ae0     ff88  sbdx    .word   -120
     733 00003af0     0005          .word   0+5,100,-120,-120
     734 00003b30     00c8          .word   200,300-5,-120,-120
     735                    
     736                    **************************************************************************
     737                    *                                                                        *
     738                    * make_score_stuff1                                                      *
     739                    *       input   a11 = pointer to list to create                          *
     740                    *               a2  = x offset to add to list positions                  *
TMS340 COFF Macro Assembler Version 6.10     Wed Apr 21 11:31:53 2021
 Copyright (c) 1985-1991  Texas Instruments Incorporated 

                                                                     PAGE   19

     741                    *               a3  = y offset to add to list positions                  *
     742                    *               a4  = z offset to add to list positions                  *
     743                    *                                                                        *
     744                    **************************************************************************
     745 00003b70           make_score_stuff1
     746 00003b70     976a  mss_0   move    *a11+,a10,L
     747 00003b80     ca07          jrz     mss_7
     748 00003b90     098f          mmtm    sp,a2,a3,a4
         00003ba0     3800  
     749 00003bb0     0d3f          callr   mss_11
         00003bc0     0009  
     750 00003bd0     09af          mmfm    sp,a2,a3,a4
         00003be0     001c  
     751 00003bf0     c0f7          jruc    mss_0
     752 00003c00     0960  mss_7   rets
     753                    
     754 00003c10     24a0  do_digt sll     5,a0
     755 00003c20     0b20          addi    score_box_digitl,a0
         00003c30 000046b0' 
     756 00003c50     860a          move    *a0,a10,L
     757 00003c60     09f0  mss_11  movi    score_by_init,b0
         00003c70 00003f20' 
     758 00003c90     0d5f          calla   EASYMAKE
         00003ca0 00000000! 
     759 00003cc0     9760          move    *a11+,a0,L
     760 00003cd0     0d5f          calla   CHANGE_PAL
         00003ce0 00000000! 
     761 00003d00     956e          move    *a11+,a14,W
     762 00003d10     404e          add     a2,a14
     763 00003d20     b1c8          move    a14,*a8(OXPOS),W
         00003d30     0150  
     764 00003d40     4dc0          move    a14,a0
     765 00003d50     956e          move    *a11+,a14,W
     766 00003d60     406e          add     a3,a14
     767 00003d70     b1c8          move    a14,*a8(OYPOS),W
         00003d80     0170  
     768 00003d90     260e          sll     16,a14
     769 00003da0     efc0          movy    a14,a0
     770 00003db0     956e          move    *a11+,a14,W
     771 00003dc0     408e          add     a4,a14
     772 00003dd0     b1c8          move    a14,*a8(OZPOS),W
         00003de0     0190  
     773 00003df0     0d5f          calla   set_scrnobj_to_pos
         00003e00 00000000! 
     774 00003e20     098f          mmtm    sp,a4
         00003e30     0800  
     775 00003e40     b504          move    *a8(OCTRL),a4
         00003e50     01f0  
     776 00003e60     4d41          move    a10,a1
     777 00003e70     0d5f          calla   ANI
         00003e80 00000000! 
     778 00003ea0     09af          mmfm    sp,a4
         00003eb0     0010  
     779 00003ec0     0d5f          calla   set_scrnobj_to_pos
         00003ed0 00000000! 
TMS340 COFF Macro Assembler Version 6.10     Wed Apr 21 11:31:53 2021
 Copyright (c) 1985-1991  Texas Instruments Incorporated 

                                                                     PAGE   20

     780 00003ef0     c080          jauc    INSERT_OBJ
         00003f00 00000000! 
     781                    
     782 00003f20           score_by_init
     783 00003f20 000034f0"         .long   PLYRBOX
     784 00003f40     8002          .word   DMAWNZ,M_SCRNOBJ|M_NOSCALE
     785 00003f60     0100          .word   OM_OID
     786 00003f70     2a08          .word   OID_SCORED_BY
     787                    
     788 00003f80           score_box_list1
     789 00003f80                   LLWWW   PLYRBOX,PLYRBXP,0,0,-1
     790 00003ff0                   LLWWW   PCKTRI01,TRI,70,17,-2
     791 00004060                   LLWWW   PPLAYER,PLAYERP,4,23-5,-2
     792 000040d0                   LLWWW   PLYRBCK,PLYRBCK2P,16,16,0
     793 00004140                   LLWWW   GOALS,POSITP,18,81,-2
     794 000041b0                   LLWWW   CYCLEGL3,CYCLEGLP3,63,78,-1
     795                    ;       LLWWW   LEAFSM4,LEAFSM4P,-1,78,-2
     796                    ;       LLWWW   VIDEO101,VIDEOSP,15,15,0        ;keep the animated one last in list
     797                    
     798 00004220 00000000          .long   0
     799                    
     800 00004240           score_box_playernum
     801 00004240                   LLWWW   G01,POSITP,4,4,-3
     802 000042b0     0000          .word    0
     803 000042c0                   LLWWW   G01,POSITP,4,4,-3
     804 00004330     0000          .word    0
     805 00004340                   LLWWW   G02,POSITP,4,4,-3
     806 000043b0     0000          .word    0
     807 000043c0                   LLWWW   G02,POSITP,4,4,-3
     808 00004430     0000          .word    0
     809 00004440                   LLWWW   G02,POSITP,4,4,-3
     810 000044b0     0000          .word    0
     811 000044c0                   LLWWW   G03,POSITP,4,4,-3
     812 00004530     0000          .word    0
     813 00004540                   LLWWW   G04,POSITP,4,4,-3
     814 000045b0     0000          .word    0
     815 000045c0                   LLWWW   G04,POSITP,4,4,-3
     816 00004630     0000          .word    0
     817 00004640                   LLWWW   G04,POSITP,4,4,-3
     818                    
     819 000046b0           score_box_digitl
     820 000046b0 00003b20"         .long   G00
     821 000046d0 00003610"         .long   G01
     822 000046f0 000036a0"         .long   G02
     823 00004710 00003730"         .long   G03
     824 00004730 000037c0"         .long   G04
     825 00004750 00003850"         .long   G05
     826 00004770 000038e0"         .long   G06
     827 00004790 00003970"         .long   G07
     828 000047b0 00003a00"         .long   G08
     829 000047d0 00003a90"         .long   G09
     830                    
     831 000047f0           score_box_1digit
     832 000047f0                   LWWW    GNUMS,70,81,-2
     833                    
TMS340 COFF Macro Assembler Version 6.10     Wed Apr 21 11:31:53 2021
 Copyright (c) 1985-1991  Texas Instruments Incorporated 

                                                                     PAGE   21

     834 00004840           score_box_2digits
     835 00004840                   LWWW    GNUMS,66,81,-2
     836 00004890                   LWWW    GNUMS,76,81,-2
     837                    
     838 000048e0           clean_up_net_anims
     839 000048e0     57ce          clr     a14
     840 000048f0     058e          move    a14,@hold_net_anim,W
         00004900 00000000! 
     841 00004920     058e          move    a14,@side_brightness,W
         00004930 00000000! 
     842 00004950     07a8          move    @lgoalF_object,a8,L
         00004960 00000000! 
     843 00004980     0d3f          callr   cuns
         00004990     0003  
     844 000049a0     07a8          move    @rgoalF_object,a8,L
         000049b0 00000000! 
     845 000049d0     09e0  cuns    movi    GOALP,a0
         000049e0 00000000! 
     846 00004a00     0d5f          calla   CHANGE_PAL
         00004a10 00000000! 
     847 00004a30     b50e          move    *a8(OFLAGS),a14,W
         00004a40     0420  
     848 00004a50     1e2e          btst    B_ANIM,a14
     849 00004a60     ca03          jrz     cuns8
     850 00004a70     c080          jauc    PULL_ANIM
         00004a80 00000000! 
     851 00004aa0     0960  cuns8   rets
     852                    
     853 00004ab0           can_puck_score_process
     854 00004ab0     57ce          CLR     A14
     855 00004ac0     058e          MOVE    A14,@EXPLO_FLAG,W               ;DEFAULT TO NO EXPLOSION
         00004ad0 00000090- 
     856                    
     857 00004af0     0d5f          calla   score_board_animate             ;here is safe, we can trash anything
         00004b00 00000000! 
     858 00004b20     0d5f          calla   wall_goal
         00004b30 00000000! 
     859 00004b50     0d5f          calla   kill_all_trails
         00004b60 00000000! 
     860 00004b80     5600          clr     a0
     861 00004b90     07a9          move    @PUCK_OBJECT,a9,L
         00004ba0 00000000! 
     862 00004bc0     0580          move    a0,@PUCK_CONTROL,W
         00004bd0 00000000! 
     863                    
     864 00004bf0     1820          movk    1,a0
     865 00004c00     0580          move    a0,@hold_net_anim,W
         00004c10 00000000! 
     866 00004c30     07a8          move    @lgoalF_object,a8,L
         00004c40 00000000! 
     867 00004c60     05ae          move    @WORLDX+010h,a14,W
         00004c70 00000010! 
     868 00004c90     ce03          jrn     cpsp1
     869 00004ca0     07a8          move    @rgoalF_object,a8,L
         00004cb0 00000000! 
TMS340 COFF Macro Assembler Version 6.10     Wed Apr 21 11:31:53 2021
 Copyright (c) 1985-1991  Texas Instruments Incorporated 

                                                                     PAGE   22

     870 00004cd0     05a1  cpsp1   move    @hot_player,a1,W
         00004ce0 00000000! 
     871                    
     872                    ;       JRUC    cps_on_fire
     873                    
     874 00004d00     ca05          jrz     cpspnf
     875 00004d10     05ae          move    @scored_by,a14,W
         00004d20 00000010- 
     876 00004d40     482e          cmp     a1,a14
     877 00004d50     ca62          jrz     cps_on_fire
     878 00004d60     09e1  cpspnf  movi    nb_ls_script,a1
         00004d70 00009aa0' 
     879 00004d90     b52e          move    *a9(OYPOS),a14,W
         00004da0     0170  
     880 00004db0     0b4e          cmpi    -1,a14
         00004dc0     0000  
     881 00004dd0     c556          jrge    cps_onice
     882                    
     883 00004de0     b52e          move    *a9(OYPOS),a14,W
         00004df0     0170  
     884 00004e00     09e2          movi    net_low_c_table,a2
         00004e10 00008ce0' 
     885 00004e30     0b4e          cmpi    -7,a14
         00004e40     0006  
     886 00004e50     c50e          jrge    mendo
     887 00004e60     09e2          movi    net_mid_c_table,a2
         00004e70 00008e00' 
     888 00004e90     0b4e          cmpi    -35,a14
         00004ea0     0022  
     889 00004eb0     c508          jrge    mendo
     890 00004ec0     b52e          move    *a9(OYVEL+010H),a14,W
         00004ed0     0130  
     891 00004ee0     0b4e          cmpi    -3,a14
         00004ef0     0002  
     892 00004f00     c703          jrgt    mendo
     893 00004f10     09e2          movi    net_high_c_table,a2
         00004f20 00008f20' 
     894 00004f40     b723  mendo   move    *a9(ODT_VEL),a3,L
         00004f50     04d0  
     895 00004f60     0b63          cmpi    [10,0],a3
         00004f70 fff5ffff  
     896 00004f90     c406          jrlt    mndo1
     897 00004fa0     1002          addk    32,a2
     898 00004fb0     0b63          cmpi    [18,0],a3
         00004fc0 ffedffff  
     899 00004fe0     c401          jrlt    mndo1
     900 00004ff0     1002          addk    32,a2
     901 00005000     b72e  mndo1   move    *a9(OZVEL),a14,L
         00005010     00e0  
     902 00005020     4dc0          move    a14,a0
     903 00005030     0380          abs     a0
     904 00005040     0b60          cmpi    [6,0],a0
         00005050 fff9ffff  
     905 00005070     c406          jrlt    mndo11
     906 00005080     0b02          addi    32*3,a2
TMS340 COFF Macro Assembler Version 6.10     Wed Apr 21 11:31:53 2021
 Copyright (c) 1985-1991  Texas Instruments Incorporated 

                                                                     PAGE   23

         00005090     0060  
     907 000050a0     4dce          move    a14,a14
     908 000050b0     c102          jrp     mndo11
     909 000050c0     0b02          addi    32*3,a2
         000050d0     0060  
     910 000050e0     5600  mndo11  clr     a0
     911 000050f0     b209          move    a0,*a9(OXVEL),L
         00005100     0100  
     912 00005110     b209          move    a0,*a9(OYVEL),L
         00005120     0120  
     913 00005130     b209          move    a0,*a9(OZVEL),L
         00005140     00e0  
     914 00005150     b209          move    a0,*a9(ODT_VEL),L
         00005160     04d0  
     915 00005170     b209          move    a0,*a9(ODT_DIR),L
         00005180     04b0  
     916 00005190     07a9          move    @PUCK_SHADOW,a9,L
         000051a0 00000000! 
     917 000051c0     b209          move    a0,*a9(OXVEL),L
         000051d0     0100  
     918 000051e0     b209          move    a0,*a9(OYVEL),L
         000051f0     0120  
     919 00005200     b209          move    a0,*a9(OZVEL),L
         00005210     00e0  
     920 00005220     b209          move    a0,*a9(ODT_VEL),L
         00005230     04d0  
     921 00005240     b209          move    a0,*a9(ODT_DIR),L
         00005250     04b0  
     922 00005260     8641          move    *a2,a1,L
     923 00005270     0d5f  mndo2   calla   STRT_ANIM
         00005280 00000000! 
     924 000052a0                   SLEEP   60
     925 000052f0     0d3f          callr   clean_up_net_anims
         00005300     ff5d  
     926 00005310     c080          jauc    SUCIDE
         00005320 00000000! 
     927                    
     928 00005340           cps_onice
     929 00005340     09e1          movi    nb_ls_script,a1
         00005350 00009aa0' 
     930 00005370     c0ef          jruc    mndo2
     931                    
     932 00005380           cps_on_fire
     933 00005380     09c4          MOVI    S_NET_IGNITE,A4
         00005390     0128  
     934 000053a0     0d5f          CALLA   do_sound
         000053b0 00000000! 
     935                    
     936 000053d0     09e1          movi    nb_flame_script,a1
         000053e0 00009040' 
     937 00005400     0d5f          calla   STRT_ANIM
         00005410 00000000! 
     938                    
     939 00005430     09c0          movi    AUD_ON_FIRE_GOALS,a0
         00005440     002a  
TMS340 COFF Macro Assembler Version 6.10     Wed Apr 21 11:31:53 2021
 Copyright (c) 1985-1991  Texas Instruments Incorporated 

                                                                     PAGE   24

     940 00005450     0d5f          calla   AUD1
         00005460 00000000! 
     941                    
     942 00005480     05ae          move    @hot_goals,a14,W
         00005490 00000000! 
     943 000054b0     0b4e          cmpi    3,a14
         000054c0     fffc  
     944 000054d0     cb3d          jrnz    CPS_OF_FIRE
     945                    ;       JRUC    CPS_OF_FIRE
     946                    
     947 000054e0     182e          MOVK    1,A14
     948 000054f0     058e          MOVE    A14,@EXPLO_FLAG,W
         00005500 00000090- 
     949                    
     950 00005520                   CREATE  PID_IND,NET_EXPLO_PROC
     951                    
     952 000055a0     07a0          move    @lgoalR_object,a0,L
         000055b0 00000000! 
     953 000055d0     0d5f          CALLA   OBJOFF
         000055e0 00000000! 
     954 00005600     07a0          move    @rgoalR_object,a0,L
         00005610 00000000! 
     955 00005630     0d5f          CALLA   OBJOFF
         00005640 00000000! 
     956                    
     957 00005660           CPS_OF_EXPLO_WAIT
     958 00005660                   SLEEP   1
     959 000056a0     05ae          MOVE    @EXPLO_FLAG,A14,W
         000056b0 00000090- 
     960 000056d0     cbf8          JRNZ    CPS_OF_EXPLO_WAIT               ;BR=STILL EXPLODIN'
     961                    
     962 000056e0                   SLEEP   240
     963                    
     964 00005730     b70e          MOVE    *A8(OZVAL),A14,L
         00005740     0180  
     965 00005750     0d0e          SUBI    ZWRAP,A14
         00005760 f6d1ffff  
     966 00005780     b3c8          MOVE    A14,*A8(OZVAL),L
         00005790     0180  
     967                    
     968 000057a0     07a8          move    @lgoalR_object,a8,L
         000057b0 00000000! 
     969 000057d0     0d5f          CALLA   OBJ_ON
         000057e0 00000000! 
     970 00005800     07a8          move    @rgoalR_object,a8,L
         00005810 00000000! 
     971 00005830     0d5f          CALLA   OBJ_ON
         00005840 00000000! 
     972                    
     973 00005860     0d3f          callr   clean_up_net_anims
         00005870     ff06  
     974 00005880     c080          jauc    SUCIDE
         00005890 00000000! 
     975                    
     976 000058b0           CPS_OF_FIRE
TMS340 COFF Macro Assembler Version 6.10     Wed Apr 21 11:31:53 2021
 Copyright (c) 1985-1991  Texas Instruments Incorporated 

                                                                     PAGE   25

     977 000058b0                   SLEEP   240
     978                    
     979 00005900     0d3f          callr   clean_up_net_anims
         00005910     fefc  
     980 00005920     c080          jauc    SUCIDE
         00005930 00000000! 
     981                    
     982                    **************************************************************************
     983                    *                                                                        *
     984                    * NET_EXPLO_PROC                                                         *
     985                    *                                                                        *
     986                    * PASS:                                                                  *
     987                    * A8 = NET OBJECT                                                        *
     988                    *                                                                        *
     989                    **************************************************************************
     990                    
     991 00005950           NET_EXPLO_PROC
     992                    ;       CREATE  PID_COLLISION,FRAG_COLLISION_PROC
     993                    
     994 00005950     19e9          MOVK    15,A9
     995 00005960           NEP_LUPE
     996 00005960     0d3f          CALLR   MAKE_SMALL_EXPLO                ;small explode here
         00005970     00ab  
     997 00005980     0d5f          calla   small_fire_inc
         00005990 00000000! 
     998                    
     999 000059b0     1860          MOVK    3,A0
    1000 000059c0     0d5f          CALLA   RAND0
         000059d0 00000000! 
    1001 000059f0     4c00          MOVE    A0,A0
    1002 00005a00     ca04          JRZ     NEP_2ND_SMALL
    1003                    
    1004 00005a10                   SLEEPR  A0
    1005                    
    1006 00005a50           NEP_2ND_SMALL
    1007 00005a50     0d3f          CALLR   MAKE_SMALL_EXPLO                ;small explode here
         00005a60     009c  
    1008 00005a70     0d5f          calla   small_fire_inc
         00005a80 00000000! 
    1009                    
    1010 00005aa0     18a0          MOVK    5,A0
    1011 00005ab0     1821          MOVK    1,A1
    1012 00005ac0     0d5f          CALLA   RANGERND
         00005ad0 00000000! 
    1013 00005af0                   SLEEPR  A0
    1014                    
    1015 00005b30     3fc9          DSJ     A9,NEP_LUPE
    1016                    
    1017 00005b40                   SLEEP   15
    1018                    
    1019 00005b80     0d3f          CALLR   MAKE_BIG_EXPLO                  ;big explode here
         00005b90     0053  
    1020 00005ba0     0d5f          calla   big_fire_inc
         00005bb0 00000000! 
    1021                    
TMS340 COFF Macro Assembler Version 6.10     Wed Apr 21 11:31:53 2021
 Copyright (c) 1985-1991  Texas Instruments Incorporated 

                                                                     PAGE   26

    1022 00005bd0           NEP_COVER_WAIT
    1023 00005bd0                   SLEEP   1
    1024 00005c10     05ae          MOVE    @EXPLO_COVER_FLAG,A14,W
         00005c20 000000a0- 
    1025 00005c40     caf8          JRZ     NEP_COVER_WAIT
    1026                    
    1027 00005c50     b70e          MOVE    *A8(OZVAL),A14,L
         00005c60     0180  
    1028 00005c70     0b2e          ADDI    ZWRAP,A14
         00005c80 092e0000  
    1029 00005ca0     b3c8          MOVE    A14,*A8(OZVAL),L
         00005cb0     0180  
    1030                    
    1031 00005cc0     09e1          MOVI    LEFTOVER_FRAME_ANIM,A1
         00005cd0 00008b30' 
    1032 00005cf0     0d5f          CALLA   STRT_ANIM
         00005d00 00000000! 
    1033                    
    1034 00005d20     18a9          MOVK    5,A9
    1035 00005d30           NEP_BIG_FIREBALLS_LUPE
    1036 00005d30     0d5f          calla   small_fire_inc
         00005d40 00000000! 
    1037 00005d60     0d3f          CALLR   MAKE_BIG_FIREBALL               ;throw debris
         00005d70     011b  
    1038 00005d80     0d3f          CALLR   MAKE_BIG_FIREBALL
         00005d90     0119  
    1039 00005da0     0d3f          CALLR   MAKE_BIG_FIREBALL
         00005db0     0117  
    1040 00005dc0     0d3f          CALLR   MAKE_BIG_FIREBALL
         00005dd0     0115  
    1041 00005de0     0d3f          CALLR   MAKE_BIG_FIREBALL
         00005df0     0113  
    1042                    
    1043 00005e00     0d3f          CALLR   THROW_PIPES
         00005e10     0011  
    1044                    
    1045 00005e20                   SLEEP   1
    1046                    
    1047 00005e60     3e89          DSJ     A9,NEP_BIG_FIREBALLS_LUPE
    1048                    
    1049                    ;       SLEEP   60
    1050                    
    1051 00005e70     09c0          MOVI    OID_PIPE,A0
         00005e80     020a  
    1052 00005e90     0d5f          CALLA   KILOBJ_ALL
         00005ea0 00000000! 
    1053                    
    1054                    ;       MOVI    PID_COLLISION,A0
    1055                    ;       CALLA   KILALL
    1056                    
    1057 00005ec0     57ce          CLR     A14
    1058 00005ed0     058e          MOVE    A14,@EXPLO_FLAG,W
         00005ee0 00000090- 
    1059                    
    1060 00005f00                   DIE
TMS340 COFF Macro Assembler Version 6.10     Wed Apr 21 11:31:53 2021
 Copyright (c) 1985-1991  Texas Instruments Incorporated 

                                                                     PAGE   27

    1061                    
    1062                    **************************************************************************
    1063                    *                                                                        *
    1064                    * THROW_PIPES                                                            *
    1065                    *                                                                        *
    1066                    **************************************************************************
    1067                    
    1068 00005f30           THROW_PIPES
    1069 00005f30     09c0          MOVI    512,A0
         00005f40     0200  
    1070 00005f50     0d5f          CALLA   RANDPER
         00005f60 00000000! 
    1071 00005f80     c907          JRNC    TP_SHORT
    1072                    
    1073 00005f90     1840          MOVK    2,A0
    1074 00005fa0     09e1          MOVI    LONG_PIPE_TABLE,A1
         00005fb0 00007e10' 
    1075                    
    1076 00005fd0     0d3f          CALLR   MAKE_PIPE
         00005fe0     0150  
    1077 00005ff0     0960          RETS
    1078 00006000           TP_SHORT
    1079 00006000     1880          MOVK    4,A0
    1080 00006010     09e1          MOVI    SHORT_PIPE_TABLE,A1
         00006020 00007e50' 
    1081 00006040     0d3f          CALLR   MAKE_PIPE
         00006050     0149  
    1082                    
    1083 00006060     1880          MOVK    4,A0
    1084 00006070     09e1          MOVI    SHORT_PIPE_TABLE,A1
         00006080 00007e50' 
    1085 000060a0     0d3f          CALLR   MAKE_PIPE
         000060b0     0143  
    1086 000060c0     0960          RETS
    1087                    
    1088                    **************************************************************************
    1089                    *                                                                        *
    1090                    * MAKE_BIG_EXPLO                                                         *
    1091                    *                                                                        *
    1092                    * PASS:                                                                  *
    1093                    * A8 = NET OBJECT                                                        *
    1094                    *                                                                        *
    1095                    **************************************************************************
    1096                    
    1097 000060d0           MAKE_BIG_EXPLO
    1098 000060d0                   PUSH    A8
    1099 000060e0     4d0e          MOVE    A8,A14
    1100 000060f0     0b0e          ADDI    OXVAL,A14
         00006100     0140  
    1101 00006110     09ae          MMFM    A14,A2,A3,A4
         00006120     001c  
    1102                    
    1103 00006130     1442          SUBK    2,A2
    1104 00006140     0d03          SUBI    0180000H,A3                     ;Y "
         00006150 ffe7ffff  
TMS340 COFF Macro Assembler Version 6.10     Wed Apr 21 11:31:53 2021
 Copyright (c) 1985-1991  Texas Instruments Incorporated 

                                                                     PAGE   28

    1105                    
    1106 00006170     09ee          MOVI    0100000H,A14
         00006180 00100000  
    1107 000061a0     b500          MOVE    *A8(OCTRL),A0,W
         000061b0     01f0  
    1108 000061c0     1f60          BTST    B_FLIPH,A0
    1109 000061d0     ca01          JRZ     MBE_X
    1110 000061e0     03ae          NEG     A14                             ;RIGHT GOAL
    1111 000061f0           MBE_X
    1112 000061f0     45c4          SUB     A14,A4                          ;X POSITION
    1113                    
    1114 00006200     182e          MOVK    1,A14
    1115 00006210     058e          MOVE    A14,@EXPLO_COVER_FLAG,W
         00006220 000000a0- 
    1116                    
    1117 00006240     09f0          MOVI    EXPLO_INIT,B0
         00006250 00007ac0' 
    1118 00006270     0d5f          CALLA   EASYMAKE
         00006280 00000000! 
    1119 000062a0     ca16          JRZ     MBE_ABORT
    1120                    
    1121 000062b0     57ce          CLR     A14
    1122 000062c0     058e          MOVE    A14,@EXPLO_COVER_FLAG,W
         000062d0 000000a0- 
    1123                    
    1124                    ;       MOVE    *A8(OFLAGS),A14,W
    1125                    ;       ORI     M_NOSCALE,A14
    1126                    ;       MOVE    A14,*A8(OFLAGS),W
    1127                    
    1128 000062f0     4d0e          MOVE    A8,A14
    1129 00006300     0b0e          ADDI    OZVAL+020H,A14
         00006310     01a0  
    1130 00006320     098e          MMTM    A14,A2,A3,A4
         00006330     3800  
    1131                    
    1132 00006340     09ee          MOVI    0800080H,A14
         00006350 00800080  
    1133 00006370     b3c8          MOVE    A14,*A8(ODT_SC_OVERRIDE),L
         00006380     0790  
    1134                    
    1135 00006390     0d5f          CALLA   INSERT_OBJ
         000063a0 00000000! 
    1136                    
    1137                    ;       MOVI    S_EXPLO_4,A4
    1138 000063c0     09c4          MOVI    S_NET_EXPLO,A4
         000063d0     0131  
    1139 000063e0     0d5f          CALLA   do_sound
         000063f0 00000000! 
    1140                    
    1141 00006410           MBE_ABORT
    1142 00006410                   PULLQ   A8
    1143 00006420     0960          RETS
    1144                    
    1145                    **************************************************************************
    1146                    *                                                                        *
TMS340 COFF Macro Assembler Version 6.10     Wed Apr 21 11:31:53 2021
 Copyright (c) 1985-1991  Texas Instruments Incorporated 

                                                                     PAGE   29

    1147                    * MAKE_SMALL_EXPLO                                                       *
    1148                    *                                                                        *
    1149                    * PASS:                                                                  *
    1150                    * A8 = NET OBJECT                                                        *
    1151                    *                                                                        *
    1152                    **************************************************************************
    1153                    
    1154 00006430           MAKE_SMALL_EXPLO
    1155 00006430                   PUSH    A8
    1156 00006440     4d0e          MOVE    A8,A14
    1157 00006450     0b0e          ADDI    OXVAL,A14
         00006460     0140  
    1158 00006470     09ae          MMFM    A14,A2,A3,A4
         00006480     001c  
    1159                    
    1160 00006490     1422          DEC     A2                              ;Z POSITION
    1161                    
    1162 000064a0     09e0          MOVI    0400000H,A0
         000064b0 00400000  
    1163 000064d0     5621          CLR     A1
    1164 000064e0     0d5f          CALLA   RANGERND
         000064f0 00000000! 
    1165 00006510     4403          SUB     A0,A3                           ;Y POSITION
    1166                    
    1167 00006520     09e0          MOVI    0200000H,A0
         00006530 00200000  
    1168 00006550     09e1          MOVI    020000H,A1
         00006560 00020000  
    1169 00006580     0d5f          CALLA   RANGERND
         00006590 00000000! 
    1170                    
    1171 000065b0     1825          MOVK    1,A5
    1172 000065c0     0b60          CMPI    (0200000H-020000H)/2+020000H,A0
         000065d0 ffeeffff  
    1173 000065f0     c401          JRLT    MSE_CHECK_FLIPH
    1174 00006600     56a5          CLR     A5
    1175                    
    1176 00006610           MSE_CHECK_FLIPH
    1177 00006610     b501          MOVE    *A8(OCTRL),A1,W
         00006620     01f0  
    1178 00006630     1f61          BTST    B_FLIPH,A1
    1179 00006640     ca04          JRZ     MSE_X
    1180 00006650     03a0          NEG     A0                              ;RIGHT GOAL
    1181 00006660     0bc5          XORI    1,A5
         00006670 00000001  
    1182 00006690           MSE_X
    1183 00006690     4404          SUB     A0,A4                           ;X POSITION
    1184                    
    1185 000066a0     09f0          MOVI    EXPLO_INIT,B0
         000066b0 00007ac0' 
    1186 000066d0     0d5f          CALLA   EASYMAKE
         000066e0 00000000! 
    1187 00006700     ca29          JRZ     MSE_ABORT
    1188                    
    1189 00006710     b50e          MOVE    *A8(OFLAGS),A14,W
TMS340 COFF Macro Assembler Version 6.10     Wed Apr 21 11:31:53 2021
 Copyright (c) 1985-1991  Texas Instruments Incorporated 

                                                                     PAGE   30

         00006720     0420  
    1190 00006730     0bae          ORI     M_NOSCALE,A14
         00006740 00000001  
    1191 00006760     b1c8          MOVE    A14,*A8(OFLAGS),W
         00006770     0420  
    1192                    
    1193 00006780     4d0e          MOVE    A8,A14
    1194 00006790     0b0e          ADDI    OZVAL+020H,A14
         000067a0     01a0  
    1195 000067b0     098e          MMTM    A14,A2,A3,A4
         000067c0     3800  
    1196                    
    1197 000067d0     09e0          MOVI    010000H,A0
         000067e0 00010000  
    1198 00006800     5621          CLR     A1
    1199 00006810     0d5f          CALLA   RANGERND
         00006820 00000000! 
    1200                    
    1201 00006840     4ca5          MOVE    A5,A5
    1202 00006850     cb01          JRNZ    MSE_SET_XVEL
    1203 00006860     03a0          NEG     A0
    1204 00006870           MSE_SET_XVEL
    1205 00006870     b208          MOVE    A0,*A8(OXVEL),L
         00006880     0100  
    1206                    
    1207 00006890     09c0          MOVI    512,A0
         000068a0     0200  
    1208 000068b0     0d5f          CALLA   RANDPER
         000068c0 00000000! 
    1209 000068e0     c806          JRC     MSE_INSERT
    1210                    
    1211 000068f0     09e0          MOVI    FBOOM2,A0
         00006900 000069c0' 
    1212 00006920     0d5f          CALLA   CHANGE_PAL
         00006930 00000000! 
    1213                    
    1214 00006950           MSE_INSERT
    1215 00006950     0d5f          CALLA   INSERT_OBJ
         00006960 00000000! 
    1216                    
    1217 00006980     0d3f          CALLR   MAKE_FIREBALL
         00006990     0023  
    1218                            
    1219                    ;       MOVI    S_NET_EXPLO,A4
    1220                    ;       MOVI    127,A1
    1221                    ;       CALLA   do_sound_at_volume
    1222                    
    1223 000069a0           MSE_ABORT
    1224 000069a0                   PULLQ   A8
    1225 000069b0     0960          RETS
    1226                    
    1227 000069c0           FBOOM2:
    1228 000069c0     0020     .word   32 
    1229 000069d0     0000     .word   00000h,07fffh,07fffh,07fffh,07fffh,07fffh,07fffh,07fdeh
    1230 00006a50     7bbd     .word   07bbdh,0739ch,06f7bh,06b5ah,06739h,062f7h,05eb6h,05a95h
TMS340 COFF Macro Assembler Version 6.10     Wed Apr 21 11:31:53 2021
 Copyright (c) 1985-1991  Texas Instruments Incorporated 

                                                                     PAGE   31

    1231 00006ad0     5674     .word   05674h,05253h,04e32h,041d0h,0631bh,07fffh,07ffch,07ff9h
    1232 00006b50     7ff7     .word   07ff7h,07ff2h,07fefh,07fe0h,07f40h,07ec0h,07e60h,07e60h
    1233                    
    1234                    **************************************************************************
    1235                    *                                                                        *
    1236                    * MAKE_FIREBALL                                                          *
    1237                    *                                                                        *
    1238                    * PASS:                                                                  *
    1239                    * A8 = NET OBJECT                                                        *
    1240                    *                                                                        *
    1241                    **************************************************************************
    1242                    
    1243 00006bd0           MAKE_FIREBALL
    1244 00006bd0                   PUSH    A8
    1245                    
    1246 00006be0     09f0          MOVI    FIREBALL_INIT,B0
         00006bf0 00000000! 
    1247 00006c10     0d5f          CALLA   EASYMAKE
         00006c20 00000000! 
    1248 00006c40     ca2c          JRZ     MFB_ABORT
    1249                    
    1250 00006c50     b50e          MOVE    *A8(OFLAGS),A14,W
         00006c60     0420  
    1251 00006c70     0bae          ORI     M_NOSCALE,A14
         00006c80 00000001  
    1252 00006ca0     b1c8          MOVE    A14,*A8(OFLAGS),W
         00006cb0     0420  
    1253                    
    1254 00006cc0     4d0e          MOVE    A8,A14
    1255 00006cd0     0b0e          ADDI    OZVAL+020H,A14
         00006ce0     01a0  
    1256 00006cf0     098e          MMTM    A14,A2,A3,A4
         00006d00     3800  
    1257                    
    1258 00006d10     09e0          MOVI    -020000H,A0
         00006d20 fffe0000  
    1259 00006d40     09e1          MOVI    -040000H,A1
         00006d50 fffc0000  
    1260 00006d70     0d5f          CALLA   RANGERND
         00006d80 00000000! 
    1261 00006da0     b208          MOVE    A0,*A8(OYVEL),L
         00006db0     0120  
    1262                    
    1263 00006dc0     09e0          MOVI    010000H,A0
         00006dd0 00010000  
    1264 00006df0     09e1          MOVI    040000H,A1
         00006e00 00040000  
    1265 00006e20     0d5f          CALLA   RANGERND
         00006e30 00000000! 
    1266                    
    1267 00006e50     4ca5          MOVE    A5,A5
    1268 00006e60     cb01          JRNZ    MFB_SET_XVEL
    1269 00006e70     03a0          NEG     A0
    1270 00006e80           MFB_SET_XVEL
    1271 00006e80     b208          MOVE    A0,*A8(OXVEL),L
TMS340 COFF Macro Assembler Version 6.10     Wed Apr 21 11:31:53 2021
 Copyright (c) 1985-1991  Texas Instruments Incorporated 

                                                                     PAGE   32

         00006e90     0100  
    1272                    
    1273 00006ea0     09c0          MOVI    NORM_GRAVITY,A0
         00006eb0     3000  
    1274 00006ec0     b008          MOVE    A0,*A8(OYACCEL),W
         00006ed0     02f0  
    1275                    
    1276 00006ee0     0d5f          CALLA   INSERT_OBJ
         00006ef0 00000000! 
    1277                    
    1278 00006f10           MFB_ABORT
    1279 00006f10                   PULLQ   A8
    1280 00006f20     0960          RETS
    1281                    
    1282                    **************************************************************************
    1283                    *                                                                        *
    1284                    * MAKE_BIG_FIREBALL                                                              *
    1285                    *                                                                        *
    1286                    * PASS:                                                                  *
    1287                    * A8 = NET OBJECT                                                        *
    1288                    *                                                                        *
    1289                    **************************************************************************
    1290                    
    1291 00006f30           MAKE_BIG_FIREBALL
    1292 00006f30                   PUSH    A8
    1293                    
    1294 00006f40     4d0e          MOVE    A8,A14
    1295 00006f50     0b0e          ADDI    OXVAL,A14
         00006f60     0140  
    1296 00006f70     09ae          MMFM    A14,A2,A3,A4
         00006f80     001c  
    1297                    
    1298 00006f90     1422          DEC     A2                              ;Z POSITION
    1299                    
    1300 00006fa0     09e0          MOVI    0380000H,A0
         00006fb0 00380000  
    1301 00006fd0     09e1          MOVI    0280000H,A1
         00006fe0 00280000  
    1302 00007000     0d5f          CALLA   RANGERND
         00007010 00000000! 
    1303 00007030     4403          SUB     A0,A3                           ;Y POSITION
    1304                    
    1305 00007040     09e0          MOVI    0200000H,A0
         00007050 00200000  
    1306 00007070     09e1          MOVI    020000H,A1
         00007080 00020000  
    1307 000070a0     0d5f          CALLA   RANGERND
         000070b0 00000000! 
    1308                    
    1309 000070d0     1825          MOVK    1,A5
    1310 000070e0     0b60          CMPI    (0200000H-020000H)/2+020000H,A0
         000070f0 ffeeffff  
    1311 00007110     c401          JRLT    MBFB_CHECK_FLIPH
    1312 00007120     56a5          CLR     A5
    1313                    
TMS340 COFF Macro Assembler Version 6.10     Wed Apr 21 11:31:53 2021
 Copyright (c) 1985-1991  Texas Instruments Incorporated 

                                                                     PAGE   33

    1314 00007130           MBFB_CHECK_FLIPH
    1315 00007130     b501          MOVE    *A8(OCTRL),A1,W
         00007140     01f0  
    1316 00007150     1f61          BTST    B_FLIPH,A1
    1317 00007160     ca04          JRZ     MBFB_X
    1318 00007170     03a0          NEG     A0                              ;RIGHT GOAL
    1319 00007180     0bc5          XORI    1,A5
         00007190 00000001  
    1320 000071b0           MBFB_X
    1321 000071b0     4404          SUB     A0,A4                           ;X POSITION
    1322                    
    1323 000071c0     09f0          MOVI    FIREBALL_INIT,B0
         000071d0 00000000! 
    1324 000071f0     0d5f          CALLA   EASYMAKE
         00007200 00000000! 
    1325 00007220     ca2a          JRZ     MBFB_ABORT
    1326                    
    1327 00007230     4d0e          MOVE    A8,A14
    1328 00007240     0b0e          ADDI    OZVAL+020H,A14
         00007250     01a0  
    1329 00007260     098e          MMTM    A14,A2,A3,A4
         00007270     3800  
    1330                    
    1331 00007280     09e0          MOVI    -040000H,A0
         00007290 fffc0000  
    1332 000072b0     09e1          MOVI    -080000H,A1
         000072c0 fff80000  
    1333 000072e0     0d5f          CALLA   RANGERND
         000072f0 00000000! 
    1334 00007310     b208          MOVE    A0,*A8(OYVEL),L
         00007320     0120  
    1335                    
    1336 00007330     09e0          MOVI    040000H,A0
         00007340 00040000  
    1337 00007360     09e1          MOVI    08000H,A1
         00007370 00008000  
    1338 00007390     0d5f          CALLA   RANGERND
         000073a0 00000000! 
    1339                    
    1340 000073c0     4ca5          MOVE    A5,A5
    1341 000073d0     cb01          JRNZ    MBFB_SET_XVEL
    1342 000073e0     03a0          NEG     A0
    1343 000073f0           MBFB_SET_XVEL
    1344 000073f0     b208          MOVE    A0,*A8(OXVEL),L
         00007400     0100  
    1345                    
    1346 00007410     09c0          MOVI    NORM_GRAVITY,A0
         00007420     3000  
    1347 00007430     b008          MOVE    A0,*A8(OYACCEL),W
         00007440     02f0  
    1348                    
    1349 00007450     09ee          MOVI    0800080H,A14
         00007460 00800080  
    1350 00007480     b3c8          MOVE    A14,*A8(ODT_SC_OVERRIDE),L
         00007490     0790  
TMS340 COFF Macro Assembler Version 6.10     Wed Apr 21 11:31:53 2021
 Copyright (c) 1985-1991  Texas Instruments Incorporated 

                                                                     PAGE   34

    1351                    
    1352 000074a0     0d5f          CALLA   INSERT_OBJ
         000074b0 00000000! 
    1353                    
    1354 000074d0           MBFB_ABORT
    1355 000074d0                   PULLQ   A8
    1356 000074e0     0960          RETS
    1357                    
    1358                    **************************************************************************
    1359                    *                                                                        *
    1360                    * MAKE_PIPE                                                              *
    1361                    *                                                                        *
    1362                    * PASS:                                                                  *
    1363                    * A0 = NUMBER OF PIPES                                                   *
    1364                    * A1 = PIPE TABLE                                                        *
    1365                    * A8 = NET OBJECT                                                        *
    1366                    *                                                                        *
    1367                    **************************************************************************
    1368                    
    1369 000074f0           MAKE_PIPE
    1370 000074f0                   PUSH    A8
    1371                    
    1372 00007500     0d5f          CALLA   RAND0
         00007510 00000000! 
    1373 00007530     24a0          SLL     5,A0
    1374 00007540     4020          ADD     A1,A0
    1375 00007550     8606          MOVE    *A0,A6,L
    1376                    
    1377 00007560     4d0e          MOVE    A8,A14
    1378 00007570     0b0e          ADDI    OXVAL,A14
         00007580     0140  
    1379 00007590     09ae          MMFM    A14,A2,A3,A4
         000075a0     001c  
    1380                    
    1381 000075b0     1422          DEC     A2                              ;Z POSITION
    1382                    
    1383 000075c0     09e0          MOVI    0380000H,A0
         000075d0 00380000  
    1384 000075f0     09e1          MOVI    0280000H,A1
         00007600 00280000  
    1385 00007620     0d5f          CALLA   RANGERND
         00007630 00000000! 
    1386 00007650     4403          SUB     A0,A3                           ;Y POSITION
    1387                    
    1388 00007660     09e0          MOVI    0200000H,A0
         00007670 00200000  
    1389 00007690     09e1          MOVI    020000H,A1
         000076a0 00020000  
    1390 000076c0     0d5f          CALLA   RANGERND
         000076d0 00000000! 
    1391                    
    1392 000076f0     1825          MOVK    1,A5
    1393 00007700     0b60          CMPI    (0200000H-020000H)/2+020000H,A0
         00007710 ffeeffff  
    1394 00007730     c401          JRLT    MP_CHECK_FLIPH
TMS340 COFF Macro Assembler Version 6.10     Wed Apr 21 11:31:53 2021
 Copyright (c) 1985-1991  Texas Instruments Incorporated 

                                                                     PAGE   35

    1395 00007740     56a5          CLR     A5
    1396                    
    1397 00007750           MP_CHECK_FLIPH
    1398 00007750     b501          MOVE    *A8(OCTRL),A1,W
         00007760     01f0  
    1399 00007770     1f61          BTST    B_FLIPH,A1
    1400 00007780     ca04          JRZ     MP_X
    1401 00007790     03a0          NEG     A0                              ;RIGHT GOAL
    1402 000077a0     0bc5          XORI    1,A5
         000077b0 00000001  
    1403 000077d0           MP_X
    1404 000077d0     4404          SUB     A0,A4                           ;X POSITION
    1405                    
    1406 000077e0     09f0          MOVI    PIPE_INIT,B0
         000077f0 00007ed0' 
    1407 00007810     0d5f          CALLA   EASYMAKE
         00007820 00000000! 
    1408 00007840     ca25          JRZ     MP_ABORT
    1409                    
    1410 00007850     4d0e          MOVE    A8,A14
    1411 00007860     0b0e          ADDI    OZVAL+020H,A14
         00007870     01a0  
    1412 00007880     098e          MMTM    A14,A2,A3,A4
         00007890     3800  
    1413                    
    1414 000078a0     09e0          MOVI    -038000H,A0
         000078b0 fffc8000  
    1415 000078d0     09e1          MOVI    -048000H,A1
         000078e0 fffb8000  
    1416 00007900     0d5f          CALLA   RANGERND
         00007910 00000000! 
    1417 00007930     b208          MOVE    A0,*A8(OYVEL),L
         00007940     0120  
    1418                    
    1419 00007950     09e0          MOVI    040000H,A0
         00007960 00040000  
    1420 00007980     09e1          MOVI    08000H,A1
         00007990 00008000  
    1421 000079b0     0d5f          CALLA   RANGERND
         000079c0 00000000! 
    1422                    
    1423 000079e0     4ca5          MOVE    A5,A5
    1424 000079f0     cb01          JRNZ    MP_SET_XVEL
    1425 00007a00     03a0          NEG     A0
    1426 00007a10           MP_SET_XVEL
    1427 00007a10     b208          MOVE    A0,*A8(OXVEL),L
         00007a20     0100  
    1428                    
    1429                    ;       MOVI    NORM_GRAVITY,A0
    1430                    ;       MOVE    A0,*A8(OYACCEL),W
    1431                    
    1432 00007a30     4cc1          MOVE    A6,A1
    1433 00007a40     0d5f          CALLA   STRT_ANIM
         00007a50 00000000! 
    1434                    
TMS340 COFF Macro Assembler Version 6.10     Wed Apr 21 11:31:53 2021
 Copyright (c) 1985-1991  Texas Instruments Incorporated 

                                                                     PAGE   36

    1435 00007a70     0d5f          CALLA   INSERT_OBJ
         00007a80 00000000! 
    1436                    
    1437 00007aa0           MP_ABORT
    1438 00007aa0                   PULLQ   A8
    1439 00007ab0     0960          RETS
    1440                    
    1441                    
    1442                    
    1443                    
    1444                    
    1445                    ;**************************************************************************
    1446                    ;*                                                                       *
    1447                    ;* MAKE_FIREBALL                                                                 *
    1448                    ;*                                                                       *
    1449                    ;* PASS:                                                                         *
    1450                    ;* A8 = NET OBJECT                                                       *
    1451                    ;*                                                                       *
    1452                    ;**************************************************************************
    1453                    ;
    1454                    ;MAKE_FIREBALL
    1455                    ;       PUSH    A8
    1456                    ;       MOVE    A8,A14
    1457                    ;       ADDI    OXVAL,A14
    1458                    ;       MMFM    A14,A2,A3,A4
    1459                    ;
    1460                    ;       DEC     A2                              ;Z POSITION
    1461                    ;
    1462                    ;       SUBI    0140000H,A3                     ;Y "
    1463                    ;       MOVI    0100000H,A0
    1464                    ;
    1465                    ;;      MOVI    0400000H,A0
    1466                    ;;      CLR     A1
    1467                    ;;      CALLA   RANGERND
    1468                    ;;      SUB     A0,A3                           ;Y POSITION
    1469                    ;;
    1470                    ;;      MOVI    0200000H,A0
    1471                    ;;      MOVI    020000H,A1
    1472                    ;;      CALLA   RANGERND
    1473                    ;
    1474                    ;       MOVE    *A8(OCTRL),A1,W
    1475                    ;       BTST    B_FLIPH,A1
    1476                    ;       JRZ     MFB_X
    1477                    ;       NEG     A0                              ;RIGHT GOAL
    1478                    ;MFB_X
    1479                    ;       SUB     A0,A4                           ;X POSITION
    1480                    ;
    1481                    ;       MOVI    FIREBALL_INIT,B0
    1482                    ;       CALLA   EASYMAKE
    1483                    ;       JRZ     MFB_ABORT
    1484                    ;
    1485                    ;       MOVE    A8,A14
    1486                    ;       ADDI    OZVAL+020H,A14
    1487                    ;       MMTM    A14,A2,A3,A4
    1488                    ;
TMS340 COFF Macro Assembler Version 6.10     Wed Apr 21 11:31:53 2021
 Copyright (c) 1985-1991  Texas Instruments Incorporated 

                                                                     PAGE   37

    1489                    ;       MOVI    -020000H,A0
    1490                    ;       MOVI    -020000H,A1
    1491                    ;       MOVE    A0,A1
    1492                    ;       CALLA   RANGERND
    1493                    ;;      MOVE    A0,*A8(OYVEL),L
    1494                    ;
    1495                    ;       MOVI    010000H,A0
    1496                    ;       MOVI    020000H,A1
    1497                    ;       MOVE    A0,A1
    1498                    ;       CALLA   RANGERND
    1499                    ;;      MOVE    A0,*A8(OXVEL),L
    1500                    ;
    1501                    ;       MOVI    04000H,A0
    1502                    ;;      MOVE    A0,*A8(OYACCEL),W
    1503                    ;
    1504                    ;       CALLA   INSERT_OBJ
    1505                    ;
    1506                    ;MFB_ABORT
    1507                    ;       PULLQ   A8
    1508                    ;       RETS
    1509                    ;
    1510                    ;
    1511                    ;**************************************************************************
    1512                    ;*                                                                       *
    1513                    ;* FRAG_COLLISION_PROC                                                   *
    1514                    ;*                                                                       *
    1515                    ;**************************************************************************
    1516                    ;
    1517                    ;FRAG_COLLISION_PROC
    1518                    ;       MOVI    SUPPLSTS-OSLINK+8*020H,A8
    1519                    ;
    1520                    ;FCP_LUPE
    1521                    ;       MOVE    *A8(OSLINK),A8,L
    1522                    ;       JRZ     FCP_NAP
    1523                    ;
    1524                    ;       MOVE    *A8(OYVEL),A0,L
    1525                    ;       JRN     FCP_LUPE
    1526                    ;       JRZ     FCP_LUPE
    1527                    ;
    1528                    ;       MOVE    *A8(OYVAL),A14,L
    1529                    ;       JRN     FCP_LUPE
    1530                    ;
    1531                    ;       SRA     1,A0
    1532                    ;       NEG     A0
    1533                    ;       MOVE    A0,*A8(OYVEL),L
    1534                    ;
    1535                    ;       JRUC    FCP_LUPE
    1536                    ;
    1537                    ;FCP_NAP
    1538                    ;       SLEEP   1
    1539                    ;       JRUC    FRAG_COLLISION_PROC
    1540                    
    1541                    
    1542                    
    1543 00007ac0           EXPLO_INIT
TMS340 COFF Macro Assembler Version 6.10     Wed Apr 21 11:31:53 2021
 Copyright (c) 1985-1991  Texas Instruments Incorporated 

                                                                     PAGE   38

    1544 00007ac0 00005950"         .long   FHKEXPLOC1
    1545 00007ae0     8002          .word   DMAWNZ,0
    1546 00007b00     0104          .word   OM_OID|OM_ANIM
    1547 00007b10     07ff          .word   OID_JUNK
    1548 00007b20 00007b40'         .LONG   EXPLO_ANIM
    1549                    
    1550 00007b40           EXPLO_ANIM
    1551                    ;       LW      FHKEXPLOC2,120
    1552                    ;       LW      1,120
    1553                    ;       LWL     1,1|AFUNC,DELETE_OBJ
    1554                    
    1555 00007b40                   LW      1,3
    1556 00007b70                   LWL     FHKEXPLOC2,3|AFUNC,A_COVER_FLAG
    1557 00007bc0                   LW      FHKEXPLOC3,3
    1558 00007bf0                   LW      FHKEXPLOC4,3
    1559 00007c20                   LW      FHKEXPLOC5,3
    1560 00007c50                   LW      FHKEXPLOC6,3
    1561 00007c80                   LW      FHKEXPLOC7,3
    1562 00007cb0                   LW      FHKEXPLOC8,3
    1563 00007ce0                   LW      FHKEXPLOC9,3
    1564 00007d10                   LW      FHKEXPLOC10,3
    1565 00007d40                   LW      FHKEXPLOC11,3
    1566 00007d70                   LWL     1,1|AFUNC,DELETE_OBJ
    1567                    
    1568 00007dc0           A_COVER_FLAG
    1569 00007dc0     182e          MOVK    1,A14
    1570 00007dd0     058e          MOVE    A14,@EXPLO_COVER_FLAG,W
         00007de0 000000a0- 
    1571 00007e00     0960          RETS
    1572                    
    1573 00007e10           LONG_PIPE_TABLE
    1574 00007e10 00007f30'         .LONG   PIPE2_ANIM,PIPE2R_ANIM  
    1575                    
    1576 00007e50           SHORT_PIPE_TABLE
    1577 00007e50 00008330'         .LONG   PIPE3_ANIM,PIPE3R_ANIM  
    1578 00007e90 00008730'         .LONG   PIPE6_ANIM,PIPE6R_ANIM  
    1579                    
    1580 00007ed0           PIPE_INIT
    1581 00007ed0 00004a50"         .long   PIPE201
    1582 00007ef0     8002          .word   DMAWNZ,M_NOSCALE
    1583 00007f10     0100          .word   OM_OID
    1584 00007f20     020a          .word   OID_PIPE
    1585                    
    1586 00007f30           PIPE2_ANIM
    1587 00007f30                   LW      PIPE201,3
    1588 00007f60                   LW      PIPE202,3
    1589 00007f90                   LW      PIPE203,3
    1590 00007fc0                   LW      PIPE204,3
    1591 00007ff0                   LW      PIPE205,3
    1592 00008020                   LW      PIPE206,3
    1593 00008050                   LW      PIPE207,3
    1594 00008080                   LW      PIPE208,3
    1595 000080b0                   LW      PIPE209,3
    1596 000080e0                   LW      PIPE210,3
    1597 00008110 00000000          .long   0
TMS340 COFF Macro Assembler Version 6.10     Wed Apr 21 11:31:53 2021
 Copyright (c) 1985-1991  Texas Instruments Incorporated 

                                                                     PAGE   39

    1598                    
    1599 00008130           PIPE2R_ANIM
    1600 00008130                   LW      PIPE210,3
    1601 00008160                   LW      PIPE209,3
    1602 00008190                   LW      PIPE208,3
    1603 000081c0                   LW      PIPE207,3
    1604 000081f0                   LW      PIPE206,3
    1605 00008220                   LW      PIPE205,3
    1606 00008250                   LW      PIPE204,3
    1607 00008280                   LW      PIPE203,3
    1608 000082b0                   LW      PIPE202,3
    1609 000082e0                   LW      PIPE201,3
    1610 00008310 00000000          .long   0
    1611                    
    1612 00008330           PIPE3_ANIM
    1613 00008330                   LW      PIPE301,3
    1614 00008360                   LW      PIPE302,3
    1615 00008390                   LW      PIPE303,3
    1616 000083c0                   LW      PIPE304,3
    1617 000083f0                   LW      PIPE305,3
    1618 00008420                   LW      PIPE306,3
    1619 00008450                   LW      PIPE307,3
    1620 00008480                   LW      PIPE308,3
    1621 000084b0                   LW      PIPE309,3
    1622 000084e0                   LW      PIPE310,3
    1623 00008510 00000000          .long   0
    1624                    
    1625 00008530           PIPE3R_ANIM
    1626 00008530                   LW      PIPE310,3
    1627 00008560                   LW      PIPE309,3
    1628 00008590                   LW      PIPE308,3
    1629 000085c0                   LW      PIPE307,3
    1630 000085f0                   LW      PIPE306,3
    1631 00008620                   LW      PIPE305,3
    1632 00008650                   LW      PIPE304,3
    1633 00008680                   LW      PIPE303,3
    1634 000086b0                   LW      PIPE302,3
    1635 000086e0                   LW      PIPE301,3
    1636 00008710 00000000          .long   0
    1637                    
    1638 00008730           PIPE6_ANIM
    1639 00008730                   LW      PIPE601,3
    1640 00008760                   LW      PIPE602,3
    1641 00008790                   LW      PIPE603,3
    1642 000087c0                   LW      PIPE604,3
    1643 000087f0                   LW      PIPE605,3
    1644 00008820                   LW      PIPE606,3
    1645 00008850                   LW      PIPE607,3
    1646 00008880                   LW      PIPE608,3
    1647 000088b0                   LW      PIPE609,3
    1648 000088e0                   LW      PIPE610,3
    1649 00008910 00000000          .long   0
    1650                    
    1651 00008930           PIPE6R_ANIM
    1652 00008930                   LW      PIPE610,3
TMS340 COFF Macro Assembler Version 6.10     Wed Apr 21 11:31:53 2021
 Copyright (c) 1985-1991  Texas Instruments Incorporated 

                                                                     PAGE   40

    1653 00008960                   LW      PIPE609,3
    1654 00008990                   LW      PIPE608,3
    1655 000089c0                   LW      PIPE607,3
    1656 000089f0                   LW      PIPE606,3
    1657 00008a20                   LW      PIPE605,3
    1658 00008a50                   LW      PIPE604,3
    1659 00008a80                   LW      PIPE603,3
    1660 00008ab0                   LW      PIPE602,3
    1661 00008ae0                   LW      PIPE601,3
    1662 00008b10 00000000          .long   0
    1663                    
    1664 00008b30           LEFTOVER_FRAME_ANIM
    1665 00008b30                   LWL     FRAME01,4|AFUNC,a_kigp2
    1666 00008b80                   LWL     FRAME02,4|AFUNC,a_kig
    1667 00008bd0                   LWL     FRAME03,4|AFUNC,a_kig
    1668 00008c20                   LWL     FRAME04,4|AFUNC,a_kig
    1669 00008c70                   LWL     FRAME05,4|AFUNC,a_kig
    1670 00008cc0 00000000          .long   0
    1671                    
    1672 00008ce0           net_low_c_table
    1673 00008ce0 0000b150'         .long   nb_lcs_script           ;low y slow center
    1674 00008d00 0000cb40'         .long   nb_lcm_script           ;low y medium center
    1675 00008d20 0000e160'         .long   nb_lcf_script           ;low y fast center
    1676 00008d40 00013e50'         .long   nb_mts_script           ;mid y slow high z
    1677 00008d60 00015540'         .long   nb_mtm_script           ;mid y medium high z
    1678 00008d80 00016cc0'         .long   nb_mtf_script           ;mid y fast high z
    1679 00008da0 000183a0'         .long   nb_mbs_script           ;mid y slow low z
    1680 00008dc0 00019b60'         .long   nb_mbm_script           ;mid y medium low z
    1681 00008de0 0001b310'         .long   nb_mbf_script           ;mid y fast low z
    1682 00008e00           net_mid_c_table
    1683 00008e00 0000f870'         .long   nb_mcs_script           ;mid y slow center
    1684 00008e20 00011080'         .long   nb_mcm_script           ;mid y medium center
    1685 00008e40 00012830'         .long   nb_mcf_script           ;mid y fast center
    1686 00008e60 00013e50'         .long   nb_mts_script           ;mid y slow high z
    1687 00008e80 00015540'         .long   nb_mtm_script           ;mid y medium high z
    1688 00008ea0 00016cc0'         .long   nb_mtf_script           ;mid y fast high z
    1689 00008ec0 000183a0'         .long   nb_mbs_script           ;mid y slow low z
    1690 00008ee0 00019b60'         .long   nb_mbm_script           ;mid y medium low z
    1691 00008f00 0001b310'         .long   nb_mbf_script           ;mid y fast low z
    1692 00008f20           net_high_c_table
    1693 00008f20 0001cd40'         .long   nb_hcs_script           ;mid y slow center
    1694 00008f40 0001e640'         .long   nb_hcm_script           ;mid y medium center
    1695 00008f60 0001fdf0'         .long   nb_hcf_script           ;mid y fast center
    1696 00008f80 00013e50'         .long   nb_mts_script           ;mid y slow high z
    1697 00008fa0 00015540'         .long   nb_mtm_script           ;mid y medium high z
    1698 00008fc0 00016cc0'         .long   nb_mtf_script           ;mid y fast high z
    1699 00008fe0 000183a0'         .long   nb_mbs_script           ;mid y slow low z
    1700 00009000 00019b60'         .long   nb_mbm_script           ;mid y medium low z
    1701 00009020 0001b310'         .long   nb_mbf_script           ;mid y fast low z
    1702                    
    1703 00009040           nb_flame_script
    1704 00009040                   LWL     GFLM101,AFUNC|2,a_kigp
    1705 00009090                   LWL     GFLM102,AFUNC|2,a_kigf
    1706 000090e0                   LWL     GFLM103,AFUNC|2,a_kig
    1707 00009130                   LWL     GFLM104,AFUNC|2,a_kig
TMS340 COFF Macro Assembler Version 6.10     Wed Apr 21 11:31:53 2021
 Copyright (c) 1985-1991  Texas Instruments Incorporated 

                                                                     PAGE   41

    1708 00009180                   LWL     GFLM105,AFUNC|2,a_kig
    1709 000091d0                   LWL     GFLM106,AFUNC|2,a_kigfb
    1710 00009220                   LWL     GFLM107,AFUNC|2,a_kig
    1711 00009270                   LWL     GFLM108,AFUNC|2,a_kig
    1712 000092c0                   LWL     GFLM109,AFUNC|2,a_kigf
    1713 00009310           nbfl1   LWL     GFLM201,AFUNC|1,A_CHANGE_PAL+2
    1714 00009360 00000000!         .long    GFLM2P
    1715 00009380                   LWL     GFLM201,AFUNC|1,a_kigfb
    1716 000093d0                   LWL     GFLM202,AFUNC|2,a_kig
    1717 00009420                   LWL     GFLM203,AFUNC|2,a_kig
    1718 00009470                   LWL     GFLM204,AFUNC|2,a_kigf
    1719 000094c0                   LWL     GFLM205,AFUNC|2,a_kig
    1720 00009510                   LWL     GFLM206,AFUNC|2,a_kig
    1721 00009560                   LWL     GFLM207,AFUNC|2,a_kig
    1722 000095b0                   LWL     GFLM208,AFUNC|2,a_kigfb
    1723 00009600                   LWL     GFLM209,AFUNC|2,a_kig
    1724 00009650                   LWL     GFLM210,AFUNC|2,a_kig
    1725 000096a0                   LWL     GFLM211,AFUNC|2,a_kigf
    1726 000096f0                   LWL     GFLM212,AFUNC|2,a_kigf
    1727 00009740                   LWL     GFLM213,AFUNC|2,a_kig
    1728 00009790                   LWL     GFLM214,AFUNC|2,a_kig
    1729 000097e0                   LWL     GFLM215,AFUNC|2,a_kigfb
    1730 00009830                   LWL     GFLM216,AFUNC|2,a_kig
    1731 00009880                   LWL     GFLM217,AFUNC|2,a_kig
    1732 000098d0                   LWL     GFLM218,AFUNC|2,a_kig
    1733 00009920                   LWL     GFLM219,AFUNC|2,a_kigfb
    1734 00009970                   LWL     GFLM220,AFUNC|2,a_kig
    1735 000099c0                   LWL     GFLM221,AFUNC|1,a_kig
    1736 00009a10                   LWL     1,AFUNC|1,a_branch+2
    1737 00009a60 00009310'         .long    nbfl1
    1738 00009a80 00000000          .long   0
    1739                    
    1740 00009aa0           nb_ls_script
    1741 00009aa0                   LWL     ghit101,AFUNC|1,a_kig
    1742 00009af0                   LWL     ghit101,AFUNC|1,a_kig
    1743 00009b40                   LWL     ghit101,AFUNC|1,a_kig
    1744 00009b90                   LWL     ghit101,AFUNC|1,a_kig
    1745 00009be0                   LWL     ghit101,AFUNC|1,a_kig
    1746 00009c30                   LWL     goal1a,AFUNC|1,a_kig
    1747 00009c80                   LWL     goal1a,AFUNC|1,a_kig
    1748 00009cd0                   LWL     goal1a,AFUNC|1,a_kig
    1749 00009d20                   LWL     goal1a,AFUNC|1,a_kig
    1750 00009d70                   LWL     goal1a,AFUNC|1,a_kig
    1751 00009dc0                   LWL     ghit101,AFUNC|1,a_kig
    1752 00009e10                   LWL     ghit101,AFUNC|1,a_kig
    1753 00009e60                   LWL     ghit101,AFUNC|1,a_kig
    1754 00009eb0                   LWL     ghit101,AFUNC|1,a_kig
    1755 00009f00                   LWL     goal1a,AFUNC|1,a_kig
    1756 00009f50                   LWL     1,AFUNC|2,a_kig
    1757 00009fa0                   LWL     1,AFUNC|2,a_kig
    1758 00009ff0                   LWL     1,AFUNC|2,a_kig
    1759 0000a040                   LWL     1,AFUNC|2,a_kig
    1760 0000a090                   LWL     1,AFUNC|2,a_kig
    1761 0000a0e0                   LWL     1,AFUNC|2,a_kig
    1762 0000a130                   LWL     1,AFUNC|2,a_kig
TMS340 COFF Macro Assembler Version 6.10     Wed Apr 21 11:31:53 2021
 Copyright (c) 1985-1991  Texas Instruments Incorporated 

                                                                     PAGE   42

    1763 0000a180                   LWL     1,AFUNC|2,a_kig
    1764 0000a1d0                   LWL     1,AFUNC|2,a_kig
    1765 0000a220                   LWL     1,AFUNC|2,a_kig
    1766 0000a270                   LWL     1,AFUNC|2,a_kig
    1767 0000a2c0                   LWL     1,AFUNC|2,a_kig
    1768 0000a310                   LWL     1,AFUNC|2,a_kig
    1769 0000a360                   LWL     1,AFUNC|2,a_kig
    1770 0000a3b0                   LWL     1,AFUNC|2,a_kig
    1771 0000a400                   LWL     1,AFUNC|2,a_kig
    1772 0000a450                   LWL     1,AFUNC|2,a_kig
    1773 0000a4a0                   LWL     1,AFUNC|2,a_kig
    1774 0000a4f0                   LWL     1,AFUNC|2,a_kig
    1775 0000a540                   LWL     1,AFUNC|2,a_kig
    1776 0000a590                   LWL     1,AFUNC|2,a_kig
    1777 0000a5e0                   LWL     1,AFUNC|2,a_kig
    1778 0000a630                   LWL     1,AFUNC|2,a_kig
    1779 0000a680                   LWL     1,AFUNC|2,a_kig
    1780 0000a6d0                   LWL     1,AFUNC|2,a_kig
    1781 0000a720                   LWL     1,AFUNC|2,a_kig
    1782 0000a770                   LWL     1,AFUNC|2,a_kig
    1783 0000a7c0                   LWL     1,AFUNC|2,a_kig
    1784 0000a810                   LWL     1,AFUNC|2,a_kig
    1785 0000a860                   LWL     1,AFUNC|2,a_kig
    1786 0000a8b0                   LWL     1,AFUNC|2,a_kig
    1787 0000a900                   LWL     1,AFUNC|2,a_kig
    1788 0000a950                   LWL     1,AFUNC|2,a_kig
    1789 0000a9a0                   LWL     1,AFUNC|2,a_kig
    1790 0000a9f0                   LW      1,120
    1791 0000aa20                   LW      1,120
    1792 0000aa50 00000000          .long   0
    1793                    
    1794 0000aa70           a_kigp2
    1795 0000aa70     05a0          move    @PUCK_MODE,a0,W
         0000aa80 00000000! 
    1796 0000aaa0     0b40          cmpi    PUM_FACEOFF,a0
         0000aab0     ff9b  
    1797 0000aac0     ca67          jrz     akig5
    1798 0000aad0     09e0          MOVI    FRAME3,A0
         0000aae0 00000000! 
    1799 0000ab00     0d5f          calla   CHANGE_PAL
         0000ab10 00000000! 
    1800 0000ab30     c01d          jruc    akjg
    1801                    
    1802 0000ab40     0d3f  a_kigfb callr   a_kig
         0000ab50     0015  
    1803 0000ab60     c080          jauc    big_fire_inc
         0000ab70 00000000! 
    1804 0000ab90     0d3f  a_kigf  callr   a_kig
         0000aba0     0010  
    1805 0000abb0     c080          jauc    small_fire_inc
         0000abc0 00000000! 
    1806                    
    1807 0000abe0     05a0  a_kigp  move    @PUCK_MODE,a0,W
         0000abf0 00000000! 
    1808 0000ac10     0b40          cmpi    PUM_FACEOFF,a0
TMS340 COFF Macro Assembler Version 6.10     Wed Apr 21 11:31:53 2021
 Copyright (c) 1985-1991  Texas Instruments Incorporated 

                                                                     PAGE   43

         0000ac20     ff9b  
    1809 0000ac30     ca50          jrz     akig5
    1810 0000ac40     09e0          movi    GFLM1P,a0
         0000ac50 00000000! 
    1811 0000ac70     0d5f          calla   CHANGE_PAL
         0000ac80 00000000! 
    1812 0000aca0     c006          jruc    akjg
    1813 0000acb0     05a0  a_kig   move    @PUCK_MODE,a0,W
         0000acc0 00000000! 
    1814 0000ace0     0b40          cmpi    PUM_FACEOFF,a0
         0000acf0     ff9b  
    1815 0000ad00     ca43          jrz     akig5
    1816 0000ad10     07a9  akjg    move    @PUCK_OBJECT,a9,L
         0000ad20 00000000! 
    1817 0000ad40     07aa          move    @PUCK_SHADOW,a10,L
         0000ad50 00000000! 
    1818 0000ad70     b52e          move    *a9(OCTRL),a14,W
         0000ad80     01f0  
    1819 0000ad90     0bae          ori     M_WRNONZ,a14
         0000ada0 00000002  
    1820 0000adc0     b1c9          move    a14,*a9(OCTRL),W
         0000add0     01f0  
    1821 0000ade0     b54e          move    *a10(OCTRL),a14,W
         0000adf0     01f0  
    1822 0000ae00     0bae          ori     M_WRNONZ,a14
         0000ae10 00000002  
    1823 0000ae30     b1ca          move    a14,*a10(OCTRL),W
         0000ae40     01f0  
    1824 0000ae50     b720          move    *a9(OXVAL),a0,L
         0000ae60     0140  
    1825 0000ae70     4c04          move    a0,a4
    1826 0000ae80     c101          jrp     akig1
    1827 0000ae90     0380          abs     a0
    1828 0000aea0     0b60  akig1   cmpi    [729,0],a0
         0000aeb0 fd26ffff  
    1829 0000aed0     c211          jrls    akig2
    1830 0000aee0     09e0          movi    [728,0],a0
         0000aef0 02d80000  
    1831 0000af10     b721          move    *a9(ODT_VEL),a1,L
         0000af20     04d0  
    1832 0000af30     2ba1          sra     3,a1
    1833 0000af40     b229          move    a1,*a9(ODT_VEL),L
         0000af50     04d0  
    1834 0000af60     b22a          move    a1,*a10(ODT_VEL),L
         0000af70     04d0  
    1835 0000af80     4c84          move    a4,a4
    1836 0000af90     c101          jrp     ao1i
    1837 0000afa0     03a0          neg     a0
    1838 0000afb0     b209  ao1i    move    a0,*a9(OXVAL),L
         0000afc0     0140  
    1839 0000afd0     b20a          move    a0,*a10(OXVAL),L
         0000afe0     0140  
    1840 0000aff0     b720  akig2   move    *a9(OZVAL),a0,L
         0000b000     0180  
    1841 0000b010     0b60          cmpi    [383,0],a0
TMS340 COFF Macro Assembler Version 6.10     Wed Apr 21 11:31:53 2021
 Copyright (c) 1985-1991  Texas Instruments Incorporated 

                                                                     PAGE   44

         0000b020 fe80ffff  
    1842 0000b040     c404          jrlt    akig3
    1843 0000b050     09e0          movi    [382,0],a0
         0000b060 017e0000  
    1844 0000b080     c007          jruc    akig4
    1845 0000b090     0b60  akig3   cmpi    [296,0],a0
         0000b0a0 fed7ffff  
    1846 0000b0c0     c707          jrgt    akig5
    1847 0000b0d0     09e0          movi    [297,0],a0
         0000b0e0 01290000  
    1848 0000b100     b209  akig4   move    a0,*a9(OZVAL),L
         0000b110     0180  
    1849 0000b120     b20a          move    a0,*a10(OZVAL),L
         0000b130     0180  
    1850 0000b140     0960  akig5   rets
    1851                    
    1852 0000b150           nb_lcs_script
    1853 0000b150                   LWL     ghit403,AFUNC|1,ppckc+3
    1854 0000b1a0     02df          .word    02dfh,0156h,-03h
    1855 0000b1d0                   LWL     ghit404,AFUNC|1,ppckc+3
    1856 0000b220     02e1          .word    02e1h,0156h,-02h
    1857 0000b250                   LWL     ghit405,AFUNC|5,ppckc+3
    1858 0000b2a0     02e4          .word    02e4h,0156h,-01h
    1859 0000b2d0                   LWL     ghit404,AFUNC|4,ppckc+3
    1860 0000b320     02e1          .word    02e1h,0156h,-02h
    1861 0000b350                   LWL     ghit403,AFUNC|5,ppckc+3
    1862 0000b3a0     02df          .word    02dfh,0156h,-03h
    1863 0000b3d0                   LWL     ghit402,AFUNC|5,ppckcv+3
    1864 0000b420     02db          .word    02dbh,0156h,-02h
    1865 0000b450                   LWL     ghit401,AFUNC|1,a_kig
    1866 0000b4a0                   LWL     1,AFUNC|1,a_kig
    1867 0000b4f0                   LWL     1,AFUNC|1,a_kig
    1868 0000b540                   LWL     1,AFUNC|1,a_kig
    1869 0000b590                   LWL     1,AFUNC|1,a_kig
    1870 0000b5e0                   LWL     goal1a,AFUNC|1,a_kig
    1871 0000b630                   LWL     1,AFUNC|1,a_kig
    1872 0000b680                   LWL     ghit101,AFUNC|1,a_kig
    1873 0000b6d0                   LWL     1,AFUNC|1,a_kig
    1874 0000b720                   LWL     1,AFUNC|1,a_kig
    1875 0000b770                   LWL     1,AFUNC|1,a_kig
    1876 0000b7c0                   LWL     1,AFUNC|1,a_kig
    1877 0000b810                   LW      goal1a,1
    1878 0000b840                   LWL     1,AFUNC|2,a_kig
    1879 0000b890                   LWL     1,AFUNC|2,a_kig
    1880 0000b8e0                   LW      ghit101,1
    1881 0000b910                   LWL     1,AFUNC|1,a_kig
    1882 0000b960                   LWL     1,AFUNC|2,a_kig
    1883 0000b9b0                   LW      goal1a,1
    1884 0000b9e0                   LWL     1,AFUNC|2,a_kig
    1885 0000ba30                   LWL     1,AFUNC|2,a_kig
    1886 0000ba80                   LWL     1,AFUNC|2,a_kig
    1887 0000bad0                   LWL     1,AFUNC|2,a_kig
    1888 0000bb20                   LWL     1,AFUNC|2,a_kig
    1889 0000bb70                   LWL     1,AFUNC|2,a_kig
    1890 0000bbc0                   LWL     1,AFUNC|2,a_kig
TMS340 COFF Macro Assembler Version 6.10     Wed Apr 21 11:31:53 2021
 Copyright (c) 1985-1991  Texas Instruments Incorporated 

                                                                     PAGE   45

    1891 0000bc10                   LWL     1,AFUNC|2,a_kig
    1892 0000bc60                   LWL     1,AFUNC|2,a_kig
    1893 0000bcb0                   LWL     1,AFUNC|2,a_kig
    1894 0000bd00                   LWL     1,AFUNC|2,a_kig
    1895 0000bd50                   LWL     1,AFUNC|2,a_kig
    1896 0000bda0                   LWL     1,AFUNC|2,a_kig
    1897 0000bdf0                   LWL     1,AFUNC|2,a_kig
    1898 0000be40                   LWL     1,AFUNC|2,a_kig
    1899 0000be90                   LWL     1,AFUNC|2,a_kig
    1900 0000bee0                   LWL     1,AFUNC|2,a_kig
    1901 0000bf30                   LWL     1,AFUNC|2,a_kig
    1902 0000bf80                   LWL     1,AFUNC|2,a_kig
    1903 0000bfd0                   LWL     1,AFUNC|2,a_kig
    1904 0000c020                   LWL     1,AFUNC|2,a_kig
    1905 0000c070                   LWL     1,AFUNC|2,a_kig
    1906 0000c0c0                   LWL     1,AFUNC|2,a_kig
    1907 0000c110                   LWL     1,AFUNC|2,a_kig
    1908 0000c160                   LWL     1,AFUNC|2,a_kig
    1909 0000c1b0                   LWL     1,AFUNC|2,a_kig
    1910 0000c200                   LWL     1,AFUNC|2,a_kig
    1911 0000c250                   LWL     1,AFUNC|2,a_kig
    1912 0000c2a0                   LWL     1,AFUNC|2,a_kig
    1913 0000c2f0                   LWL     1,AFUNC|2,a_kig
    1914 0000c340                   LWL     1,AFUNC|2,a_kig
    1915 0000c390                   LWL     1,AFUNC|2,a_kig
    1916 0000c3e0                   LWL     1,AFUNC|2,a_kig
    1917 0000c430                   LWL     1,AFUNC|2,a_kig
    1918 0000c480                   LWL     1,AFUNC|2,a_kig
    1919 0000c4d0                   LWL     1,AFUNC|2,a_kig
    1920 0000c520                   LWL     1,AFUNC|2,a_kig
    1921 0000c570                   LWL     1,AFUNC|2,a_kig
    1922 0000c5c0                   LWL     1,AFUNC|2,a_kig
    1923 0000c610                   LWL     1,AFUNC|2,a_kig
    1924 0000c660                   LWL     1,AFUNC|2,a_kig
    1925 0000c6b0                   LWL     1,AFUNC|2,a_kig
    1926 0000c700                   LWL     1,AFUNC|2,a_kig
    1927 0000c750                   LWL     1,AFUNC|2,a_kig
    1928 0000c7a0                   LWL     1,AFUNC|2,a_kig
    1929 0000c7f0                   LWL     1,AFUNC|2,a_kig
    1930 0000c840                   LWL     1,AFUNC|2,a_kig
    1931 0000c890                   LWL     1,AFUNC|2,a_kig
    1932 0000c8e0                   LWL     1,AFUNC|2,a_kig
    1933 0000c930                   LWL     1,AFUNC|2,a_kig
    1934 0000c980                   LWL     1,AFUNC|2,a_kig
    1935 0000c9d0                   LWL     1,AFUNC|2,a_kig
    1936 0000ca20                   LWL     1,AFUNC|2,a_kig
    1937 0000ca70                   LWL     1,AFUNC|2,a_kig
    1938 0000cac0                   LW      1,120
    1939 0000caf0                   LW      1,120
    1940 0000cb20 00000000          .long   0
    1941                    
    1942 0000cb40           nb_lcm_script
    1943 0000cb40                   LWL     ghit405,AFUNC|5,ppckc+3
    1944 0000cb90     02e4          .word    02e4h,0156h,-01h
    1945 0000cbc0                   LWL     ghit404,AFUNC|4,ppckc+3
TMS340 COFF Macro Assembler Version 6.10     Wed Apr 21 11:31:53 2021
 Copyright (c) 1985-1991  Texas Instruments Incorporated 

                                                                     PAGE   46

    1946 0000cc10     02e1          .word    02e1h,0156h,-02h
    1947 0000cc40                   LWL     ghit403,AFUNC|3,ppckc+3
    1948 0000cc90     02df          .word    02dfh,0156h,-03h
    1949 0000ccc0                   LWL     ghit402,AFUNC|3,ppckcv+3
    1950 0000cd10     02db          .word    02dbh,0156h,-02h
    1951 0000cd40                   LWL     ghit401,AFUNC|1,a_kig
    1952 0000cd90                   LWL     1,AFUNC|1,a_kig
    1953 0000cde0                   LWL     1,AFUNC|1,a_kig
    1954 0000ce30                   LWL     goal1a,AFUNC|1,a_kig
    1955 0000ce80                   LWL     1,AFUNC|1,a_kig
    1956 0000ced0                   LWL     ghit101,AFUNC|1,a_kig
    1957 0000cf20                   LWL     1,AFUNC|1,a_kig
    1958 0000cf70                   LWL     1,AFUNC|1,a_kig
    1959 0000cfc0                   LWL     1,AFUNC|1,a_kig
    1960 0000d010                   LWL     1,AFUNC|1,a_kig
    1961 0000d060                   LW      goal1a,1
    1962 0000d090                   LWL     1,AFUNC|2,a_kig
    1963 0000d0e0                   LWL     1,AFUNC|2,a_kig
    1964 0000d130                   LW      ghit101,1
    1965 0000d160                   LWL     1,AFUNC|1,a_kig
    1966 0000d1b0                   LWL     1,AFUNC|2,a_kig
    1967 0000d200                   LW      goal1a,1
    1968 0000d230                   LWL     1,AFUNC|2,a_kig
    1969 0000d280                   LWL     1,AFUNC|2,a_kig
    1970 0000d2d0                   LWL     1,AFUNC|2,a_kig
    1971 0000d320                   LWL     1,AFUNC|2,a_kig
    1972 0000d370                   LWL     1,AFUNC|2,a_kig
    1973 0000d3c0                   LWL     1,AFUNC|2,a_kig
    1974 0000d410                   LWL     1,AFUNC|2,a_kig
    1975 0000d460                   LWL     1,AFUNC|2,a_kig
    1976 0000d4b0                   LWL     1,AFUNC|2,a_kig
    1977 0000d500                   LWL     1,AFUNC|2,a_kig
    1978 0000d550                   LWL     1,AFUNC|2,a_kig
    1979 0000d5a0                   LWL     1,AFUNC|2,a_kig
    1980 0000d5f0                   LWL     1,AFUNC|2,a_kig
    1981 0000d640                   LWL     1,AFUNC|2,a_kig
    1982 0000d690                   LWL     1,AFUNC|2,a_kig
    1983 0000d6e0                   LWL     1,AFUNC|2,a_kig
    1984 0000d730                   LWL     1,AFUNC|2,a_kig
    1985 0000d780                   LWL     1,AFUNC|2,a_kig
    1986 0000d7d0                   LWL     1,AFUNC|2,a_kig
    1987 0000d820                   LWL     1,AFUNC|2,a_kig
    1988 0000d870                   LWL     1,AFUNC|2,a_kig
    1989 0000d8c0                   LWL     1,AFUNC|2,a_kig
    1990 0000d910                   LWL     1,AFUNC|2,a_kig
    1991 0000d960                   LWL     1,AFUNC|2,a_kig
    1992 0000d9b0                   LWL     1,AFUNC|2,a_kig
    1993 0000da00                   LWL     1,AFUNC|2,a_kig
    1994 0000da50                   LWL     1,AFUNC|2,a_kig
    1995 0000daa0                   LWL     1,AFUNC|2,a_kig
    1996 0000daf0                   LWL     1,AFUNC|2,a_kig
    1997 0000db40                   LWL     1,AFUNC|2,a_kig
    1998 0000db90                   LWL     1,AFUNC|2,a_kig
    1999 0000dbe0                   LWL     1,AFUNC|2,a_kig
    2000 0000dc30                   LWL     1,AFUNC|2,a_kig
TMS340 COFF Macro Assembler Version 6.10     Wed Apr 21 11:31:53 2021
 Copyright (c) 1985-1991  Texas Instruments Incorporated 

                                                                     PAGE   47

    2001 0000dc80                   LWL     1,AFUNC|2,a_kig
    2002 0000dcd0                   LWL     1,AFUNC|2,a_kig
    2003 0000dd20                   LWL     1,AFUNC|2,a_kig
    2004 0000dd70                   LWL     1,AFUNC|2,a_kig
    2005 0000ddc0                   LWL     1,AFUNC|2,a_kig
    2006 0000de10                   LWL     1,AFUNC|2,a_kig
    2007 0000de60                   LWL     1,AFUNC|2,a_kig
    2008 0000deb0                   LWL     1,AFUNC|2,a_kig
    2009 0000df00                   LWL     1,AFUNC|2,a_kig
    2010 0000df50                   LWL     1,AFUNC|2,a_kig
    2011 0000dfa0                   LWL     1,AFUNC|2,a_kig
    2012 0000dff0                   LWL     1,AFUNC|2,a_kig
    2013 0000e040                   LWL     1,AFUNC|2,a_kig
    2014 0000e090                   LWL     1,AFUNC|2,a_kig
    2015 0000e0e0                   LW      1,120
    2016 0000e110                   LW      1,120
    2017 0000e140 00000000          .long   0
    2018                    
    2019 0000e160           nb_lcf_script
    2020 0000e160                   LWL     ghit405,AFUNC|1,ppckc+3
    2021 0000e1b0     02e4          .word    02e4h,0156h,-01h
    2022 0000e1e0                   LWL     ghit404,AFUNC|3,ppckc+3
    2023 0000e230     02e1          .word    02e1h,0156h,-02h
    2024 0000e260                   LWL     ghit403,AFUNC|3,ppckc+3
    2025 0000e2b0     02df          .word    02dfh,0156h,-03h
    2026 0000e2e0                   LWL     ghit402,AFUNC|3,ppckcv+3
    2027 0000e330     02db          .word    02dbh,0156h,-02h
    2028 0000e360                   LWL     ghit401,AFUNC|1,a_kig
    2029 0000e3b0                   LWL     1,AFUNC|1,a_kig
    2030 0000e400                   LWL     1,AFUNC|1,a_kig
    2031 0000e450                   LWL     goal1a,AFUNC|1,a_kig
    2032 0000e4a0                   LWL     1,AFUNC|1,a_kig
    2033 0000e4f0                   LWL     ghit101,AFUNC|1,a_kig
    2034 0000e540                   LWL     1,AFUNC|1,a_kig
    2035 0000e590                   LWL     1,AFUNC|1,a_kig
    2036 0000e5e0                   LWL     1,AFUNC|1,a_kig
    2037 0000e630                   LWL     1,AFUNC|1,a_kig
    2038 0000e680                   LW      goal1a,1
    2039 0000e6b0                   LWL     1,AFUNC|2,a_kig
    2040 0000e700                   LWL     1,AFUNC|2,a_kig
    2041 0000e750                   LW      ghit101,1
    2042 0000e780                   LWL     1,AFUNC|1,a_kig
    2043 0000e7d0                   LWL     1,AFUNC|2,a_kig
    2044 0000e820                   LW      goal1a,1
    2045 0000e850                   LWL     1,AFUNC|2,a_kig
    2046 0000e8a0                   LWL     1,AFUNC|2,a_kig
    2047 0000e8f0                   LWL     1,AFUNC|2,a_kig
    2048 0000e940                   LWL     1,AFUNC|2,a_kig
    2049 0000e990                   LWL     1,AFUNC|2,a_kig
    2050 0000e9e0                   LWL     1,AFUNC|2,a_kig
    2051 0000ea30                   LWL     1,AFUNC|2,a_kig
    2052 0000ea80                   LWL     1,AFUNC|2,a_kig
    2053 0000ead0                   LWL     1,AFUNC|2,a_kig
    2054 0000eb20                   LWL     1,AFUNC|2,a_kig
    2055 0000eb70                   LWL     1,AFUNC|2,a_kig
TMS340 COFF Macro Assembler Version 6.10     Wed Apr 21 11:31:53 2021
 Copyright (c) 1985-1991  Texas Instruments Incorporated 

                                                                     PAGE   48

    2056 0000ebc0                   LWL     1,AFUNC|2,a_kig
    2057 0000ec10                   LWL     1,AFUNC|2,a_kig
    2058 0000ec60                   LWL     1,AFUNC|2,a_kig
    2059 0000ecb0                   LWL     1,AFUNC|2,a_kig
    2060 0000ed00                   LWL     1,AFUNC|2,a_kig
    2061 0000ed50                   LWL     1,AFUNC|2,a_kig
    2062 0000eda0                   LWL     1,AFUNC|2,a_kig
    2063 0000edf0                   LWL     1,AFUNC|2,a_kig
    2064 0000ee40                   LWL     1,AFUNC|2,a_kig
    2065 0000ee90                   LWL     1,AFUNC|2,a_kig
    2066 0000eee0                   LWL     1,AFUNC|2,a_kig
    2067 0000ef30                   LWL     1,AFUNC|2,a_kig
    2068 0000ef80                   LWL     1,AFUNC|2,a_kig
    2069 0000efd0                   LWL     1,AFUNC|2,a_kig
    2070 0000f020                   LWL     1,AFUNC|2,a_kig
    2071 0000f070                   LWL     1,AFUNC|2,a_kig
    2072 0000f0c0                   LWL     1,AFUNC|2,a_kig
    2073 0000f110                   LWL     1,AFUNC|2,a_kig
    2074 0000f160                   LWL     1,AFUNC|2,a_kig
    2075 0000f1b0                   LWL     1,AFUNC|2,a_kig
    2076 0000f200                   LWL     1,AFUNC|2,a_kig
    2077 0000f250                   LWL     1,AFUNC|2,a_kig
    2078 0000f2a0                   LWL     1,AFUNC|2,a_kig
    2079 0000f2f0                   LWL     1,AFUNC|2,a_kig
    2080 0000f340                   LWL     1,AFUNC|2,a_kig
    2081 0000f390                   LWL     1,AFUNC|2,a_kig
    2082 0000f3e0                   LWL     1,AFUNC|2,a_kig
    2083 0000f430                   LWL     1,AFUNC|2,a_kig
    2084 0000f480                   LWL     1,AFUNC|2,a_kig
    2085 0000f4d0                   LWL     1,AFUNC|2,a_kig
    2086 0000f520                   LWL     1,AFUNC|2,a_kig
    2087 0000f570                   LWL     1,AFUNC|2,a_kig
    2088 0000f5c0                   LWL     1,AFUNC|2,a_kig
    2089 0000f610                   LWL     1,AFUNC|2,a_kig
    2090 0000f660                   LWL     1,AFUNC|2,a_kig
    2091 0000f6b0                   LWL     1,AFUNC|2,a_kig
    2092 0000f700                   LWL     1,AFUNC|2,a_kig
    2093 0000f750                   LWL     1,AFUNC|2,a_kig
    2094 0000f7a0                   LWL     1,AFUNC|2,a_kig
    2095 0000f7f0                   LW      1,120
    2096 0000f820                   LW      1,120
    2097 0000f850 00000000          .long   0
    2098                    
    2099 0000f870           nb_mcs_script
    2100 0000f870                   LWL     ghit103,AFUNC|1,ppckc+3
    2101 0000f8c0     02d2          .word    02d2h,014dh,-012h
    2102 0000f8f0                   LWL     ghit104,AFUNC|1,ppckc+3
    2103 0000f940     02d6          .word    02d6h,014ch,-011h
    2104 0000f970                   LWL     ghit105,AFUNC|5,ppckc+3
    2105 0000f9c0     02db          .word    02dbh,014dh,-010h
    2106 0000f9f0                   LWL     ghit104,AFUNC|4,ppckc+3
    2107 0000fa40     02d6          .word    02d6h,014ch,-0fh
    2108 0000fa70                   LWL     ghit103,AFUNC|5,ppckc+3
    2109 0000fac0     02d2          .word    02d2h,014dh,-0fh
    2110 0000faf0                   LWL     ghit102,AFUNC|5,ppckcv+3
TMS340 COFF Macro Assembler Version 6.10     Wed Apr 21 11:31:53 2021
 Copyright (c) 1985-1991  Texas Instruments Incorporated 

                                                                     PAGE   49

    2111 0000fb40     02cb          .word    02cbh,0149h,-0fh
    2112 0000fb70                   LWL     ghit101,AFUNC|1,a_kig
    2113 0000fbc0                   LWL     1,AFUNC|1,a_kig
    2114 0000fc10                   LWL     1,AFUNC|1,a_kig
    2115 0000fc60                   LWL     1,AFUNC|1,a_kig
    2116 0000fcb0                   LWL     1,AFUNC|1,a_kig
    2117 0000fd00                   LWL     goal1a,AFUNC|1,a_kig
    2118 0000fd50                   LWL     1,AFUNC|1,a_kig
    2119 0000fda0                   LWL     ghit101,AFUNC|1,a_kig
    2120 0000fdf0                   LWL     1,AFUNC|1,a_kig
    2121 0000fe40                   LWL     1,AFUNC|1,a_kig
    2122 0000fe90                   LWL     1,AFUNC|1,a_kig
    2123 0000fee0                   LWL     1,AFUNC|1,a_kig
    2124 0000ff30                   LW      goal1a,1
    2125 0000ff60                   LWL     1,AFUNC|2,a_kig
    2126 0000ffb0                   LWL     1,AFUNC|2,a_kig
    2127 00010000                   LW      ghit101,1
    2128 00010030                   LWL     1,AFUNC|1,a_kig
    2129 00010080                   LWL     1,AFUNC|2,a_kig
    2130 000100d0                   LW      goal1a,5
    2131 00010100                   LWL     1,AFUNC|2,a_kig
    2132 00010150                   LWL     1,AFUNC|2,a_kig
    2133 000101a0                   LWL     1,AFUNC|2,a_kig
    2134 000101f0                   LWL     1,AFUNC|2,a_kig
    2135 00010240                   LWL     1,AFUNC|2,a_kig
    2136 00010290                   LWL     1,AFUNC|2,a_kig
    2137 000102e0                   LWL     1,AFUNC|2,a_kig
    2138 00010330                   LWL     1,AFUNC|2,a_kig
    2139 00010380                   LWL     1,AFUNC|2,a_kig
    2140 000103d0                   LWL     1,AFUNC|2,a_kig
    2141 00010420                   LWL     1,AFUNC|2,a_kig
    2142 00010470                   LWL     1,AFUNC|2,a_kig
    2143 000104c0                   LWL     1,AFUNC|2,a_kig
    2144 00010510                   LWL     1,AFUNC|2,a_kig
    2145 00010560                   LWL     1,AFUNC|2,a_kig
    2146 000105b0                   LWL     1,AFUNC|2,a_kig
    2147 00010600                   LWL     1,AFUNC|2,a_kig
    2148 00010650                   LWL     1,AFUNC|2,a_kig
    2149 000106a0                   LWL     1,AFUNC|2,a_kig
    2150 000106f0                   LWL     1,AFUNC|2,a_kig
    2151 00010740                   LWL     1,AFUNC|2,a_kig
    2152 00010790                   LWL     1,AFUNC|2,a_kig
    2153 000107e0                   LWL     1,AFUNC|2,a_kig
    2154 00010830                   LWL     1,AFUNC|2,a_kig
    2155 00010880                   LWL     1,AFUNC|2,a_kig
    2156 000108d0                   LWL     1,AFUNC|2,a_kig
    2157 00010920                   LWL     1,AFUNC|2,a_kig
    2158 00010970                   LWL     1,AFUNC|2,a_kig
    2159 000109c0                   LWL     1,AFUNC|2,a_kig
    2160 00010a10                   LWL     1,AFUNC|2,a_kig
    2161 00010a60                   LWL     1,AFUNC|2,a_kig
    2162 00010ab0                   LWL     1,AFUNC|2,a_kig
    2163 00010b00                   LWL     1,AFUNC|2,a_kig
    2164 00010b50                   LWL     1,AFUNC|2,a_kig
    2165 00010ba0                   LWL     1,AFUNC|2,a_kig
TMS340 COFF Macro Assembler Version 6.10     Wed Apr 21 11:31:53 2021
 Copyright (c) 1985-1991  Texas Instruments Incorporated 

                                                                     PAGE   50

    2166 00010bf0                   LWL     1,AFUNC|2,a_kig
    2167 00010c40                   LWL     1,AFUNC|2,a_kig
    2168 00010c90                   LWL     1,AFUNC|2,a_kig
    2169 00010ce0                   LWL     1,AFUNC|2,a_kig
    2170 00010d30                   LWL     1,AFUNC|2,a_kig
    2171 00010d80                   LWL     1,AFUNC|2,a_kig
    2172 00010dd0                   LWL     1,AFUNC|2,a_kig
    2173 00010e20                   LWL     1,AFUNC|2,a_kig
    2174 00010e70                   LWL     1,AFUNC|2,a_kig
    2175 00010ec0                   LWL     1,AFUNC|2,a_kig
    2176 00010f10                   LWL     1,AFUNC|2,a_kig
    2177 00010f60                   LWL     1,AFUNC|2,a_kig
    2178 00010fb0                   LWL     1,AFUNC|2,a_kig
    2179 00011000                   LW      1,120
    2180 00011030                   LW      1,120
    2181 00011060 00000000          .long   0
    2182                    
    2183 00011080           nb_mcm_script
    2184 00011080                   LWL     ghit105,AFUNC|5,ppckc+3
    2185 000110d0     02db          .word    02dbh,014dh,-010h
    2186 00011100                   LWL     ghit104,AFUNC|4,ppckc+3
    2187 00011150     02d6          .word    02d6h,014ch,-0fh
    2188 00011180                   LWL     ghit103,AFUNC|3,ppckc+3
    2189 000111d0     02d2          .word    02d2h,014dh,-0fh
    2190 00011200                   LWL     ghit102,AFUNC|3,ppckcv+3
    2191 00011250     02cb          .word    02cbh,0149h,-0fh
    2192 00011280                   LWL     ghit101,AFUNC|1,a_kig
    2193 000112d0                   LWL     1,AFUNC|1,a_kig
    2194 00011320                   LWL     1,AFUNC|1,a_kig
    2195 00011370                   LWL     goal1a,AFUNC|1,a_kig
    2196 000113c0                   LWL     1,AFUNC|1,a_kig
    2197 00011410                   LWL     ghit101,AFUNC|1,a_kig
    2198 00011460                   LWL     1,AFUNC|1,a_kig
    2199 000114b0                   LWL     1,AFUNC|1,a_kig
    2200 00011500                   LWL     1,AFUNC|1,a_kig
    2201 00011550                   LWL     1,AFUNC|1,a_kig
    2202 000115a0                   LWL     1,AFUNC|1,a_kig
    2203 000115f0                   LW      goal1a,1
    2204 00011620                   LWL     1,AFUNC|2,a_kig
    2205 00011670                   LWL     1,AFUNC|2,a_kig
    2206 000116c0                   LW      ghit101,1
    2207 000116f0                   LWL     1,AFUNC|1,a_kig
    2208 00011740                   LWL     1,AFUNC|2,a_kig
    2209 00011790                   LW      goal1a,1
    2210 000117c0                   LWL     1,AFUNC|2,a_kig
    2211 00011810                   LWL     1,AFUNC|2,a_kig
    2212 00011860                   LWL     1,AFUNC|2,a_kig
    2213 000118b0                   LWL     1,AFUNC|2,a_kig
    2214 00011900                   LWL     1,AFUNC|2,a_kig
    2215 00011950                   LWL     1,AFUNC|2,a_kig
    2216 000119a0                   LWL     1,AFUNC|2,a_kig
    2217 000119f0                   LWL     1,AFUNC|2,a_kig
    2218 00011a40                   LWL     1,AFUNC|2,a_kig
    2219 00011a90                   LWL     1,AFUNC|2,a_kig
    2220 00011ae0                   LWL     1,AFUNC|2,a_kig
TMS340 COFF Macro Assembler Version 6.10     Wed Apr 21 11:31:53 2021
 Copyright (c) 1985-1991  Texas Instruments Incorporated 

                                                                     PAGE   51

    2221 00011b30                   LWL     1,AFUNC|2,a_kig
    2222 00011b80                   LWL     1,AFUNC|2,a_kig
    2223 00011bd0                   LWL     1,AFUNC|2,a_kig
    2224 00011c20                   LWL     1,AFUNC|2,a_kig
    2225 00011c70                   LWL     1,AFUNC|2,a_kig
    2226 00011cc0                   LWL     1,AFUNC|2,a_kig
    2227 00011d10                   LWL     1,AFUNC|2,a_kig
    2228 00011d60                   LWL     1,AFUNC|2,a_kig
    2229 00011db0                   LWL     1,AFUNC|2,a_kig
    2230 00011e00                   LWL     1,AFUNC|2,a_kig
    2231 00011e50                   LWL     1,AFUNC|2,a_kig
    2232 00011ea0                   LWL     1,AFUNC|2,a_kig
    2233 00011ef0                   LWL     1,AFUNC|2,a_kig
    2234 00011f40                   LWL     1,AFUNC|2,a_kig
    2235 00011f90                   LWL     1,AFUNC|2,a_kig
    2236 00011fe0                   LWL     1,AFUNC|2,a_kig
    2237 00012030                   LWL     1,AFUNC|2,a_kig
    2238 00012080                   LWL     1,AFUNC|2,a_kig
    2239 000120d0                   LWL     1,AFUNC|2,a_kig
    2240 00012120                   LWL     1,AFUNC|2,a_kig
    2241 00012170                   LWL     1,AFUNC|2,a_kig
    2242 000121c0                   LWL     1,AFUNC|2,a_kig
    2243 00012210                   LWL     1,AFUNC|2,a_kig
    2244 00012260                   LWL     1,AFUNC|2,a_kig
    2245 000122b0                   LWL     1,AFUNC|2,a_kig
    2246 00012300                   LWL     1,AFUNC|2,a_kig
    2247 00012350                   LWL     1,AFUNC|2,a_kig
    2248 000123a0                   LWL     1,AFUNC|2,a_kig
    2249 000123f0                   LWL     1,AFUNC|2,a_kig
    2250 00012440                   LWL     1,AFUNC|2,a_kig
    2251 00012490                   LWL     1,AFUNC|2,a_kig
    2252 000124e0                   LWL     1,AFUNC|2,a_kig
    2253 00012530                   LWL     1,AFUNC|2,a_kig
    2254 00012580                   LWL     1,AFUNC|2,a_kig
    2255 000125d0                   LWL     1,AFUNC|2,a_kig
    2256 00012620                   LWL     1,AFUNC|2,a_kig
    2257 00012670                   LWL     1,AFUNC|2,a_kig
    2258 000126c0                   LWL     1,AFUNC|2,a_kig
    2259 00012710                   LWL     1,AFUNC|2,a_kig
    2260 00012760                   LWL     1,AFUNC|2,a_kig
    2261 000127b0                   LW      1,120
    2262 000127e0                   LW      1,120
    2263 00012810 00000000          .long   0
    2264                    
    2265 00012830           nb_mcf_script
    2266 00012830                   LWL     ghit105,AFUNC|1,ppckc+3
    2267 00012880     02db          .word    02dbh,014dh,-010h
    2268 000128b0                   LWL     ghit104,AFUNC|3,ppckc+3
    2269 00012900     02d6          .word    02d6h,014ch,-0fh
    2270 00012930                   LWL     ghit103,AFUNC|3,ppckc+3
    2271 00012980     02d2          .word    02d2h,014dh,-0fh
    2272 000129b0                   LWL     ghit102,AFUNC|3,ppckcv+3
    2273 00012a00     02cb          .word    02cbh,0149h,-0fh
    2274 00012a30                   LWL     ghit101,AFUNC|1,a_kig
    2275 00012a80                   LWL     1,AFUNC|1,a_kig
TMS340 COFF Macro Assembler Version 6.10     Wed Apr 21 11:31:53 2021
 Copyright (c) 1985-1991  Texas Instruments Incorporated 

                                                                     PAGE   52

    2276 00012ad0                   LWL     1,AFUNC|1,a_kig
    2277 00012b20                   LWL     goal1a,AFUNC|1,a_kig
    2278 00012b70                   LWL     1,AFUNC|1,a_kig
    2279 00012bc0                   LWL     ghit101,AFUNC|1,a_kig
    2280 00012c10                   LWL     1,AFUNC|1,a_kig
    2281 00012c60                   LWL     1,AFUNC|1,a_kig
    2282 00012cb0                   LWL     1,AFUNC|1,a_kig
    2283 00012d00                   LWL     1,AFUNC|1,a_kig
    2284 00012d50                   LW      goal1a,1
    2285 00012d80                   LWL     1,AFUNC|2,a_kig
    2286 00012dd0                   LWL     1,AFUNC|2,a_kig
    2287 00012e20                   LW      ghit101,1
    2288 00012e50                   LWL     1,AFUNC|1,a_kig
    2289 00012ea0                   LWL     1,AFUNC|2,a_kig
    2290 00012ef0                   LW      goal1a,1
    2291 00012f20                   LWL     1,AFUNC|2,a_kig
    2292 00012f70                   LWL     1,AFUNC|2,a_kig
    2293 00012fc0                   LWL     1,AFUNC|2,a_kig
    2294 00013010                   LWL     1,AFUNC|2,a_kig
    2295 00013060                   LWL     1,AFUNC|2,a_kig
    2296 000130b0                   LWL     1,AFUNC|2,a_kig
    2297 00013100                   LWL     1,AFUNC|2,a_kig
    2298 00013150                   LWL     1,AFUNC|2,a_kig
    2299 000131a0                   LWL     1,AFUNC|2,a_kig
    2300 000131f0                   LWL     1,AFUNC|2,a_kig
    2301 00013240                   LWL     1,AFUNC|2,a_kig
    2302 00013290                   LWL     1,AFUNC|2,a_kig
    2303 000132e0                   LWL     1,AFUNC|2,a_kig
    2304 00013330                   LWL     1,AFUNC|2,a_kig
    2305 00013380                   LWL     1,AFUNC|2,a_kig
    2306 000133d0                   LWL     1,AFUNC|2,a_kig
    2307 00013420                   LWL     1,AFUNC|2,a_kig
    2308 00013470                   LWL     1,AFUNC|2,a_kig
    2309 000134c0                   LWL     1,AFUNC|2,a_kig
    2310 00013510                   LWL     1,AFUNC|2,a_kig
    2311 00013560                   LWL     1,AFUNC|2,a_kig
    2312 000135b0                   LWL     1,AFUNC|2,a_kig
    2313 00013600                   LWL     1,AFUNC|2,a_kig
    2314 00013650                   LWL     1,AFUNC|2,a_kig
    2315 000136a0                   LWL     1,AFUNC|2,a_kig
    2316 000136f0                   LWL     1,AFUNC|2,a_kig
    2317 00013740                   LWL     1,AFUNC|2,a_kig
    2318 00013790                   LWL     1,AFUNC|2,a_kig
    2319 000137e0                   LWL     1,AFUNC|2,a_kig
    2320 00013830                   LWL     1,AFUNC|2,a_kig
    2321 00013880                   LWL     1,AFUNC|2,a_kig
    2322 000138d0                   LWL     1,AFUNC|2,a_kig
    2323 00013920                   LWL     1,AFUNC|2,a_kig
    2324 00013970                   LWL     1,AFUNC|2,a_kig
    2325 000139c0                   LWL     1,AFUNC|2,a_kig
    2326 00013a10                   LWL     1,AFUNC|2,a_kig
    2327 00013a60                   LWL     1,AFUNC|2,a_kig
    2328 00013ab0                   LWL     1,AFUNC|2,a_kig
    2329 00013b00                   LWL     1,AFUNC|2,a_kig
    2330 00013b50                   LWL     1,AFUNC|2,a_kig
TMS340 COFF Macro Assembler Version 6.10     Wed Apr 21 11:31:53 2021
 Copyright (c) 1985-1991  Texas Instruments Incorporated 

                                                                     PAGE   53

    2331 00013ba0                   LWL     1,AFUNC|2,a_kig
    2332 00013bf0                   LWL     1,AFUNC|2,a_kig
    2333 00013c40                   LWL     1,AFUNC|2,a_kig
    2334 00013c90                   LWL     1,AFUNC|2,a_kig
    2335 00013ce0                   LWL     1,AFUNC|2,a_kig
    2336 00013d30                   LWL     1,AFUNC|2,a_kig
    2337 00013d80                   LWL     1,AFUNC|2,a_kig
    2338 00013dd0                   LW      1,120
    2339 00013e00                   LW      1,120
    2340 00013e30 00000000          .long   0
    2341                    
    2342 00013e50           nb_mts_script
    2343 00013e50                   LWL     ghit202,AFUNC|1,ppckc+3
    2344 00013ea0     02ca          .word    02cah,0146h,-01eh
    2345 00013ed0                   LWL     ghit203,AFUNC|1,ppckc+3
    2346 00013f20     02cf          .word    02cfh,014eh,-020h
    2347 00013f50                   LWL     ghit204,AFUNC|5,ppckc+3
    2348 00013fa0     02d1          .word    02d1h,0154h,-021h
    2349 00013fd0                   LWL     ghit203,AFUNC|4,ppckc+3
    2350 00014020     02cf          .word    02cfh,014eh,-020h
    2351 00014050                   LWL     ghit202,AFUNC|5,ppckc+3
    2352 000140a0     02ca          .word    02cah,0146h,-01eh
    2353 000140d0                   LWL     ghit201,AFUNC|5,ppckcv+3
    2354 00014120     02c7          .word    02c7h,014dh,-01ah
    2355 00014150                   LWL     goal1a,AFUNC|1,a_kig
    2356 000141a0                   LWL     1,AFUNC|1,a_kig
    2357 000141f0                   LWL     ghit101,AFUNC|1,a_kig
    2358 00014240                   LWL     1,AFUNC|1,a_kig
    2359 00014290                   LWL     1,AFUNC|1,a_kig
    2360 000142e0                   LWL     1,AFUNC|1,a_kig
    2361 00014330                   LWL     1,AFUNC|1,a_kig
    2362 00014380                   LWL     goal1a,AFUNC|1,a_kig
    2363 000143d0                   LWL     1,AFUNC|1,a_kig
    2364 00014420                   LWL     1,AFUNC|1,a_kig
    2365 00014470                   LWL     1,AFUNC|1,a_kig
    2366 000144c0                   LWL     1,AFUNC|1,a_kig
    2367 00014510                   LW      ghit101,1
    2368 00014540                   LWL     1,AFUNC|1,a_kig
    2369 00014590                   LWL     1,AFUNC|2,a_kig
    2370 000145e0                   LW      goal1a,1
    2371 00014610                   LWL     1,AFUNC|2,a_kig
    2372 00014660                   LWL     1,AFUNC|2,a_kig
    2373 000146b0                   LWL     1,AFUNC|2,a_kig
    2374 00014700                   LWL     1,AFUNC|2,a_kig
    2375 00014750                   LWL     1,AFUNC|2,a_kig
    2376 000147a0                   LWL     1,AFUNC|2,a_kig
    2377 000147f0                   LWL     1,AFUNC|2,a_kig
    2378 00014840                   LWL     1,AFUNC|2,a_kig
    2379 00014890                   LWL     1,AFUNC|2,a_kig
    2380 000148e0                   LWL     1,AFUNC|2,a_kig
    2381 00014930                   LWL     1,AFUNC|2,a_kig
    2382 00014980                   LWL     1,AFUNC|2,a_kig
    2383 000149d0                   LWL     1,AFUNC|2,a_kig
    2384 00014a20                   LWL     1,AFUNC|2,a_kig
    2385 00014a70                   LWL     1,AFUNC|2,a_kig
TMS340 COFF Macro Assembler Version 6.10     Wed Apr 21 11:31:53 2021
 Copyright (c) 1985-1991  Texas Instruments Incorporated 

                                                                     PAGE   54

    2386 00014ac0                   LWL     1,AFUNC|2,a_kig
    2387 00014b10                   LWL     1,AFUNC|2,a_kig
    2388 00014b60                   LWL     1,AFUNC|2,a_kig
    2389 00014bb0                   LWL     1,AFUNC|2,a_kig
    2390 00014c00                   LWL     1,AFUNC|2,a_kig
    2391 00014c50                   LWL     1,AFUNC|2,a_kig
    2392 00014ca0                   LWL     1,AFUNC|2,a_kig
    2393 00014cf0                   LWL     1,AFUNC|2,a_kig
    2394 00014d40                   LWL     1,AFUNC|2,a_kig
    2395 00014d90                   LWL     1,AFUNC|2,a_kig
    2396 00014de0                   LWL     1,AFUNC|2,a_kig
    2397 00014e30                   LWL     1,AFUNC|2,a_kig
    2398 00014e80                   LWL     1,AFUNC|2,a_kig
    2399 00014ed0                   LWL     1,AFUNC|2,a_kig
    2400 00014f20                   LWL     1,AFUNC|2,a_kig
    2401 00014f70                   LWL     1,AFUNC|2,a_kig
    2402 00014fc0                   LWL     1,AFUNC|2,a_kig
    2403 00015010                   LWL     1,AFUNC|2,a_kig
    2404 00015060                   LWL     1,AFUNC|2,a_kig
    2405 000150b0                   LWL     1,AFUNC|2,a_kig
    2406 00015100                   LWL     1,AFUNC|2,a_kig
    2407 00015150                   LWL     1,AFUNC|2,a_kig
    2408 000151a0                   LWL     1,AFUNC|2,a_kig
    2409 000151f0                   LWL     1,AFUNC|2,a_kig
    2410 00015240                   LWL     1,AFUNC|2,a_kig
    2411 00015290                   LWL     1,AFUNC|2,a_kig
    2412 000152e0                   LWL     1,AFUNC|2,a_kig
    2413 00015330                   LWL     1,AFUNC|2,a_kig
    2414 00015380                   LWL     1,AFUNC|2,a_kig
    2415 000153d0                   LWL     1,AFUNC|2,a_kig
    2416 00015420                   LWL     1,AFUNC|2,a_kig
    2417 00015470                   LWL     1,AFUNC|2,a_kig
    2418 000154c0                   LW      1,120
    2419 000154f0                   LW      1,120
    2420 00015520 00000000          .long   0
    2421                    
    2422 00015540           nb_mtm_script
    2423 00015540                   LWL     ghit204,AFUNC|5,ppckc+3
    2424 00015590     02d1          .word    02d1h,0154h,-021h
    2425 000155c0                   LWL     ghit203,AFUNC|4,ppckc+3
    2426 00015610     02cf          .word    02cfh,014eh,-020h
    2427 00015640                   LWL     ghit202,AFUNC|3,ppckc+3
    2428 00015690     02ca          .word    02cah,0146h,-01eh
    2429 000156c0                   LWL     ghit201,AFUNC|3,ppckcv+3
    2430 00015710     02c7          .word    02c7h,014dh,-01ah
    2431 00015740                   LWL     goal1a,AFUNC|1,a_kig
    2432 00015790                   LWL     1,AFUNC|1,a_kig
    2433 000157e0                   LWL     ghit101,AFUNC|1,a_kig
    2434 00015830                   LWL     1,AFUNC|1,a_kig
    2435 00015880                   LWL     1,AFUNC|1,a_kig
    2436 000158d0                   LWL     1,AFUNC|1,a_kig
    2437 00015920                   LWL     1,AFUNC|1,a_kig
    2438 00015970                   LWL     goal1a,AFUNC|1,a_kig
    2439 000159c0                   LWL     1,AFUNC|1,a_kig
    2440 00015a10                   LWL     1,AFUNC|1,a_kig
TMS340 COFF Macro Assembler Version 6.10     Wed Apr 21 11:31:53 2021
 Copyright (c) 1985-1991  Texas Instruments Incorporated 

                                                                     PAGE   55

    2441 00015a60                   LWL     1,AFUNC|1,a_kig
    2442 00015ab0                   LWL     1,AFUNC|1,a_kig
    2443 00015b00                   LW      ghit101,1
    2444 00015b30                   LWL     1,AFUNC|1,a_kig
    2445 00015b80                   LWL     1,AFUNC|2,a_kig
    2446 00015bd0                   LW      goal1a,1
    2447 00015c00                   LWL     1,AFUNC|2,a_kig
    2448 00015c50                   LWL     1,AFUNC|2,a_kig
    2449 00015ca0                   LWL     1,AFUNC|2,a_kig
    2450 00015cf0                   LWL     1,AFUNC|2,a_kig
    2451 00015d40                   LWL     1,AFUNC|2,a_kig
    2452 00015d90                   LWL     1,AFUNC|2,a_kig
    2453 00015de0                   LWL     1,AFUNC|2,a_kig
    2454 00015e30                   LWL     1,AFUNC|2,a_kig
    2455 00015e80                   LWL     1,AFUNC|2,a_kig
    2456 00015ed0                   LWL     1,AFUNC|2,a_kig
    2457 00015f20                   LWL     1,AFUNC|2,a_kig
    2458 00015f70                   LWL     1,AFUNC|2,a_kig
    2459 00015fc0                   LWL     1,AFUNC|2,a_kig
    2460 00016010                   LWL     1,AFUNC|2,a_kig
    2461 00016060                   LWL     1,AFUNC|2,a_kig
    2462 000160b0                   LWL     1,AFUNC|2,a_kig
    2463 00016100                   LWL     1,AFUNC|2,a_kig
    2464 00016150                   LWL     1,AFUNC|2,a_kig
    2465 000161a0                   LWL     1,AFUNC|2,a_kig
    2466 000161f0                   LWL     1,AFUNC|2,a_kig
    2467 00016240                   LWL     1,AFUNC|2,a_kig
    2468 00016290                   LWL     1,AFUNC|2,a_kig
    2469 000162e0                   LWL     1,AFUNC|2,a_kig
    2470 00016330                   LWL     1,AFUNC|2,a_kig
    2471 00016380                   LWL     1,AFUNC|2,a_kig
    2472 000163d0                   LWL     1,AFUNC|2,a_kig
    2473 00016420                   LWL     1,AFUNC|2,a_kig
    2474 00016470                   LWL     1,AFUNC|2,a_kig
    2475 000164c0                   LWL     1,AFUNC|2,a_kig
    2476 00016510                   LWL     1,AFUNC|2,a_kig
    2477 00016560                   LWL     1,AFUNC|2,a_kig
    2478 000165b0                   LWL     1,AFUNC|2,a_kig
    2479 00016600                   LWL     1,AFUNC|2,a_kig
    2480 00016650                   LWL     1,AFUNC|2,a_kig
    2481 000166a0                   LWL     1,AFUNC|2,a_kig
    2482 000166f0                   LWL     1,AFUNC|2,a_kig
    2483 00016740                   LWL     1,AFUNC|2,a_kig
    2484 00016790                   LWL     1,AFUNC|2,a_kig
    2485 000167e0                   LWL     1,AFUNC|2,a_kig
    2486 00016830                   LWL     1,AFUNC|2,a_kig
    2487 00016880                   LWL     1,AFUNC|2,a_kig
    2488 000168d0                   LWL     1,AFUNC|2,a_kig
    2489 00016920                   LWL     1,AFUNC|2,a_kig
    2490 00016970                   LWL     1,AFUNC|2,a_kig
    2491 000169c0                   LWL     1,AFUNC|2,a_kig
    2492 00016a10                   LWL     1,AFUNC|2,a_kig
    2493 00016a60                   LWL     1,AFUNC|2,a_kig
    2494 00016ab0                   LWL     1,AFUNC|2,a_kig
    2495 00016b00                   LWL     1,AFUNC|2,a_kig
TMS340 COFF Macro Assembler Version 6.10     Wed Apr 21 11:31:53 2021
 Copyright (c) 1985-1991  Texas Instruments Incorporated 

                                                                     PAGE   56

    2496 00016b50                   LWL     1,AFUNC|2,a_kig
    2497 00016ba0                   LWL     1,AFUNC|2,a_kig
    2498 00016bf0                   LWL     1,AFUNC|2,a_kig
    2499 00016c40                   LW      1,120
    2500 00016c70                   LW      1,120
    2501 00016ca0 00000000          .long   0
    2502                    
    2503 00016cc0           nb_mtf_script
    2504 00016cc0                   LWL     ghit204,AFUNC|1,ppckc+3
    2505 00016d10     02d1          .word    02d1h,0154h,-021h
    2506 00016d40                   LWL     ghit203,AFUNC|3,ppckc+3
    2507 00016d90     02cf          .word    02cfh,014eh,-020h
    2508 00016dc0                   LWL     ghit202,AFUNC|3,ppckc+3
    2509 00016e10     02ca          .word    02cah,0146h,-01eh
    2510 00016e40                   LWL     ghit201,AFUNC|3,ppckcv+3
    2511 00016e90     02c7          .word    02c7h,014dh,-01ah
    2512 00016ec0                   LWL     goal1a,AFUNC|1,a_kig
    2513 00016f10                   LWL     1,AFUNC|1,a_kig
    2514 00016f60                   LWL     ghit101,AFUNC|1,a_kig
    2515 00016fb0                   LWL     1,AFUNC|1,a_kig
    2516 00017000                   LWL     1,AFUNC|1,a_kig
    2517 00017050                   LWL     1,AFUNC|1,a_kig
    2518 000170a0                   LWL     1,AFUNC|1,a_kig
    2519 000170f0                   LWL     goal1a,AFUNC|1,a_kig
    2520 00017140                   LWL     1,AFUNC|1,a_kig
    2521 00017190                   LWL     1,AFUNC|1,a_kig
    2522 000171e0                   LWL     1,AFUNC|1,a_kig
    2523 00017230                   LWL     1,AFUNC|1,a_kig
    2524 00017280                   LW      ghit101,1
    2525 000172b0                   LWL     1,AFUNC|1,a_kig
    2526 00017300                   LWL     1,AFUNC|2,a_kig
    2527 00017350                   LW      goal1a,1
    2528 00017380                   LWL     1,AFUNC|2,a_kig
    2529 000173d0                   LWL     1,AFUNC|2,a_kig
    2530 00017420                   LWL     1,AFUNC|2,a_kig
    2531 00017470                   LWL     1,AFUNC|2,a_kig
    2532 000174c0                   LWL     1,AFUNC|2,a_kig
    2533 00017510                   LWL     1,AFUNC|2,a_kig
    2534 00017560                   LWL     1,AFUNC|2,a_kig
    2535 000175b0                   LWL     1,AFUNC|2,a_kig
    2536 00017600                   LWL     1,AFUNC|2,a_kig
    2537 00017650                   LWL     1,AFUNC|2,a_kig
    2538 000176a0                   LWL     1,AFUNC|2,a_kig
    2539 000176f0                   LWL     1,AFUNC|2,a_kig
    2540 00017740                   LWL     1,AFUNC|2,a_kig
    2541 00017790                   LWL     1,AFUNC|2,a_kig
    2542 000177e0                   LWL     1,AFUNC|2,a_kig
    2543 00017830                   LWL     1,AFUNC|2,a_kig
    2544 00017880                   LWL     1,AFUNC|2,a_kig
    2545 000178d0                   LWL     1,AFUNC|2,a_kig
    2546 00017920                   LWL     1,AFUNC|2,a_kig
    2547 00017970                   LWL     1,AFUNC|2,a_kig
    2548 000179c0                   LWL     1,AFUNC|2,a_kig
    2549 00017a10                   LWL     1,AFUNC|2,a_kig
    2550 00017a60                   LWL     1,AFUNC|2,a_kig
TMS340 COFF Macro Assembler Version 6.10     Wed Apr 21 11:31:53 2021
 Copyright (c) 1985-1991  Texas Instruments Incorporated 

                                                                     PAGE   57

    2551 00017ab0                   LWL     1,AFUNC|2,a_kig
    2552 00017b00                   LWL     1,AFUNC|2,a_kig
    2553 00017b50                   LWL     1,AFUNC|2,a_kig
    2554 00017ba0                   LWL     1,AFUNC|2,a_kig
    2555 00017bf0                   LWL     1,AFUNC|2,a_kig
    2556 00017c40                   LWL     1,AFUNC|2,a_kig
    2557 00017c90                   LWL     1,AFUNC|2,a_kig
    2558 00017ce0                   LWL     1,AFUNC|2,a_kig
    2559 00017d30                   LWL     1,AFUNC|2,a_kig
    2560 00017d80                   LWL     1,AFUNC|2,a_kig
    2561 00017dd0                   LWL     1,AFUNC|2,a_kig
    2562 00017e20                   LWL     1,AFUNC|2,a_kig
    2563 00017e70                   LWL     1,AFUNC|2,a_kig
    2564 00017ec0                   LWL     1,AFUNC|2,a_kig
    2565 00017f10                   LWL     1,AFUNC|2,a_kig
    2566 00017f60                   LWL     1,AFUNC|2,a_kig
    2567 00017fb0                   LWL     1,AFUNC|2,a_kig
    2568 00018000                   LWL     1,AFUNC|2,a_kig
    2569 00018050                   LWL     1,AFUNC|2,a_kig
    2570 000180a0                   LWL     1,AFUNC|2,a_kig
    2571 000180f0                   LWL     1,AFUNC|2,a_kig
    2572 00018140                   LWL     1,AFUNC|2,a_kig
    2573 00018190                   LWL     1,AFUNC|2,a_kig
    2574 000181e0                   LWL     1,AFUNC|2,a_kig
    2575 00018230                   LWL     1,AFUNC|2,a_kig
    2576 00018280                   LWL     1,AFUNC|2,a_kig
    2577 000182d0                   LWL     1,AFUNC|2,a_kig
    2578 00018320                   LW      1,120
    2579 00018350                   LW      1,120
    2580 00018380 00000000          .long   0
    2581                    
    2582 000183a0           nb_mbs_script
    2583 000183a0                   LWL     ghit303,AFUNC|1,ppckc+3
    2584 000183f0     02cf          .word    02cfh,0163h,-02h
    2585 00018420                   LWL     ghit304,AFUNC|1,ppckc+3
    2586 00018470     02d4          .word    02d4h,015ch,-01h
    2587 000184a0                   LWL     ghit305,AFUNC|5,ppckc+3
    2588 000184f0     02d8          .word    02d8h,015fh,-04h
    2589 00018520                   LWL     ghit304,AFUNC|4,ppckc+3
    2590 00018570     02d4          .word    02d4h,015ch,-01h
    2591 000185a0                   LWL     ghit303,AFUNC|5,ppckc+3
    2592 000185f0     02cf          .word    02cfh,0163h,-02h
    2593 00018620                   LWL     ghit302,AFUNC|5,ppckcv+3
    2594 00018670     02ce          .word    02ceh,0163h,-01h
    2595 000186a0                   LWL     ghit301,AFUNC|1,a_kig
    2596 000186f0                   LWL     1,AFUNC|1,a_kig
    2597 00018740                   LWL     1,AFUNC|1,a_kig
    2598 00018790                   LWL     1,AFUNC|1,a_kig
    2599 000187e0                   LWL     1,AFUNC|1,a_kig
    2600 00018830                   LWL     goal1a,AFUNC|1,a_kig
    2601 00018880                   LWL     1,AFUNC|1,a_kig
    2602 000188d0                   LWL     ghit101,AFUNC|1,a_kig
    2603 00018920                   LWL     1,AFUNC|1,a_kig
    2604 00018970                   LWL     1,AFUNC|1,a_kig
    2605 000189c0                   LWL     1,AFUNC|1,a_kig
TMS340 COFF Macro Assembler Version 6.10     Wed Apr 21 11:31:53 2021
 Copyright (c) 1985-1991  Texas Instruments Incorporated 

                                                                     PAGE   58

    2606 00018a10                   LWL     1,AFUNC|1,a_kig
    2607 00018a60                   LW      goal1a,1
    2608 00018a90                   LWL     1,AFUNC|2,a_kig
    2609 00018ae0                   LWL     1,AFUNC|2,a_kig
    2610 00018b30                   LW      ghit101,1
    2611 00018b60                   LWL     1,AFUNC|1,a_kig
    2612 00018bb0                   LWL     1,AFUNC|2,a_kig
    2613 00018c00                   LW      goal1a,1
    2614 00018c30                   LWL     1,AFUNC|2,a_kig
    2615 00018c80                   LWL     1,AFUNC|2,a_kig
    2616 00018cd0                   LWL     1,AFUNC|2,a_kig
    2617 00018d20                   LWL     1,AFUNC|2,a_kig
    2618 00018d70                   LWL     1,AFUNC|2,a_kig
    2619 00018dc0                   LWL     1,AFUNC|2,a_kig
    2620 00018e10                   LWL     1,AFUNC|2,a_kig
    2621 00018e60                   LWL     1,AFUNC|2,a_kig
    2622 00018eb0                   LWL     1,AFUNC|2,a_kig
    2623 00018f00                   LWL     1,AFUNC|2,a_kig
    2624 00018f50                   LWL     1,AFUNC|2,a_kig
    2625 00018fa0                   LWL     1,AFUNC|2,a_kig
    2626 00018ff0                   LWL     1,AFUNC|2,a_kig
    2627 00019040                   LWL     1,AFUNC|2,a_kig
    2628 00019090                   LWL     1,AFUNC|2,a_kig
    2629 000190e0                   LWL     1,AFUNC|2,a_kig
    2630 00019130                   LWL     1,AFUNC|2,a_kig
    2631 00019180                   LWL     1,AFUNC|2,a_kig
    2632 000191d0                   LWL     1,AFUNC|2,a_kig
    2633 00019220                   LWL     1,AFUNC|2,a_kig
    2634 00019270                   LWL     1,AFUNC|2,a_kig
    2635 000192c0                   LWL     1,AFUNC|2,a_kig
    2636 00019310                   LWL     1,AFUNC|2,a_kig
    2637 00019360                   LWL     1,AFUNC|2,a_kig
    2638 000193b0                   LWL     1,AFUNC|2,a_kig
    2639 00019400                   LWL     1,AFUNC|2,a_kig
    2640 00019450                   LWL     1,AFUNC|2,a_kig
    2641 000194a0                   LWL     1,AFUNC|2,a_kig
    2642 000194f0                   LWL     1,AFUNC|2,a_kig
    2643 00019540                   LWL     1,AFUNC|2,a_kig
    2644 00019590                   LWL     1,AFUNC|2,a_kig
    2645 000195e0                   LWL     1,AFUNC|2,a_kig
    2646 00019630                   LWL     1,AFUNC|2,a_kig
    2647 00019680                   LWL     1,AFUNC|2,a_kig
    2648 000196d0                   LWL     1,AFUNC|2,a_kig
    2649 00019720                   LWL     1,AFUNC|2,a_kig
    2650 00019770                   LWL     1,AFUNC|2,a_kig
    2651 000197c0                   LWL     1,AFUNC|2,a_kig
    2652 00019810                   LWL     1,AFUNC|2,a_kig
    2653 00019860                   LWL     1,AFUNC|2,a_kig
    2654 000198b0                   LWL     1,AFUNC|2,a_kig
    2655 00019900                   LWL     1,AFUNC|2,a_kig
    2656 00019950                   LWL     1,AFUNC|2,a_kig
    2657 000199a0                   LWL     1,AFUNC|2,a_kig
    2658 000199f0                   LWL     1,AFUNC|2,a_kig
    2659 00019a40                   LWL     1,AFUNC|2,a_kig
    2660 00019a90                   LWL     1,AFUNC|2,a_kig
TMS340 COFF Macro Assembler Version 6.10     Wed Apr 21 11:31:53 2021
 Copyright (c) 1985-1991  Texas Instruments Incorporated 

                                                                     PAGE   59

    2661 00019ae0                   LW      1,120
    2662 00019b10                   LW      1,120
    2663 00019b40 00000000          .long   0
    2664                    
    2665 00019b60           nb_mbm_script
    2666 00019b60                   LWL     ghit305,AFUNC|5,ppckc+3
    2667 00019bb0     02d8          .word    02d8h,015fh,-04h
    2668 00019be0                   LWL     ghit304,AFUNC|4,ppckc+3
    2669 00019c30     02d4          .word    02d4h,015ch,-01h
    2670 00019c60                   LWL     ghit303,AFUNC|3,ppckc+3
    2671 00019cb0     02cf          .word    02cfh,0163h,-02h
    2672 00019ce0                   LWL     ghit302,AFUNC|3,ppckcv+3
    2673 00019d30     02ce          .word    02ceh,0163h,-01h
    2674 00019d60                   LWL     ghit301,AFUNC|1,a_kig
    2675 00019db0                   LWL     1,AFUNC|1,a_kig
    2676 00019e00                   LWL     1,AFUNC|1,a_kig
    2677 00019e50                   LWL     goal1a,AFUNC|1,a_kig
    2678 00019ea0                   LWL     1,AFUNC|1,a_kig
    2679 00019ef0                   LWL     ghit101,AFUNC|1,a_kig
    2680 00019f40                   LWL     1,AFUNC|1,a_kig
    2681 00019f90                   LWL     1,AFUNC|1,a_kig
    2682 00019fe0                   LWL     1,AFUNC|1,a_kig
    2683 0001a030                   LWL     1,AFUNC|1,a_kig
    2684 0001a080                   LW      goal1a,1
    2685 0001a0b0                   LWL     1,AFUNC|2,a_kig
    2686 0001a100                   LWL     1,AFUNC|2,a_kig
    2687 0001a150                   LW      ghit101,1
    2688 0001a180                   LWL     1,AFUNC|1,a_kig
    2689 0001a1d0                   LWL     1,AFUNC|2,a_kig
    2690 0001a220                   LW      goal1a,1
    2691 0001a250                   LWL     1,AFUNC|2,a_kig
    2692 0001a2a0                   LWL     1,AFUNC|2,a_kig
    2693 0001a2f0                   LWL     1,AFUNC|2,a_kig
    2694 0001a340                   LWL     1,AFUNC|2,a_kig
    2695 0001a390                   LWL     1,AFUNC|2,a_kig
    2696 0001a3e0                   LWL     1,AFUNC|2,a_kig
    2697 0001a430                   LWL     1,AFUNC|2,a_kig
    2698 0001a480                   LWL     1,AFUNC|2,a_kig
    2699 0001a4d0                   LWL     1,AFUNC|2,a_kig
    2700 0001a520                   LWL     1,AFUNC|2,a_kig
    2701 0001a570                   LWL     1,AFUNC|2,a_kig
    2702 0001a5c0                   LWL     1,AFUNC|2,a_kig
    2703 0001a610                   LWL     1,AFUNC|2,a_kig
    2704 0001a660                   LWL     1,AFUNC|2,a_kig
    2705 0001a6b0                   LWL     1,AFUNC|2,a_kig
    2706 0001a700                   LWL     1,AFUNC|2,a_kig
    2707 0001a750                   LWL     1,AFUNC|2,a_kig
    2708 0001a7a0                   LWL     1,AFUNC|2,a_kig
    2709 0001a7f0                   LWL     1,AFUNC|2,a_kig
    2710 0001a840                   LWL     1,AFUNC|2,a_kig
    2711 0001a890                   LWL     1,AFUNC|2,a_kig
    2712 0001a8e0                   LWL     1,AFUNC|2,a_kig
    2713 0001a930                   LWL     1,AFUNC|2,a_kig
    2714 0001a980                   LWL     1,AFUNC|2,a_kig
    2715 0001a9d0                   LWL     1,AFUNC|2,a_kig
TMS340 COFF Macro Assembler Version 6.10     Wed Apr 21 11:31:53 2021
 Copyright (c) 1985-1991  Texas Instruments Incorporated 

                                                                     PAGE   60

    2716 0001aa20                   LWL     1,AFUNC|2,a_kig
    2717 0001aa70                   LWL     1,AFUNC|2,a_kig
    2718 0001aac0                   LWL     1,AFUNC|2,a_kig
    2719 0001ab10                   LWL     1,AFUNC|2,a_kig
    2720 0001ab60                   LWL     1,AFUNC|2,a_kig
    2721 0001abb0                   LWL     1,AFUNC|2,a_kig
    2722 0001ac00                   LWL     1,AFUNC|2,a_kig
    2723 0001ac50                   LWL     1,AFUNC|2,a_kig
    2724 0001aca0                   LWL     1,AFUNC|2,a_kig
    2725 0001acf0                   LWL     1,AFUNC|2,a_kig
    2726 0001ad40                   LWL     1,AFUNC|2,a_kig
    2727 0001ad90                   LWL     1,AFUNC|2,a_kig
    2728 0001ade0                   LWL     1,AFUNC|2,a_kig
    2729 0001ae30                   LWL     1,AFUNC|2,a_kig
    2730 0001ae80                   LWL     1,AFUNC|2,a_kig
    2731 0001aed0                   LWL     1,AFUNC|2,a_kig
    2732 0001af20                   LWL     1,AFUNC|2,a_kig
    2733 0001af70                   LWL     1,AFUNC|2,a_kig
    2734 0001afc0                   LWL     1,AFUNC|2,a_kig
    2735 0001b010                   LWL     1,AFUNC|2,a_kig
    2736 0001b060                   LWL     1,AFUNC|2,a_kig
    2737 0001b0b0                   LWL     1,AFUNC|2,a_kig
    2738 0001b100                   LWL     1,AFUNC|2,a_kig
    2739 0001b150                   LWL     1,AFUNC|2,a_kig
    2740 0001b1a0                   LWL     1,AFUNC|2,a_kig
    2741 0001b1f0                   LWL     1,AFUNC|2,a_kig
    2742 0001b240                   LWL     1,AFUNC|2,a_kig
    2743 0001b290                   LW      1,120
    2744 0001b2c0                   LW      1,120
    2745 0001b2f0 00000000          .long   0
    2746                    
    2747 0001b310           nb_mbf_script
    2748 0001b310                   LWL     ghit305,AFUNC|1,ppckc+3
    2749 0001b360     02d8          .word    02d8h,015fh,-04h
    2750 0001b390                   LWL     ghit304,AFUNC|3,ppckc+3
    2751 0001b3e0     02d4          .word    02d4h,015ch,-01h
    2752 0001b410                   LWL     ghit303,AFUNC|3,ppckc+3
    2753 0001b460     02cf          .word    02cfh,0163h,-02h
    2754 0001b490                   LWL     ghit302,AFUNC|3,ppckcv+3
    2755 0001b4e0     02ce          .word    02ceh,0163h,-01h
    2756 0001b510                   LWL     ghit301,AFUNC|1,a_kig
    2757 0001b560                   LWL     1,AFUNC|1,a_kig
    2758 0001b5b0                   LWL     1,AFUNC|1,a_kig
    2759 0001b600                   LWL     goal1a,AFUNC|1,a_kig
    2760 0001b650                   LWL     1,AFUNC|1,a_kig
    2761 0001b6a0                   LWL     ghit101,AFUNC|1,a_kig
    2762 0001b6f0                   LWL     1,AFUNC|1,a_kig
    2763 0001b740                   LWL     1,AFUNC|1,a_kig
    2764 0001b790                   LWL     1,AFUNC|1,a_kig
    2765 0001b7e0                   LWL     1,AFUNC|1,a_kig
    2766 0001b830                   LW      goal1a,1
    2767 0001b860                   LWL     1,AFUNC|2,a_kig
    2768 0001b8b0                   LWL     1,AFUNC|2,a_kig
    2769 0001b900                   LW      ghit101,1
    2770 0001b930                   LWL     1,AFUNC|1,a_kig
TMS340 COFF Macro Assembler Version 6.10     Wed Apr 21 11:31:53 2021
 Copyright (c) 1985-1991  Texas Instruments Incorporated 

                                                                     PAGE   61

    2771 0001b980                   LWL     1,AFUNC|2,a_kig
    2772 0001b9d0                   LW      goal1a,1
    2773 0001ba00                   LWL     1,AFUNC|2,a_kig
    2774 0001ba50                   LWL     1,AFUNC|2,a_kig
    2775 0001baa0                   LWL     1,AFUNC|2,a_kig
    2776 0001baf0                   LWL     1,AFUNC|2,a_kig
    2777 0001bb40                   LWL     1,AFUNC|2,a_kig
    2778 0001bb90                   LWL     1,AFUNC|2,a_kig
    2779 0001bbe0                   LWL     1,AFUNC|2,a_kig
    2780 0001bc30                   LWL     1,AFUNC|2,a_kig
    2781 0001bc80                   LWL     1,AFUNC|2,a_kig
    2782 0001bcd0                   LWL     1,AFUNC|2,a_kig
    2783 0001bd20                   LWL     1,AFUNC|2,a_kig
    2784 0001bd70                   LWL     1,AFUNC|2,a_kig
    2785 0001bdc0                   LWL     1,AFUNC|2,a_kig
    2786 0001be10                   LWL     1,AFUNC|2,a_kig
    2787 0001be60                   LWL     1,AFUNC|2,a_kig
    2788 0001beb0                   LWL     1,AFUNC|2,a_kig
    2789 0001bf00                   LWL     1,AFUNC|2,a_kig
    2790 0001bf50                   LWL     1,AFUNC|2,a_kig
    2791 0001bfa0                   LWL     1,AFUNC|2,a_kig
    2792 0001bff0                   LWL     1,AFUNC|2,a_kig
    2793 0001c040                   LWL     1,AFUNC|2,a_kig
    2794 0001c090                   LWL     1,AFUNC|2,a_kig
    2795 0001c0e0                   LWL     1,AFUNC|2,a_kig
    2796 0001c130                   LWL     1,AFUNC|2,a_kig
    2797 0001c180                   LWL     1,AFUNC|2,a_kig
    2798 0001c1d0                   LWL     1,AFUNC|2,a_kig
    2799 0001c220                   LWL     1,AFUNC|2,a_kig
    2800 0001c270                   LWL     1,AFUNC|2,a_kig
    2801 0001c2c0                   LWL     1,AFUNC|2,a_kig
    2802 0001c310                   LWL     1,AFUNC|2,a_kig
    2803 0001c360                   LWL     1,AFUNC|2,a_kig
    2804 0001c3b0                   LWL     1,AFUNC|2,a_kig
    2805 0001c400                   LWL     1,AFUNC|2,a_kig
    2806 0001c450                   LWL     1,AFUNC|2,a_kig
    2807 0001c4a0                   LWL     1,AFUNC|2,a_kig
    2808 0001c4f0                   LWL     1,AFUNC|2,a_kig
    2809 0001c540                   LWL     1,AFUNC|2,a_kig
    2810 0001c590                   LWL     1,AFUNC|2,a_kig
    2811 0001c5e0                   LWL     1,AFUNC|2,a_kig
    2812 0001c630                   LWL     1,AFUNC|2,a_kig
    2813 0001c680                   LWL     1,AFUNC|2,a_kig
    2814 0001c6d0                   LWL     1,AFUNC|2,a_kig
    2815 0001c720                   LWL     1,AFUNC|2,a_kig
    2816 0001c770                   LWL     1,AFUNC|2,a_kig
    2817 0001c7c0                   LWL     1,AFUNC|2,a_kig
    2818 0001c810                   LWL     1,AFUNC|2,a_kig
    2819 0001c860                   LWL     1,AFUNC|2,a_kig
    2820 0001c8b0                   LWL     1,AFUNC|2,a_kig
    2821 0001c900                   LWL     1,AFUNC|2,a_kig
    2822 0001c950                   LWL     1,AFUNC|2,a_kig
    2823 0001c9a0                   LWL     1,AFUNC|2,a_kig
    2824 0001c9f0                   LWL     1,AFUNC|2,a_kig
    2825 0001ca40                   LWL     1,AFUNC|2,a_kig
TMS340 COFF Macro Assembler Version 6.10     Wed Apr 21 11:31:53 2021
 Copyright (c) 1985-1991  Texas Instruments Incorporated 

                                                                     PAGE   62

    2826 0001ca90                   LWL     1,AFUNC|2,a_kig
    2827 0001cae0                   LWL     1,AFUNC|2,a_kig
    2828 0001cb30                   LWL     1,AFUNC|2,a_kig
    2829 0001cb80                   LWL     1,AFUNC|2,a_kig
    2830 0001cbd0                   LWL     1,AFUNC|2,a_kig
    2831 0001cc20                   LWL     1,AFUNC|2,a_kig
    2832 0001cc70                   LWL     1,AFUNC|2,a_kig
    2833 0001ccc0                   LW      1,120
    2834 0001ccf0                   LW      1,120
    2835 0001cd20 00000000          .long   0
    2836                    
    2837 0001cd40           nb_hcs_script
    2838 0001cd40                   LWL     ghit503,AFUNC|1,ppckc+3
    2839 0001cd90     02c4          .word    02c4h,015bh,-02fh
    2840 0001cdc0                   LWL     ghit504,AFUNC|1,ppckc+3
    2841 0001ce10     02c4          .word    02c4h,015bh,-032h
    2842 0001ce40                   LWL     ghit505,AFUNC|5,ppckc+3
    2843 0001ce90     02c5          .word    02c5h,014ch,-03ah
    2844 0001cec0                   LWL     ghit504,AFUNC|4,ppckc+3
    2845 0001cf10     02c4          .word    02c4h,015bh,-032h
    2846 0001cf40                   LWL     ghit503,AFUNC|5,ppckc+3
    2847 0001cf90     02c4          .word    02c4h,015bh,-02fh
    2848 0001cfc0                   LWL     ghit502,AFUNC|5,ppckcv+3
    2849 0001d010     02c2          .word    02c2h,015bh,-02dh
    2850 0001d040                   LWL     ghit501,AFUNC|1,a_kig
    2851 0001d090                   LWL     1,AFUNC|1,a_kig
    2852 0001d0e0                   LWL     1,AFUNC|1,a_kig
    2853 0001d130                   LWL     1,AFUNC|1,a_kig
    2854 0001d180                   LWL     1,AFUNC|1,a_kig
    2855 0001d1d0                   LWL     goal1a,AFUNC|1,a_kig
    2856 0001d220                   LWL     1,AFUNC|1,a_kig
    2857 0001d270                   LWL     ghit101,AFUNC|1,a_kig
    2858 0001d2c0                   LWL     1,AFUNC|1,a_kig
    2859 0001d310                   LWL     1,AFUNC|1,a_kig
    2860 0001d360                   LWL     1,AFUNC|1,a_kig
    2861 0001d3b0                   LWL     1,AFUNC|1,a_kig
    2862 0001d400                   LW      goal1a,1
    2863 0001d430                   LWL     1,AFUNC|2,a_kig
    2864 0001d480                   LWL     1,AFUNC|2,a_kig
    2865 0001d4d0                   LW      ghit101,1
    2866 0001d500                   LWL     1,AFUNC|1,a_kig
    2867 0001d550                   LWL     1,AFUNC|2,a_kig
    2868 0001d5a0                   LW      goal1a,1
    2869 0001d5d0                   LWL     1,AFUNC|2,a_kig
    2870 0001d620                   LWL     1,AFUNC|2,a_kig
    2871 0001d670                   LWL     1,AFUNC|2,a_kig
    2872 0001d6c0                   LWL     1,AFUNC|2,a_kig
    2873 0001d710                   LWL     1,AFUNC|2,a_kig
    2874 0001d760                   LWL     1,AFUNC|2,a_kig
    2875 0001d7b0                   LWL     1,AFUNC|2,a_kig
    2876 0001d800                   LWL     1,AFUNC|2,a_kig
    2877 0001d850                   LWL     1,AFUNC|2,a_kig
    2878 0001d8a0                   LWL     1,AFUNC|2,a_kig
    2879 0001d8f0                   LWL     1,AFUNC|2,a_kig
    2880 0001d940                   LWL     1,AFUNC|2,a_kig
TMS340 COFF Macro Assembler Version 6.10     Wed Apr 21 11:31:53 2021
 Copyright (c) 1985-1991  Texas Instruments Incorporated 

                                                                     PAGE   63

    2881 0001d990                   LWL     1,AFUNC|2,a_kig
    2882 0001d9e0                   LWL     1,AFUNC|2,a_kig
    2883 0001da30                   LWL     1,AFUNC|2,a_kig
    2884 0001da80                   LWL     1,AFUNC|2,a_kig
    2885 0001dad0                   LWL     1,AFUNC|2,a_kig
    2886 0001db20                   LWL     1,AFUNC|2,a_kig
    2887 0001db70                   LWL     1,AFUNC|2,a_kig
    2888 0001dbc0                   LWL     1,AFUNC|2,a_kig
    2889 0001dc10                   LWL     1,AFUNC|2,a_kig
    2890 0001dc60                   LWL     1,AFUNC|2,a_kig
    2891 0001dcb0                   LWL     1,AFUNC|2,a_kig
    2892 0001dd00                   LWL     1,AFUNC|2,a_kig
    2893 0001dd50                   LWL     1,AFUNC|2,a_kig
    2894 0001dda0                   LWL     1,AFUNC|2,a_kig
    2895 0001ddf0                   LWL     1,AFUNC|2,a_kig
    2896 0001de40                   LWL     1,AFUNC|2,a_kig
    2897 0001de90                   LWL     1,AFUNC|2,a_kig
    2898 0001dee0                   LWL     1,AFUNC|2,a_kig
    2899 0001df30                   LWL     1,AFUNC|2,a_kig
    2900 0001df80                   LWL     1,AFUNC|2,a_kig
    2901 0001dfd0                   LWL     1,AFUNC|2,a_kig
    2902 0001e020                   LWL     1,AFUNC|2,a_kig
    2903 0001e070                   LWL     1,AFUNC|2,a_kig
    2904 0001e0c0                   LWL     1,AFUNC|2,a_kig
    2905 0001e110                   LWL     1,AFUNC|2,a_kig
    2906 0001e160                   LWL     1,AFUNC|2,a_kig
    2907 0001e1b0                   LWL     1,AFUNC|2,a_kig
    2908 0001e200                   LWL     1,AFUNC|2,a_kig
    2909 0001e250                   LWL     1,AFUNC|2,a_kig
    2910 0001e2a0                   LWL     1,AFUNC|2,a_kig
    2911 0001e2f0                   LWL     1,AFUNC|2,a_kig
    2912 0001e340                   LWL     1,AFUNC|2,a_kig
    2913 0001e390                   LWL     1,AFUNC|2,a_kig
    2914 0001e3e0                   LWL     1,AFUNC|2,a_kig
    2915 0001e430                   LWL     1,AFUNC|2,a_kig
    2916 0001e480                   LWL     1,AFUNC|2,a_kig
    2917 0001e4d0                   LWL     1,AFUNC|2,a_kig
    2918 0001e520                   LWL     1,AFUNC|2,a_kig
    2919 0001e570                   LWL     1,AFUNC|2,a_kig
    2920 0001e5c0                   LW      1,120
    2921 0001e5f0                   LW      1,120
    2922 0001e620 00000000          .long   0
    2923                    
    2924 0001e640           nb_hcm_script
    2925 0001e640                   LWL     ghit505,AFUNC|5,ppckc+3
    2926 0001e690     02c5          .word    02c5h,014ch,-03ah
    2927 0001e6c0                   LWL     ghit504,AFUNC|4,ppckc+3
    2928 0001e710     02c4          .word    02c4h,015bh,-032h
    2929 0001e740                   LWL     ghit503,AFUNC|3,ppckc+3
    2930 0001e790     02c4          .word    02c4h,015bh,-02fh
    2931 0001e7c0                   LWL     ghit502,AFUNC|3,ppckcv+3
    2932 0001e810     02c2          .word    02c2h,015bh,-02dh
    2933 0001e840                   LWL     ghit501,AFUNC|1,a_kig
    2934 0001e890                   LWL     1,AFUNC|1,a_kig
    2935 0001e8e0                   LWL     1,AFUNC|1,a_kig
TMS340 COFF Macro Assembler Version 6.10     Wed Apr 21 11:31:53 2021
 Copyright (c) 1985-1991  Texas Instruments Incorporated 

                                                                     PAGE   64

    2936 0001e930                   LWL     goal1a,AFUNC|1,a_kig
    2937 0001e980                   LWL     1,AFUNC|1,a_kig
    2938 0001e9d0                   LWL     ghit101,AFUNC|1,a_kig
    2939 0001ea20                   LWL     1,AFUNC|1,a_kig
    2940 0001ea70                   LWL     1,AFUNC|1,a_kig
    2941 0001eac0                   LWL     1,AFUNC|1,a_kig
    2942 0001eb10                   LWL     1,AFUNC|1,a_kig
    2943 0001eb60                   LW      goal1a,1
    2944 0001eb90                   LWL     1,AFUNC|2,a_kig
    2945 0001ebe0                   LWL     1,AFUNC|2,a_kig
    2946 0001ec30                   LW      ghit101,1
    2947 0001ec60                   LWL     1,AFUNC|1,a_kig
    2948 0001ecb0                   LWL     1,AFUNC|2,a_kig
    2949 0001ed00                   LW      goal1a,1
    2950 0001ed30                   LWL     1,AFUNC|2,a_kig
    2951 0001ed80                   LWL     1,AFUNC|2,a_kig
    2952 0001edd0                   LWL     1,AFUNC|2,a_kig
    2953 0001ee20                   LWL     1,AFUNC|2,a_kig
    2954 0001ee70                   LWL     1,AFUNC|2,a_kig
    2955 0001eec0                   LWL     1,AFUNC|2,a_kig
    2956 0001ef10                   LWL     1,AFUNC|2,a_kig
    2957 0001ef60                   LWL     1,AFUNC|2,a_kig
    2958 0001efb0                   LWL     1,AFUNC|2,a_kig
    2959 0001f000                   LWL     1,AFUNC|2,a_kig
    2960 0001f050                   LWL     1,AFUNC|2,a_kig
    2961 0001f0a0                   LWL     1,AFUNC|2,a_kig
    2962 0001f0f0                   LWL     1,AFUNC|2,a_kig
    2963 0001f140                   LWL     1,AFUNC|2,a_kig
    2964 0001f190                   LWL     1,AFUNC|2,a_kig
    2965 0001f1e0                   LWL     1,AFUNC|2,a_kig
    2966 0001f230                   LWL     1,AFUNC|2,a_kig
    2967 0001f280                   LWL     1,AFUNC|2,a_kig
    2968 0001f2d0                   LWL     1,AFUNC|2,a_kig
    2969 0001f320                   LWL     1,AFUNC|2,a_kig
    2970 0001f370                   LWL     1,AFUNC|2,a_kig
    2971 0001f3c0                   LWL     1,AFUNC|2,a_kig
    2972 0001f410                   LWL     1,AFUNC|2,a_kig
    2973 0001f460                   LWL     1,AFUNC|2,a_kig
    2974 0001f4b0                   LWL     1,AFUNC|2,a_kig
    2975 0001f500                   LWL     1,AFUNC|2,a_kig
    2976 0001f550                   LWL     1,AFUNC|2,a_kig
    2977 0001f5a0                   LWL     1,AFUNC|2,a_kig
    2978 0001f5f0                   LWL     1,AFUNC|2,a_kig
    2979 0001f640                   LWL     1,AFUNC|2,a_kig
    2980 0001f690                   LWL     1,AFUNC|2,a_kig
    2981 0001f6e0                   LWL     1,AFUNC|2,a_kig
    2982 0001f730                   LWL     1,AFUNC|2,a_kig
    2983 0001f780                   LWL     1,AFUNC|2,a_kig
    2984 0001f7d0                   LWL     1,AFUNC|2,a_kig
    2985 0001f820                   LWL     1,AFUNC|2,a_kig
    2986 0001f870                   LWL     1,AFUNC|2,a_kig
    2987 0001f8c0                   LWL     1,AFUNC|2,a_kig
    2988 0001f910                   LWL     1,AFUNC|2,a_kig
    2989 0001f960                   LWL     1,AFUNC|2,a_kig
    2990 0001f9b0                   LWL     1,AFUNC|2,a_kig
TMS340 COFF Macro Assembler Version 6.10     Wed Apr 21 11:31:53 2021
 Copyright (c) 1985-1991  Texas Instruments Incorporated 

                                                                     PAGE   65

    2991 0001fa00                   LWL     1,AFUNC|2,a_kig
    2992 0001fa50                   LWL     1,AFUNC|2,a_kig
    2993 0001faa0                   LWL     1,AFUNC|2,a_kig
    2994 0001faf0                   LWL     1,AFUNC|2,a_kig
    2995 0001fb40                   LWL     1,AFUNC|2,a_kig
    2996 0001fb90                   LWL     1,AFUNC|2,a_kig
    2997 0001fbe0                   LWL     1,AFUNC|2,a_kig
    2998 0001fc30                   LWL     1,AFUNC|2,a_kig
    2999 0001fc80                   LWL     1,AFUNC|2,a_kig
    3000 0001fcd0                   LWL     1,AFUNC|2,a_kig
    3001 0001fd20                   LWL     1,AFUNC|2,a_kig
    3002 0001fd70                   LW      1,120
    3003 0001fda0                   LW      1,120
    3004 0001fdd0 00000000          .long   0
    3005                    
    3006 0001fdf0           nb_hcf_script
    3007 0001fdf0                   LWL     ghit505,AFUNC|1,ppckc+3
    3008 0001fe40     02c5          .word    02c5h,014ch,-03ah
    3009 0001fe70                   LWL     ghit504,AFUNC|3,ppckc+3
    3010 0001fec0     02c4          .word    02c4h,015bh,-032h
    3011 0001fef0                   LWL     ghit503,AFUNC|3,ppckc+3
    3012 0001ff40     02c4          .word    02c4h,015bh,-02fh
    3013 0001ff70                   LWL     ghit502,AFUNC|3,ppckcv+3
    3014 0001ffc0     02c2          .word    02c2h,015bh,-02dh
    3015 0001fff0                   LWL     ghit501,AFUNC|1,a_kig
    3016 00020040                   LWL     1,AFUNC|1,a_kig
    3017 00020090                   LWL     1,AFUNC|1,a_kig
    3018 000200e0                   LWL     goal1a,AFUNC|1,a_kig
    3019 00020130                   LWL     1,AFUNC|1,a_kig
    3020 00020180                   LWL     ghit101,AFUNC|1,a_kig
    3021 000201d0                   LWL     1,AFUNC|1,a_kig
    3022 00020220                   LWL     1,AFUNC|1,a_kig
    3023 00020270                   LWL     1,AFUNC|1,a_kig
    3024 000202c0                   LWL     1,AFUNC|1,a_kig
    3025 00020310                   LW      goal1a,1
    3026 00020340                   LWL     1,AFUNC|2,a_kig
    3027 00020390                   LWL     1,AFUNC|2,a_kig
    3028 000203e0                   LW      ghit101,1
    3029 00020410                   LWL     1,AFUNC|1,a_kig
    3030 00020460                   LWL     1,AFUNC|2,a_kig
    3031 000204b0                   LW      goal1a,1
    3032 000204e0                   LWL     1,AFUNC|2,a_kig
    3033 00020530                   LWL     1,AFUNC|2,a_kig
    3034 00020580                   LWL     1,AFUNC|2,a_kig
    3035 000205d0                   LWL     1,AFUNC|2,a_kig
    3036 00020620                   LWL     1,AFUNC|2,a_kig
    3037 00020670                   LWL     1,AFUNC|2,a_kig
    3038 000206c0                   LWL     1,AFUNC|2,a_kig
    3039 00020710                   LWL     1,AFUNC|2,a_kig
    3040 00020760                   LWL     1,AFUNC|2,a_kig
    3041 000207b0                   LWL     1,AFUNC|2,a_kig
    3042 00020800                   LWL     1,AFUNC|2,a_kig
    3043 00020850                   LWL     1,AFUNC|2,a_kig
    3044 000208a0                   LWL     1,AFUNC|2,a_kig
    3045 000208f0                   LWL     1,AFUNC|2,a_kig
TMS340 COFF Macro Assembler Version 6.10     Wed Apr 21 11:31:53 2021
 Copyright (c) 1985-1991  Texas Instruments Incorporated 

                                                                     PAGE   66

    3046 00020940                   LWL     1,AFUNC|2,a_kig
    3047 00020990                   LWL     1,AFUNC|2,a_kig
    3048 000209e0                   LWL     1,AFUNC|2,a_kig
    3049 00020a30                   LWL     1,AFUNC|2,a_kig
    3050 00020a80                   LWL     1,AFUNC|2,a_kig
    3051 00020ad0                   LWL     1,AFUNC|2,a_kig
    3052 00020b20                   LWL     1,AFUNC|2,a_kig
    3053 00020b70                   LWL     1,AFUNC|2,a_kig
    3054 00020bc0                   LWL     1,AFUNC|2,a_kig
    3055 00020c10                   LWL     1,AFUNC|2,a_kig
    3056 00020c60                   LWL     1,AFUNC|2,a_kig
    3057 00020cb0                   LWL     1,AFUNC|2,a_kig
    3058 00020d00                   LWL     1,AFUNC|2,a_kig
    3059 00020d50                   LWL     1,AFUNC|2,a_kig
    3060 00020da0                   LWL     1,AFUNC|2,a_kig
    3061 00020df0                   LWL     1,AFUNC|2,a_kig
    3062 00020e40                   LWL     1,AFUNC|2,a_kig
    3063 00020e90                   LWL     1,AFUNC|2,a_kig
    3064 00020ee0                   LWL     1,AFUNC|2,a_kig
    3065 00020f30                   LWL     1,AFUNC|2,a_kig
    3066 00020f80                   LWL     1,AFUNC|2,a_kig
    3067 00020fd0                   LWL     1,AFUNC|2,a_kig
    3068 00021020                   LWL     1,AFUNC|2,a_kig
    3069 00021070                   LWL     1,AFUNC|2,a_kig
    3070 000210c0                   LWL     1,AFUNC|2,a_kig
    3071 00021110                   LWL     1,AFUNC|2,a_kig
    3072 00021160                   LWL     1,AFUNC|2,a_kig
    3073 000211b0                   LWL     1,AFUNC|2,a_kig
    3074 00021200                   LWL     1,AFUNC|2,a_kig
    3075 00021250                   LWL     1,AFUNC|2,a_kig
    3076 000212a0                   LWL     1,AFUNC|2,a_kig
    3077 000212f0                   LWL     1,AFUNC|2,a_kig
    3078 00021340                   LWL     1,AFUNC|2,a_kig
    3079 00021390                   LWL     1,AFUNC|2,a_kig
    3080 000213e0                   LWL     1,AFUNC|2,a_kig
    3081 00021430                   LWL     1,AFUNC|2,a_kig
    3082 00021480                   LWL     1,AFUNC|2,a_kig
    3083 000214d0                   LWL     1,AFUNC|2,a_kig
    3084 00021520                   LWL     1,AFUNC|2,a_kig
    3085 00021570                   LWL     1,AFUNC|2,a_kig
    3086 000215c0                   LW      1,120
    3087 000215f0                   LW      1,120
    3088 00021620 00000000          .long   0
    3089                    
    3090 00021640     0d3f  ppckcv  callr   ppckc
         00021650     001a  
    3091 00021660     09e0          movi    [0,08000h],a0
         00021670 00008000  
    3092 00021690     b52e          move    *a9(OXPOS),a14,W
         000216a0     0150  
    3093 000216b0     ce01          jrn     pcv1
    3094 000216c0     03a0          neg     a0
    3095 000216d0     5621  pcv1    clr     a1
    3096 000216e0     0d5f          calla   RANGERND
         000216f0 00000000! 
TMS340 COFF Macro Assembler Version 6.10     Wed Apr 21 11:31:53 2021
 Copyright (c) 1985-1991  Texas Instruments Incorporated 

                                                                     PAGE   67

    3097 00021710     4d28          move    a9,a8
    3098 00021720     4c02          move    a0,a2
    3099 00021730     09e0          movi    [1,0],a0
         00021740 00010000  
    3100 00021760     4c01          move    a0,a1
    3101 00021770     03a1          neg     a1
    3102 00021780     0d5f          calla   RANGERND
         00021790 00000000! 
    3103 000217b0     4c01          move    a0,a1
    3104 000217c0     4c40          move    a2,a0
    3105 000217d0     c080          jauc    set_obj_to_rect
         000217e0 00000000! 
    3106                    
    3107 00021800           ppckc
    3108 00021800     0d3f          callr   a_kig
         00021810     e949  
    3109                    
    3110 00021820     07a9          move    @PUCK_OBJECT,a9,L
         00021830 00000000! 
    3111 00021850     07aa          move    @PUCK_SHADOW,a10,L
         00021860 00000000! 
    3112 00021880     b52e          move    *a9(OCTRL),a14,W
         00021890     01f0  
    3113 000218a0     0bae          ori     M_WRNONZ,a14
         000218b0 00000002  
    3114 000218d0     b1c9          move    a14,*a9(OCTRL),W
         000218e0     01f0  
    3115 000218f0     b54e          move    *a10(OCTRL),a14,W
         00021900     01f0  
    3116 00021910     0bae          ori     M_WRNONZ,a14
         00021920 00000002  
    3117 00021940     b1ca          move    a14,*a10(OCTRL),W
         00021950     01f0  
    3118 00021960     b704          move    *a8(ANIMARG),a4,L
         00021970     03e0  
    3119 00021980     9482          move    *a4+,a2,W
    3120 00021990     b52e          move    *a9(OXPOS),a14,W
         000219a0     0150  
    3121 000219b0     cf01          jrnn    ppcc1
    3122 000219c0     03a2          neg     a2
    3123 000219d0     2602  ppcc1   sll     16,a2
    3124 000219e0     b721          move    *a9(OXVAL),a1,L
         000219f0     0140  
    3125 00021a00     4c25          move    a1,a5
    3126 00021a10     09c3          movi    50,a3
         00021a20     0032  
    3127 00021a30     0d5f          calla   move_to_speed_x
         00021a40 00000000! 
    3128 00021a60     b229          move    a1,*a9(OXVAL),L
         00021a70     0140  
    3129 00021a80     b22a          move    a1,*a10(OXVAL),L
         00021a90     0140  
    3130                    
    3131 00021aa0     b721          move    *a9(OZVAL),a1,L
         00021ab0     0180  
TMS340 COFF Macro Assembler Version 6.10     Wed Apr 21 11:31:53 2021
 Copyright (c) 1985-1991  Texas Instruments Incorporated 

                                                                     PAGE   68

    3132 00021ac0     4c26          move    a1,a6
    3133 00021ad0     9482          move    *a4+,a2,W
    3134 00021ae0     2602          sll     16,a2
    3135 00021af0     09c3          movi    24,a3
         00021b00     0018  
    3136 00021b10     0d5f          calla   move_to_speed_x
         00021b20 00000000! 
    3137 00021b40     b229          move    a1,*a9(OZVAL),L
         00021b50     0180  
    3138 00021b60     b22a          move    a1,*a10(OZVAL),L
         00021b70     0180  
    3139                    
    3140 00021b80     b721          move    *a9(OYVAL),a1,L
         00021b90     0160  
    3141 00021ba0     4c27          move    a1,a7
    3142 00021bb0     9482          move    *a4+,a2,W
    3143 00021bc0     2602          sll     16,a2
    3144 00021bd0     09c3          movi    24,a3
         00021be0     0018  
    3145 00021bf0     0d5f          calla   move_to_speed_x
         00021c00 00000000! 
    3146 00021c20     b229          move    a1,*a9(OYVAL),L
         00021c30     0160  
    3147 00021c40     b22a          move    a1,*a10(OYVAL),L
         00021c50     0160  
    3148 00021c60     b720          move    *a9(OYVEL),a0,L
         00021c70     0120  
    3149 00021c80     cf03          jrnn    ppcc8
    3150 00021c90     5600          clr     a0
    3151 00021ca0     b209          move    a0,*a9(OYVEL),L
         00021cb0     0120  
    3152 00021cc0     0960  ppcc8   rets
    3153                    
    3154                    **************************************************************************
    3155                    *                                                                        *
    3156                    * SHOW_GCARDS_INTRO                                                      *
    3157                    *                                                                        *
    3158                    **************************************************************************
    3159                    
    3160 00021cd0           SHOW_GCARDS_INTRO
    3161 00021cd0     09e9          MOVI    PLAYER_4_BLOCK,A9
         00021ce0 00000000! 
    3162 00021d00     09ea          MOVI    [150,-87],A10
         00021d10 0096ffa9  
    3163 00021d30                   CREATE  PID_GCARD,SHOW_GCARD_PROC
    3164                    
    3165 00021db0     09e9          MOVI    PLAYER_8_BLOCK,A9
         00021dc0 00000000! 
    3166 00021de0     09ea          MOVI    [150,399+1],A10
         00021df0 00960190  
    3167 00021e10                   CREATE  PID_GCARD,SHOW_GCARD_PROC
    3168                    
    3169 00021e90     09e8          MOVI    CYCLEGLP3,A8
         00021ea0 00000000! 
    3170 00021ec0     1829          MOVK    1,A9
TMS340 COFF Macro Assembler Version 6.10     Wed Apr 21 11:31:53 2021
 Copyright (c) 1985-1991  Texas Instruments Incorporated 

                                                                     PAGE   69

    3171 00021ed0     19ea          MOVK    15,A10
    3172 00021ee0     184b          MOVK    2,A11
    3173 00021ef0                   CREATE  PID_BOXCOLOR,CYCLE16
    3174                    
    3175 00021f70           SGI_WAIT
    3176 00021f70                   SLEEP   1
    3177 00021fb0     09c0          MOVI    PID_GCARD,A0
         00021fc0     090e  
    3178 00021fd0     0d5f          CALLA   EXISTP_ALL
         00021fe0 00000000! 
    3179 00022000     cbf6          JRNZ    SGI_WAIT                        ;BR=STILL OUT THERE
    3180                    
    3181 00022010     09c0          movi    PID_BOXCOLOR,a0
         00022020     2cc1  
    3182 00022030     0d5f          calla   KILLPROC_ALL
         00022040 00000000! 
    3183                    
    3184 00022060                   RETP
    3185                    
    3186                    **************************************************************************
    3187                    *                                                                        *
    3188                    * SHOW_GCARDS_FREEZE                                                     *
    3189                    *                                                                        *
    3190                    * PASS:                                                                  *
    3191                    * A9 = PLAYER BLOCK ADDRESS                                              *
    3192                    *                                                                        *
    3193                    **************************************************************************
    3194                    
    3195 00022090           SHOW_GCARDS_FREEZE_PROC
    3196 00022090     4d26          MOVE    A9,A6                           ;SAVE PLAYER BLOCK
    3197 000220a0     09e8          MOVI    CYCLEGLP3,A8
         000220b0 00000000! 
    3198 000220d0     1829          MOVK    1,A9
    3199 000220e0     19ea          MOVK    15,A10
    3200 000220f0     184b          MOVK    2,A11
    3201 00022100                   C_A_K   PID_BOXCOLOR,CYCLE16
    3202 00022180     4cc9          MOVE    A6,A9                           ;RESTORE PLAYER BLOCK
    3203                    
    3204 00022190     05ab          MOVE    @small_timer_on,A11,W           ;SAVE SMALL TIMER STATE
         000221a0 00000000! 
    3205 000221c0     5642          CLR     A2                              ;TURN OFF ON LEFT SIDE
    3206                    
    3207 000221d0     09ea          MOVI    [150,-87],A10
         000221e0 0096ffa9  
    3208 00022200     0b69          CMPI    PLAYER_4_BLOCK,A9
         00022210 ffffffff! 
    3209 00022230     ca04          JREQ    SGFP_GO                         ;BR=LEFT GOALIE CARD
    3210 00022240     09ea          MOVI    [150,399+1],A10
         00022250 00960190  
    3211 00022270     4d62          MOVE    A11,A2                          ;USE CURRENT STATE
    3212 00022280           SGFP_GO
    3213 00022280                   CREATE  PID_GCARD,SHOW_GCARD_PROC
    3214                    
    3215 00022300     0582          MOVE    A2,@small_timer_on,W            ;SET SMALL TIMER
         00022310 00000000! 
TMS340 COFF Macro Assembler Version 6.10     Wed Apr 21 11:31:53 2021
 Copyright (c) 1985-1991  Texas Instruments Incorporated 

                                                                     PAGE   70

    3216                    
    3217 00022330           SGFP_WAIT
    3218 00022330                   SLEEP   1
    3219 00022370     09c0          MOVI    PID_GCARD,A0
         00022380     090e  
    3220 00022390     0d5f          CALLA   EXISTP_ALL
         000223a0 00000000! 
    3221 000223c0     cbf6          JRNZ    SGFP_WAIT                       ;BR=STILL OUT THERE
    3222                    
    3223 000223d0     058b          MOVE    A11,@small_timer_on,W           ;RESTORE SMALL TIMER STATE
         000223e0 00000000! 
    3224                    
    3225 00022400     09c0          movi    PID_BOXCOLOR,a0
         00022410     2cc1  
    3226 00022420     0d5f          calla   KILLPROC_ALL
         00022430 00000000! 
    3227                    
    3228 00022450                   DIE
    3229                    
    3230                    **************************************************************************
    3231                    *                                                                        *
    3232                    * SHOW_GCARDS_ENDPER                                                     *
    3233                    *                                                                        *
    3234                    **************************************************************************
    3235                    
    3236 00022480           SHOW_GCARDS_ENDPER
    3237 00022480     09e9          MOVI    PLAYER_4_BLOCK,A9
         00022490 00000000! 
    3238 000224b0     09ea          MOVI    [50,-87],A10
         000224c0 0032ffa9  
    3239 000224e0                   CREATE  PID_GCARD,SHOW_GCARD_PROC
    3240                    
    3241 00022560     09e9          MOVI    PLAYER_8_BLOCK,A9
         00022570 00000000! 
    3242 00022590     09ea          MOVI    [50,399+1],A10
         000225a0 00320190  
    3243 000225c0                   CREATE  PID_GCARD,SHOW_GCARD_PROC
    3244                    
    3245 00022640     09e8          MOVI    CYCLEGLP3,A8
         00022650 00000000! 
    3246 00022670     1829          MOVK    1,A9
    3247 00022680     19ea          MOVK    15,A10
    3248 00022690     184b          MOVK    2,A11
    3249 000226a0                   C_A_K   PID_BOXCOLOR,CYCLE16
    3250                    
    3251 00022720                   RETP
    3252                    
    3253                    **************************************************************************
    3254                    *                                                                        *
    3255                    * SHOW_GCARDS_GOALSUM                                                    *
    3256                    *                                                                        *
    3257                    **************************************************************************
    3258                    
    3259 00022750           SHOW_GCARDS_GOALSUM
    3260 00022750     09e9          MOVI    PLAYER_4_BLOCK,A9
TMS340 COFF Macro Assembler Version 6.10     Wed Apr 21 11:31:53 2021
 Copyright (c) 1985-1991  Texas Instruments Incorporated 

                                                                     PAGE   71

         00022760 00000000! 
    3261 00022780     09ea          MOVI    [50,-87],A10
         00022790 0032ffa9  
    3262 000227b0                   CREATE  PID_GCARD,SHOW_GCARD_PROC
    3263                    
    3264 00022830     09e9          MOVI    PLAYER_8_BLOCK,A9
         00022840 00000000! 
    3265 00022860     09ea          MOVI    [50,399+1],A10
         00022870 00320190  
    3266 00022890                   CREATE  PID_GCARD,SHOW_GCARD_PROC
    3267                    
    3268 00022910     09e8          MOVI    CYCLEGLP3,A8
         00022920 00000000! 
    3269 00022940     1829          MOVK    1,A9
    3270 00022950     19ea          MOVK    15,A10
    3271 00022960     184b          MOVK    2,A11
    3272 00022970                   C_A_K   PID_BOXCOLOR,CYCLE16
    3273                    
    3274 000229f0                   RETP
    3275                    
    3276                    
    3277                    **************************************************************************
    3278                    *                                                                        *
    3279                    * SHOW_GCARD_PROC                                                        *
    3280                    *                                                                        *
    3281                    **************************************************************************
    3282                    
    3283 00022a20           SHOW_GCARD_PROC
    3284 00022a20     09f0          MOVI    GCARD_INIT,B0
         00022a30 00023a00' 
    3285 00022a50     0d5f          CALLA   MULTIMAKE
         00022a60 00000000! 
    3286 00022a80     ca00          JRZ     SGP_ABORT                       ;BR=CAN'T DO IT
         00022a90     00eb  
    3287 00022aa0     4d0b          MOVE    A8,A11
    3288                    
    3289 00022ab0     09f0          MOVI    GCARD_DIGIT_INIT,B0
         00022ac0 00023fa0' 
    3290 00022ae0     0d5f          CALLA   EASYMAKE
         00022af0 00000000! 
    3291 00022b10     ca55          JRZ     SGP_INSERT                      ;BR=NO OBJECTS
    3292                    
    3293 00022b20     09c7          MOVI    -3,A7
         00022b30     fffd  
    3294 00022b40     ace8          MOVB    A7,*A8(OZOFF)
         00022b50     03c8  
    3295                    
    3296 00022b60     b525          MOVE    *A9(POF_SAVES),A5,W
         00022b70     0840  
    3297 00022b80     0b45          CMPI    100,A5
         00022b90     ff9b  
    3298 00022ba0     c402          JRLT    SGP_SAVES                       ;BR=UNDER MAX
    3299 00022bb0     09c5          MOVI    99,A5
         00022bc0     0063  
    3300 00022bd0           SGP_SAVES
TMS340 COFF Macro Assembler Version 6.10     Wed Apr 21 11:31:53 2021
 Copyright (c) 1985-1991  Texas Instruments Incorporated 

                                                                     PAGE   72

    3301 00022bd0     5684          CLR     A4
    3302 00022be0     194e          MOVK    10,A14
    3303 00022bf0     5bc4          DIVU    A14,A4
    3304                    
    3305 00022c00     4ca6          MOVE    A5,A6
    3306 00022c10     24a6          SLL     5,A6
    3307 00022c20     0b26          ADDI    score_box_digitl,A6
         00022c30 000046b0' 
    3308 00022c50     86c1          MOVE    *A6,A1,L
    3309 00022c60     4c86          MOVE    A4,A6
    3310 00022c70     09e4          MOVI    DMAWNZ,A4
         00022c80 00008002  
    3311 00022ca0     0d5f          CALLA   ANI
         00022cb0 00000000! 
    3312 00022cd0     4cc4          MOVE    A6,A4
    3313                    
    3314 00022ce0     09e6          MOVI    [82,70],A6
         00022cf0 00520046  
    3315 00022d10     4c84          MOVE    A4,A4
    3316 00022d20     ca2d          JRZ     SGP_LAST_DIGIT                  ;BR=SAVES IN A SINGLE DIGIT
    3317                    
    3318 00022d30     09e6          MOVI    [82,75],A6
         00022d40 0052004b  
    3319 00022d60     0b44          CMPI    1,A4
         00022d70     fffe  
    3320 00022d80     cb03          JRNE    SGP_ONES_DIGIT                  ;BR=ADD ONES DIGIT PART
    3321 00022d90     09e6          MOVI    [82,73],A6
         00022da0 00520049  
    3322 00022dc0           SGP_ONES_DIGIT
    3323 00022dc0     b2c8          MOVE    A6,*A8(OPARTSXY),L
         00022dd0     01a0  
    3324 00022de0     4c08          MOVE    A0,A8
    3325 00022df0     4d68          MOVE    A11,A8
    3326 00022e00     0d5f          CALLA   INSPART
         00022e10 00000000! 
    3327                    
    3328 00022e30     09f0          MOVI    GCARD_DIGIT_INIT,B0
         00022e40 00023fa0' 
    3329 00022e60     0d5f          CALLA   EASYMAKE
         00022e70 00000000! 
    3330 00022e90     ca1d          JRZ     SGP_INSERT                      ;BR=NO OBJECTS
    3331                    
    3332 00022ea0     ace8          MOVB    A7,*A8(OZOFF)
         00022eb0     03c8  
    3333                    
    3334 00022ec0     24a4          SLL     5,A4
    3335 00022ed0     0b24          ADDI    score_box_digitl,A4
         00022ee0 000046b0' 
    3336 00022f00     8681          MOVE    *A4,A1,L
    3337 00022f10     09e4          MOVI    DMAWNZ,A4
         00022f20 00008002  
    3338 00022f40     0d5f          CALLA   ANI
         00022f50 00000000! 
    3339                    
    3340 00022f70     09e6          MOVI    [82,65],A6
TMS340 COFF Macro Assembler Version 6.10     Wed Apr 21 11:31:53 2021
 Copyright (c) 1985-1991  Texas Instruments Incorporated 

                                                                     PAGE   73

         00022f80 00520041  
    3341 00022fa0     0b45          CMPI    1,A5
         00022fb0     fffe  
    3342 00022fc0     cb03          JRNE    SGP_LAST_DIGIT                  ;BR=ADD TENS DIGIT PART
    3343 00022fd0     09e6          MOVI    [82,67],A6
         00022fe0 00520043  
    3344                    
    3345 00023000           SGP_LAST_DIGIT
    3346 00023000     b2c8          MOVE    A6,*A8(OPARTSXY),L
         00023010     01a0  
    3347 00023020     4c08          MOVE    A0,A8
    3348 00023030     4d68          MOVE    A11,A8
    3349 00023040     0d5f          CALLA   INSPART
         00023050 00000000! 
    3350                    
    3351 00023070           SGP_INSERT
    3352 00023070     4d41          MOVE    A10,A1
    3353 00023080     09e2          MOVI    TEXTZVAL+100,A2
         00023090 84000064  
    3354 000230b0     0d5f          CALLA   SET_SCRNOBJ
         000230c0 00000000! 
    3355 000230e0     0d5f          CALLA   INSERT_OBJ
         000230f0 00000000! 
    3356                    
    3357 00023110     b525          MOVE    *A9(POF_CHARACTER),A5,W
         00023120     0070  
    3358 00023130     24a5          SLL     5,A5
    3359 00023140     0b25          ADDI    player_data,A5
         00023150 00000000! 
    3360 00023170     86a5          MOVE    *A5,A5,L
    3361                    
    3362 00023180                   PUSHP   A8
    3363                    
    3364 00023190     b708          MOVE    *A8(OPARTS),A8,L
         000231a0     00c0  
    3365 000231b0     b6a1          MOVE    *A5(TP_PLYRMUG_IMG),A1,L
         000231c0     0140  
    3366 000231d0     09e4          MOVI    DMAWNZ,A4
         000231e0 00008002  
    3367 00023200     0d5f          CALLA   ANI
         00023210 00000000! 
    3368 00023230     b620          MOVE    *A1(ICMAP),A0,L
         00023240     0070  
    3369 00023250     0d5f          CALLA   CHANGE_PAL
         00023260 00000000! 
    3370                    
    3371 00023280     b708          MOVE    *A8(OPARTS),A8,L
         00023290     00c0  
    3372 000232a0     b6a1          MOVE    *A5(TP_PLYRNAME_IMG),A1,L
         000232b0     0120  
    3373 000232c0     09e4          MOVI    DMAWNZ,A4
         000232d0 00008002  
    3374 000232f0     0d5f          CALLA   ANI
         00023300 00000000! 
    3375                    
TMS340 COFF Macro Assembler Version 6.10     Wed Apr 21 11:31:53 2021
 Copyright (c) 1985-1991  Texas Instruments Incorporated 

                                                                     PAGE   74

    3376 00023320                   PULLPQ  A8
    3377                    
    3378 00023330                   SLEEP   1
    3379                    
    3380 00023370     09ea          MOVI    0100000H,A10
         00023380 00100000  
    3381 000233a0     09eb          MOVI    -010000H,A11
         000233b0 ffff0000  
    3382                    
    3383 000233d0     05ae          MOVE    @GAME_STATE,A14,W
         000233e0 00000000! 
    3384 00023400     0b4e          CMPI    INEPILOG,A14
         00023410     ff9f  
    3385 00023420     cb03          JRNE    SGP_CHECK_RIGHT                 ;BR=AT GOAL SUMMARY
    3386 00023430     09eb          MOVI    -018000H,A11
         00023440 fffe8000  
    3387                    
    3388 00023460           SGP_CHECK_RIGHT
    3389 00023460     0b69          CMPI    PLAYER_8_BLOCK,A9
         00023470 ffffffff! 
    3390 00023490     cb02          JRNE    SGP_SET_INIT_XVEL               ;BR=LEFT CARD
    3391 000234a0     03aa          NEG     A10                             ;RIGHT CARD XVEL
    3392 000234b0     03ab          NEG     A11
    3393 000234c0           SGP_SET_INIT_XVEL
    3394 000234c0     4d40          MOVE    A10,A0
    3395 000234d0     0d3f          CALLR   SET_XVEL_MULTI
         000234e0     0049  
    3396                    
    3397 000234f0           SGP_ON_LUPE
    3398 000234f0                   SLEEP   1
    3399 00023530     b700          MOVE    *A8(OXVEL),A0,L
         00023540     0100  
    3400 00023550     ca0c          JRZ     SGP_ON_WAIT                     ;BR=STOPPED
    3401 00023560     4160          ADD     A11,A0
    3402 00023570     ca07          JRZ     SGP_ON_SET                      ;BR=SET ZERO
    3403 00023580     0181          GETST   A1
    3404 00023590     4d6b          MOVE    A11,A11
    3405 000235a0     018e          GETST   A14
    3406 000235b0     562e          XOR     A1,A14
    3407 000235c0     1c0e          BTST    31,A14
    3408 000235d0     cb01          JRNZ    SGP_ON_SET                      ;BR=NOT BACKIN' UP
    3409 000235e0     5600          CLR     A0
    3410 000235f0           SGP_ON_SET
    3411 000235f0     0d3f          CALLR   SET_XVEL_MULTI
         00023600     0037  
    3412 00023610     c0ed          JRUC    SGP_ON_LUPE
    3413                    
    3414 00023620           SGP_ON_WAIT
    3415 00023620     b701          MOVE    *A8(ODAG),A1,L
         00023630     0220  
    3416 00023640     b702          MOVE    *A8(OZVAL),A2,L
         00023650     0180  
    3417 00023660     0d5f          CALLA   SET_SCRNOBJ
         00023670 00000000! 
    3418                    
TMS340 COFF Macro Assembler Version 6.10     Wed Apr 21 11:31:53 2021
 Copyright (c) 1985-1991  Texas Instruments Incorporated 

                                                                     PAGE   75

    3419 00023690     05ae          MOVE    @GAME_STATE,A14,W
         000236a0 00000000! 
    3420 000236c0     0b4e          CMPI    INEPILOG,A14
         000236d0     ff9f  
    3421 000236e0     ca80          JAEQ    SUCIDE                          ;BR=AT GOAL SUMMARY
         000236f0 00000000! 
    3422                    
    3423 00023710     0b4e          CMPI    PUM_ENDPER,A14
         00023720     ff9a  
    3424 00023730     ca80          JAEQ    SUCIDE                          ;BR=LEAVE ON SCREEN
         00023740 00000000! 
    3425                    
    3426 00023760     05ae          MOVE    @PUCK_MODE,A14,W
         00023770 00000000! 
    3427 00023790     0b4e          CMPI    PUM_ENDPER,A14
         000237a0     ff9a  
    3428 000237b0     ca80          JAEQ    SUCIDE                          ;BR=LEAVE ON SCREEN
         000237c0 00000000! 
    3429                    
    3430                    ;       SLEEP   20
    3431                    ;       move    a8,a9
    3432                    ;       movi    70,a8
    3433                    ;       JSRP    button_wait
    3434                    ;       move    a9,a8
    3435 000237e0                   SLEEP   70
    3436                    
    3437 00023830     038a          ABS     A10
    3438 00023840           SGP_OFF_LUPE
    3439 00023840                   SLEEP   1
    3440 00023880     b700          MOVE    *A8(OXVEL),A0,L
         00023890     0100  
    3441 000238a0     4c0e          MOVE    A0,A14
    3442 000238b0     038e          ABS     A14
    3443 000238c0     494e          CMP     A10,A14
    3444 000238d0     c704          JRGT    SGP_DELETE                      ;BR=SHOULD BE OFF SCREEN
    3445 000238e0     4160          ADD     A11,A0
    3446 000238f0     0d3f          CALLR   SET_XVEL_MULTI
         00023900     0007  
    3447 00023910     c0f2          JRUC    SGP_OFF_LUPE
    3448                    
    3449 00023920           SGP_DELETE
    3450 00023920     0d5f          CALLA   DELETE_OBJ
         00023930 00000000! 
    3451 00023950           SGP_ABORT
    3452                    ;       CMPI    PLAYER_8_BLOCK,A9
    3453                    ;       JAEQ    SUCIDE                          ;BR=DON'T HAVE TO CLEAN UP
    3454                    ;
    3455                    ;       movi    PID_BOXCOLOR,a0
    3456                    ;       calla   KILLPROC_ALL
    3457                    
    3458 00023950                   DIE
    3459                    
    3460                    **************************************************************************
    3461                    *                                                                        *
    3462                    * SET_XVEL_MULTI                                                         *
TMS340 COFF Macro Assembler Version 6.10     Wed Apr 21 11:31:53 2021
 Copyright (c) 1985-1991  Texas Instruments Incorporated 

                                                                     PAGE   76

    3463                    *                                                                        *
    3464                    **************************************************************************
    3465                    
    3466 00023980           SET_XVEL_MULTI
    3467 00023980                   PUSH    A8
    3468 00023990           SXM_LUPE
    3469 00023990     b208          MOVE    A0,*A8(OXVEL),L
         000239a0     0100  
    3470 000239b0     b708          MOVE    *A8(OPARTS),A8,L
         000239c0     00c0  
    3471 000239d0     cbfb          JRNZ    SXM_LUPE                        ;BR=ANOTHER PART
    3472 000239e0                   PULLQ   A8
    3473 000239f0     0960          RETS
    3474                    
    3475 00023a00           GCARD_INIT
    3476 00023a00       09          .byte   9, 0, 0, 9      ;OBJCNT, PRCCNT, IMGPALCNT, PALCNT
    3477 00023a20 00000000!         .long   PLYRBXP         ;IMGPAL
    3478 00023a40 00000000!         .long   CHELIOS1P       ;IMGPAL
    3479 00023a60 00000000!         .long   LSTNME1P        ;IMGPAL
    3480 00023a80 00000000!         .long   PLAYERP         ;IMGPAL
    3481 00023aa0 00000000!         .long   PLYRBCK2P       ;IMGPAL
    3482 00023ac0 00000000!         .long   TRI             ;IMGPAL
    3483 00023ae0 00000000!         .long   POSITP          ;IMGPAL
    3484 00023b00 00000000!         .long   CYCLEGLP3       ;IMGPAL
    3485 00023b20 00000000!         .long   GHLM5AP         ;IMGPAL
    3486 00023b40     0505          .word   OID_GCARD, 0    ;OID, GLOBAL_OPTIONS
    3487                    *        .long IMG
    3488                    *        .word OCTRL, OFLAGS, OZOFF
    3489                    *        .word OPTIONS
    3490                    
    3491 00023b60                   LWWWW   PLYRBOX, DMAWNZ, M_SCRNOBJ|M_NOSCALE, 0, 0
    3492 00023bc0                   LWWWW   M_CHELIOS, DMAWNZ, M_SCRNOBJ|M_NOSCALE, 2, OM_OPARTS
    3493 00023c20 004d0032          .long   [77,50]
    3494 00023c40                   LWWWW   CHELIOS1, DMAWNZ, M_SCRNOBJ|M_NOSCALE, -1, OM_OPARTS
    3495 00023ca0 00080032          .long   [8,50]
    3496 00023cc0                   LWWWW   GOALTND, DMAWNZ, M_SCRNOBJ|M_NOSCALE, -1, 0
    3497 00023d20                   LWWWW   PLYRBCK, DMAWNZ, M_SCRNOBJ|M_NOSCALE, 3, OM_OPARTS
    3498 00023d80 000f0010          .LONG   [15,16]
    3499 00023da0                   LWWWW   PCKTRI01, DMAWNZ, M_SCRNOBJ|M_NOSCALE, 1, OM_OPARTS
    3500 00023e00 00110046          .LONG   [17,70]
    3501 00023e20                   LWWWW   SAVES, DMAWNZ, M_SCRNOBJ|M_NOSCALE, -1, 0
    3502 00023e80                   LWWWW   CYCLEGL3, DMAWNZ, M_SCRNOBJ|M_NOSCALE, -1, OM_OPARTS
    3503 00023ee0 004e003f          .LONG   [78,63]
    3504 00023f00                   LWWWW   GHLM5A01, DMAWNZ, M_SCRNOBJ|M_NOSCALE, -2, OM_OPARTS|OM_ANIM
    3505 00023f60 001a004d          .LONG   [26,77]
    3506 00023f80 00024000'         .LONG   GCARD_HELM_ANIM
    3507                    
    3508 00023fa0           GCARD_DIGIT_INIT
    3509 00023fa0 00003b20"         .long   G00
    3510 00023fc0     8002          .word   DMAWNZ,M_SCRNOBJ|M_NOSCALE
    3511 00023fe0     0100          .word   OM_OID
    3512 00023ff0     0505          .word   OID_GCARD
    3513                    
    3514 00024000           GCARD_HELM_ANIM
    3515 00024000                   LW      GHLM5A01,5
TMS340 COFF Macro Assembler Version 6.10     Wed Apr 21 11:31:53 2021
 Copyright (c) 1985-1991  Texas Instruments Incorporated 

                                                                     PAGE   77

    3516 00024030                   LW      GHLM5A02,5
    3517 00024060                   LW      GHLM5A03,5
    3518 00024090                   LW      GHLM5A04,5
    3519 000240c0                   LW      GHLM5A05,5
    3520 000240f0                   LW      GHLM5A06,5
    3521 00024120                   LW      GHLM5A07,5
    3522 00024150                   LW      GHLM5A08,5
    3523 00024180                   LW      GHLM5A09,5
    3524 000241b0                   LW      GHLM5A10,5
    3525 000241e0                   LW      GHLM5A11,5
    3526 00024210                   LW      GHLM5A12,5
    3527 00024240                   LW      GHLM5A13,5
    3528 00024270                   LW      GHLM5A14,5
    3529 000242a0                   LW      GHLM5A15,5
    3530 000242d0                   LW      GHLM5A16,5
    3531 00024300                   LW      GHLM5A17,5
    3532 00024330                   LW      GHLM5A18,5
    3533 00024360                   LW      GHLM5A19,5
    3534 00024390                   LW      GHLM5A20,5
    3535 000243c0 00000000          .long   0
    3536                            
    3537                    
    3538                    
    3539                            .end

 No Errors,  No Warnings
