TMS340 COFF Macro Assembler Version 6.10     Wed Apr 21 11:37:21 2021
 Copyright (c) 1985-1991  Texas Instruments Incorporated 

                                                                     PAGE    1

       1                            .MLIB   "HHMACS.LIB"
       2                            .FILE   "HHGSCR2.ASM"
       3                            .WIDTH  132
       4                            .OPTION B,D,L,T
       5                            .MNOLIST
       6                    
       7                    *
       8                    *GET THE SYSTEM STUFF
       9                    *
      10                            .INCLUDE        "HH.INC"
      11                            .INCLUDE        "IMGTBL.GLO"
      12                            .include        "hhscr_sh.e"
      13                            .include        "hhscr_fn.g"
      14                            .include        "hhcontrl.g"
      15                            .include        "hhspeech.g"
      16                            .include        "hhutil.g"
      17                            .include        "hhscr_sk.g"
      18                            .include        "hhpuck.g"
      19                            .include        "hhplayer.g"
      20                            .include        "hhgame.g"
      21                            .include        "hhtimer.g"
      22                    ;       .include        "hhmath.g"
      23                            .ref    SAFEDIV
      24                            .ref    SAFEMULT
      25                            .include        "hhscr_ms.g"
      26                            .include        "hhshow.g"
      27                            .include        "hhscrsh2.g"
      28                    
      29                    ; end of include files
      30                    
      31 00000000                   .TEXT
      32 00000000                   .EVEN
      33                    
      34 00000000           set_turbo_shoot_script
      35                    ;       movi    -090000h,a0
      36                    ;       move    a0,*a8(OYVEL),L
      37                    ;       movi    [0,08100h],a0
      38                    ;       move    a0,*a8(OYACCEL),L
      39                    
      40                    
      41 00000000     aec0          movb    *a6(POF_NUMBER),a0
         00000010     0000  
      42 00000020     b701          move    *a8(OXVEL),a1,L
         00000030     0100  
      43 00000040     b702          move    *a8(OZVEL),a2,L
         00000050     00e0  
      44 00000060     b703          move    *a8(OXVAL),a3,L
         00000070     0140  
      45 00000080     b704          move    *a8(ODT_DIR),a4,L
         00000090     04b0  
      46 000000a0     b505          move    *a8(OZPOS),a5,W
         000000b0     0190  
      47 000000c0     1420          dec     a0
      48 000000d0     2fc0          srl     2,a0
      49 000000e0     ca06          jrz     sll_t1
TMS340 COFF Macro Assembler Version 6.10     Wed Apr 21 11:37:21 2021
 Copyright (c) 1985-1991  Texas Instruments Incorporated 

                                                                     PAGE    2

      50 000000f0     03a1          neg     a1
      51 00000100     03a3          neg     a3
      52 00000110     0b24          addi    XD1800,a4
         00000120 00b40000  
      53 00000140     03a4          neg     a4
      54 00000150           sll_t1  THETA_H a4
      55 00000260     0d3f          callr   do_we_quick_release
         00000270     005c  
      56 00000280     c871          jrc     quick_release_turbo_shot
      57 00000290     4c8e          move    a4,a14          ;are we in a direct line with the goal
      58 000002a0     038e          abs     a14
      59 000002b0     0b6e          cmpi    XD0200,a14
         000002c0 ffebffff  
      60 000002e0     c90f          jrhs    slcd            ; no
      61 000002f0     0b45          cmpi    260,a5
         00000300     fefb  
      62 00000310     c40c          jrlt    slcd            ; no
      63 00000320     0b45          cmpi    419,a5
         00000330     fe5c  
      64 00000340     c509          jrge    slcd            ; no
      65 00000350     0b61          cmpi    [5,0],a1
         00000360 fffaffff  
      66 00000380     c424          jrlt    sl__s
      67 00000390     0b63          cmpi    [300,0],a3
         000003a0 fed3ffff  
      68 000003c0     c424          jrlt    sl__ss          ;special straight
      69 000003d0     c01f          jruc    sl__s
      70                    
      71                    ;       jrlt    sl__s           ; yes
      72 000003e0     0b64  slcd    cmpi    -XD0200,a4      ;are we going down (< -20)
         000003f0 0013ffff  
      73 00000410     c70c          jrgt    sl_nd           ; no
      74 00000420     0b64          cmpi    -XD1600,a4
         00000430 009fffff  
      75 00000450     c408          jrlt    sl_nd           ;no
      76 00000460     0b45          cmpi    339,a5          ;are we low
         00000470     feac  
      77 00000480     c71c          jrgt    sl__d           ; no
      78 00000490     0b63          cmpi    [500,0],a3      ;are we close
         000004a0 fe0bffff  
      79 000004c0     c71c          jrgt    sl__dlc         ; yes
      80 000004d0     c01f          jruc    sl__dl          ; no
      81 000004e0     4c21  sl_nd   move    a1,a1           ;are we away
      82 000004f0     cf05          jrnn    sl_na           ; no
      83 00000500     0b63          cmpi    [500,0],a3      ;are we close
         00000510 fe0bffff  
      84 00000530     c71d          jrgt    sl__ac          ; yes
      85 00000540     c020          jruc    sl__a           ;no
      86 00000550     0b63  sl_na   cmpi    [500,0],a3      ;are we close
         00000560 fe0bffff  
      87 00000580     c720          jrgt    sl__c           ; yes
      88 00000590     09e1  sl__o   movi    ss_other,a1             ;NON SPECIAL CASE HERE
         000005a0 00002060' 
      89 000005c0     c01f          jruc    ss_go
      90 000005d0     09e1  sl__s   movi    ss_straight_on,a1
TMS340 COFF Macro Assembler Version 6.10     Wed Apr 21 11:37:21 2021
 Copyright (c) 1985-1991  Texas Instruments Incorporated 

                                                                     PAGE    3

         000005e0 000009c0' 
      91 00000600     c01b          jruc    ss_go
      92 00000610     09e1  sl__ss  movi    ss_special_straight_on,a1
         00000620 00000ef0' 
      93 00000640     c017          jruc    ss_go
      94 00000650     09e1  sl__d   movi    ss_down,a1
         00000660 00001820' 
      95 00000680     c013          jruc    ss_go
      96 00000690     09e1  sl__dlc movi    ss_down_and_low_close,a1
         000006a0 00001500' 
      97 000006c0     c00f          jruc    ss_go
      98 000006d0     09e1  sl__dl  movi    ss_down_and_low,a1
         000006e0 000016b0' 
      99 00000700     c00b          jruc    ss_go
     100 00000710     09e1  sl__ac  movi    ss_away_and_close,a1
         00000720 000018f0' 
     101 00000740     c007          jruc    ss_go
     102 00000750     09e1  sl__a   movi    ss_away,a1
         00000760 00001c40' 
     103 00000780     c003          jruc    ss_go
     104 00000790     09e1  sl__c   movi    ss_close,a1
         000007a0 00001f10' 
     105 000007c0     9420  ss_go   move    *a1+,a0,W
     106 000007d0     0d5f          calla   RAND0
         000007e0 00000000! 
     107 00000800     24a0          sll     5,a0
     108 00000810     4001          add     a0,a1
     109 00000820     8620          move    *a1,a0,L
     110 00000830     0160          jump    a0
     111                    
     112 00000840           do_we_quick_release     ;a3 = adjusted x
     113 00000840     05ae          move    @minutes,a14,W
         00000850 00000000! 
     114 00000870     cb0a          jrnz    dwcr2
     115 00000880     05ae          move    @tenseconds,a14,W
         00000890 00000000! 
     116 000008b0     cb06          jrnz    dwcr2
     117 000008c0     05ae          move    @seconds,a14,W
         000008d0 00000000! 
     118 000008f0     0b4e          cmpi    3,a14
         00000900     fffc  
     119 00000910     c206          jrls    dwcry
     120 00000920     0b63  dwcr2   cmpi    [460,0],a3
         00000930 fe33ffff  
     121 00000950     c702          jrgt    dwcry
     122 00000960     0320          clrc
     123 00000970     0960          rets
     124 00000980     0de0  dwcry   setc
     125 00000990     0960          rets
     126                    
     127 000009a0           quick_release_turbo_shot
     128 000009a0     c000          jruc    set_turbo_shoot_early_script
         000009b0     04ef  
     129                    
     130                    **************************************************************************
TMS340 COFF Macro Assembler Version 6.10     Wed Apr 21 11:37:21 2021
 Copyright (c) 1985-1991  Texas Instruments Incorporated 

                                                                     PAGE    4

     131                    *                                                                        *
     132                    * if straight on - s                                                     *
     133                    * if down                                                                *
     134                    *    if low                                                              *
     135                    *       if close - dlc                                                   *
     136                    *       else     - dl                                                    *
     137                    *    else        - d                                                     *
     138                    * if away                                                                *
     139                    *    if close    - ac                                                    *
     140                    *    else        - a                                                     *
     141                    * if close       - c                                                     *
     142                    * else           - o                                                     *
     143                    *                                                                        *
     144                    **************************************************************************
     145                    
     146 000009c0           ss_straight_on
     147 000009c0     0029          .word   22+19
     148 000009d0 00005660'         .long   set_trail_slapshot_script
     149 000009f0 00005660'         .long   set_trail_slapshot_script
     150 00000a10 00005660'         .long   set_trail_slapshot_script
     151 00000a30 00002710'         .long   set_trail_spin_shot_script
     152 00000a50 00002710'         .long   set_trail_spin_shot_script
     153 00000a70 00002710'         .long   set_trail_spin_shot_script
     154 00000a90 000066c0'         .long   set_spin_backhand_script
     155 00000ab0 000066c0'         .long   set_spin_backhand_script
     156 00000ad0 000066c0'         .long   set_spin_backhand_script
     157 00000af0 000064e0'         .long   set_spin_slapshot_script
     158 00000b10 000064e0'         .long   set_spin_slapshot_script
     159                    
     160 00000b30 00005660'         .long   set_trail_slapshot_script
     161 00000b50 00005660'         .long   set_trail_slapshot_script
     162 00000b70 00002710'         .long   set_trail_spin_shot_script
     163 00000b90 000064e0'         .long   set_spin_slapshot_script
     164                    ;       .long   set_scaleshoot_script
     165                    ;       .long   set_scaletrail_shoot_script
     166                    ;       .long   set_scaleshoot_script
     167                    ;       .long   set_scaletrail_shoot_script
     168 00000bb0 000023d0'         .long   set_up_sommersault_shot_script
     169 00000bd0 00002270'         .long   set_up_down_shot_script
     170 00000bf0 000023d0'         .long   set_up_sommersault_shot_script
     171 00000c10 00002270'         .long   set_up_down_shot_script
     172                    
     173 00000c30 00005480'         .long   set_side_snapshot_script
     174 00000c50 00002e90'         .long   set_turbo_backhand_script
     175 00000c70 00002e90'         .long   set_turbo_backhand_script
     176 00000c90 00002e90'         .long   set_turbo_backhand_script
     177 00000cb0 00002860'         .long   set_spin_around_slapshot_script
     178 00000cd0 00002860'         .long   set_spin_around_slapshot_script
     179 00000cf0 00002860'         .long   set_spin_around_slapshot_script
     180 00000d10 000056d0'         .long   set_regular_slap_shot_script
     181 00000d30 000056d0'         .long   set_regular_slap_shot_script
     182 00000d50 000056d0'         .long   set_regular_slap_shot_script
     183 00000d70 00003070'         .long   set_pool_cue_shot_script
     184 00000d90 00003070'         .long   set_pool_cue_shot_script
     185 00000db0 00003070'         .long   set_pool_cue_shot_script
TMS340 COFF Macro Assembler Version 6.10     Wed Apr 21 11:37:21 2021
 Copyright (c) 1985-1991  Texas Instruments Incorporated 

                                                                     PAGE    5

     186 00000dd0 00005660'         .long   set_trail_slapshot_script
     187 00000df0 00005660'         .long   set_trail_slapshot_script
     188 00000e10 00005660'         .long   set_trail_slapshot_script
     189 00000e30 00002710'         .long   set_trail_spin_shot_script
     190 00000e50 00002710'         .long   set_trail_spin_shot_script
     191 00000e70 000066c0'         .long   set_spin_backhand_script
     192 00000e90 000066c0'         .long   set_spin_backhand_script
     193 00000eb0 000064e0'         .long   set_spin_slapshot_script
     194 00000ed0 000064e0'         .long   set_spin_slapshot_script
     195                    
     196 00000ef0           ss_special_straight_on
     197 00000ef0     0030          .word   24+24
     198 00000f00 00002ab0'         .long   set_tornado_shot_script
     199 00000f20 00002ab0'         .long   set_tornado_shot_script
     200 00000f40 00005660'         .long   set_trail_slapshot_script
     201 00000f60 00005660'         .long   set_trail_slapshot_script
     202                    
     203 00000f80 00005660'         .long   set_trail_slapshot_script
     204 00000fa0 00005660'         .long   set_trail_slapshot_script
     205 00000fc0 00002710'         .long   set_trail_spin_shot_script
     206 00000fe0 000064e0'         .long   set_spin_slapshot_script
     207                    ;       .long   set_scaleshoot_script
     208                    ;       .long   set_scaletrail_shoot_script
     209                    ;       .long   set_scaleshoot_script
     210                    ;       .long   set_scaletrail_shoot_script
     211 00001000 000023d0'         .long   set_up_sommersault_shot_script
     212 00001020 00002270'         .long   set_up_down_shot_script
     213 00001040 000023d0'         .long   set_up_sommersault_shot_script
     214 00001060 00002270'         .long   set_up_down_shot_script
     215 00001080 000023d0'         .long   set_up_sommersault_shot_script
     216 000010a0 00002270'         .long   set_up_down_shot_script
     217 000010c0 000023d0'         .long   set_up_sommersault_shot_script
     218 000010e0 00002270'         .long   set_up_down_shot_script
     219 00001100 000023d0'         .long   set_up_sommersault_shot_script
     220 00001120 00002270'         .long   set_up_down_shot_script
     221 00001140 000023d0'         .long   set_up_sommersault_shot_script
     222 00001160 00002270'         .long   set_up_down_shot_script
     223 00001180 000023d0'         .long   set_up_sommersault_shot_script
     224 000011a0 00002270'         .long   set_up_down_shot_script
     225 000011c0 000023d0'         .long   set_up_sommersault_shot_script
     226 000011e0 00002270'         .long   set_up_down_shot_script
     227                    
     228 00001200 00005480'         .long   set_side_snapshot_script
     229 00001220 00002ab0'         .long   set_tornado_shot_script
     230 00001240 00002ab0'         .long   set_tornado_shot_script
     231 00001260 00002ab0'         .long   set_tornado_shot_script
     232 00001280 00002ab0'         .long   set_tornado_shot_script
     233 000012a0 00005660'         .long   set_trail_slapshot_script
     234 000012c0 00005660'         .long   set_trail_slapshot_script
     235 000012e0 00005660'         .long   set_trail_slapshot_script
     236 00001300 00005660'         .long   set_trail_slapshot_script
     237 00001320 00005660'         .long   set_trail_slapshot_script
     238 00001340 00005660'         .long   set_trail_slapshot_script
     239 00001360 00002e90'         .long   set_turbo_backhand_script
     240 00001380 00002860'         .long   set_spin_around_slapshot_script
TMS340 COFF Macro Assembler Version 6.10     Wed Apr 21 11:37:21 2021
 Copyright (c) 1985-1991  Texas Instruments Incorporated 

                                                                     PAGE    6

     241 000013a0 000056d0'         .long   set_regular_slap_shot_script
     242 000013c0 00003070'         .long   set_pool_cue_shot_script
     243 000013e0 00002710'         .long   set_trail_spin_shot_script
     244 00001400 00002710'         .long   set_trail_spin_shot_script
     245 00001420 00002710'         .long   set_trail_spin_shot_script
     246 00001440 00002a40'         .long   set_trail_tornado_script
     247 00001460 00002a40'         .long   set_trail_tornado_script
     248 00001480 000066c0'         .long   set_spin_backhand_script
     249 000014a0 000066c0'         .long   set_spin_backhand_script
     250 000014c0 000064e0'         .long   set_spin_slapshot_script
     251 000014e0 000064e0'         .long   set_spin_slapshot_script
     252                    
     253 00001500           ss_down_and_low_close
     254 00001500     000d          .word   9+4
     255 00001510 00002860'         .long   set_spin_around_slapshot_script
     256 00001530 00002860'         .long   set_spin_around_slapshot_script
     257 00001550 00002860'         .long   set_spin_around_slapshot_script
     258 00001570 00002860'         .long   set_spin_around_slapshot_script
     259                    
     260 00001590 00002e90'         .long   set_turbo_backhand_script
     261 000015b0 00002e90'         .long   set_turbo_backhand_script
     262 000015d0 00002e90'         .long   set_turbo_backhand_script
     263 000015f0 00002e90'         .long   set_turbo_backhand_script
     264 00001610 00002e90'         .long   set_turbo_backhand_script
     265 00001630 00002e90'         .long   set_turbo_backhand_script
     266 00001650 00002860'         .long   set_spin_around_slapshot_script
     267 00001670 00002860'         .long   set_spin_around_slapshot_script
     268 00001690 000056d0'         .long   set_regular_slap_shot_script
     269                    
     270 000016b0           ss_down_and_low
     271 000016b0     000b          .word   7+4
     272 000016c0 00002860'         .long   set_spin_around_slapshot_script
     273 000016e0 00002860'         .long   set_spin_around_slapshot_script
     274 00001700 00002860'         .long   set_spin_around_slapshot_script
     275 00001720 00002860'         .long   set_spin_around_slapshot_script
     276                    
     277 00001740 00002e90'         .long   set_turbo_backhand_script
     278 00001760 00002e90'         .long   set_turbo_backhand_script
     279 00001780 00002e90'         .long   set_turbo_backhand_script
     280 000017a0 00002e90'         .long   set_turbo_backhand_script
     281 000017c0 00002860'         .long   set_spin_around_slapshot_script
     282 000017e0 00002860'         .long   set_spin_around_slapshot_script
     283 00001800 000056d0'         .long   set_regular_slap_shot_script
     284                    
     285 00001820           ss_down
     286 00001820     0006          .word   4+2
     287 00001830 00002860'         .long   set_spin_around_slapshot_script
     288 00001850 00002860'         .long   set_spin_around_slapshot_script
     289                    
     290 00001870 00002e90'         .long   set_turbo_backhand_script
     291 00001890 00002e90'         .long   set_turbo_backhand_script
     292 000018b0 00002860'         .long   set_spin_around_slapshot_script
     293 000018d0 000056d0'         .long   set_regular_slap_shot_script
     294                    
     295 000018f0           ss_away_and_close
TMS340 COFF Macro Assembler Version 6.10     Wed Apr 21 11:37:21 2021
 Copyright (c) 1985-1991  Texas Instruments Incorporated 

                                                                     PAGE    7

     296 000018f0     001a          .word   14+12
     297 00001900 00002ab0'         .long   set_tornado_shot_script
     298 00001920 00002ab0'         .long   set_tornado_shot_script
     299 00001940 00002710'         .long   set_trail_spin_shot_script
     300 00001960 00002710'         .long   set_trail_spin_shot_script
     301 00001980 00002a40'         .long   set_trail_tornado_script
     302 000019a0 00002a40'         .long   set_trail_tornado_script
     303 000019c0 000066c0'         .long   set_spin_backhand_script
     304 000019e0 000064e0'         .long   set_spin_slapshot_script
     305                    
     306 00001a00 00005660'         .long   set_trail_slapshot_script
     307 00001a20 00005660'         .long   set_trail_slapshot_script
     308 00001a40 00002710'         .long   set_trail_spin_shot_script
     309 00001a60 000064e0'         .long   set_spin_slapshot_script
     310                    ;       .long   set_scaleshoot_script
     311                    ;       .long   set_scaletrail_shoot_script
     312                    ;       .long   set_scaleshoot_script
     313                    ;       .long   set_scaletrail_shoot_script
     314                    
     315 00001a80 00002e90'         .long   set_turbo_backhand_script
     316 00001aa0 00002e90'         .long   set_turbo_backhand_script
     317 00001ac0 00002860'         .long   set_spin_around_slapshot_script
     318 00001ae0 00002860'         .long   set_spin_around_slapshot_script
     319 00001b00 00002860'         .long   set_spin_around_slapshot_script
     320 00001b20 000056d0'         .long   set_regular_slap_shot_script
     321 00001b40 00002ab0'         .long   set_tornado_shot_script
     322 00001b60 00002ab0'         .long   set_tornado_shot_script
     323 00001b80 00002710'         .long   set_trail_spin_shot_script
     324 00001ba0 00002710'         .long   set_trail_spin_shot_script
     325 00001bc0 00002a40'         .long   set_trail_tornado_script
     326 00001be0 00002a40'         .long   set_trail_tornado_script
     327 00001c00 000066c0'         .long   set_spin_backhand_script
     328 00001c20 000064e0'         .long   set_spin_slapshot_script
     329                    
     330 00001c40           ss_away
     331 00001c40     0016          .word   13+9
     332 00001c50 00002ab0'         .long   set_tornado_shot_script
     333 00001c70 00002ab0'         .long   set_tornado_shot_script
     334 00001c90 00002710'         .long   set_trail_spin_shot_script
     335 00001cb0 00002710'         .long   set_trail_spin_shot_script
     336 00001cd0 00002a40'         .long   set_trail_tornado_script
     337 00001cf0 000066c0'         .long   set_spin_backhand_script
     338 00001d10 000064e0'         .long   set_spin_slapshot_script
     339                    
     340 00001d30 00005660'         .long   set_trail_slapshot_script
     341 00001d50 00005660'         .long   set_trail_slapshot_script
     342                    ;       .long   set_scaleshoot_script
     343                    ;       .long   set_scaletrail_shoot_script
     344                    
     345 00001d70 00002e90'         .long   set_turbo_backhand_script
     346 00001d90 00002860'         .long   set_spin_around_slapshot_script
     347 00001db0 00002860'         .long   set_spin_around_slapshot_script
     348 00001dd0 00002860'         .long   set_spin_around_slapshot_script
     349 00001df0 00002860'         .long   set_spin_around_slapshot_script
     350 00001e10 000056d0'         .long   set_regular_slap_shot_script
TMS340 COFF Macro Assembler Version 6.10     Wed Apr 21 11:37:21 2021
 Copyright (c) 1985-1991  Texas Instruments Incorporated 

                                                                     PAGE    8

     351 00001e30 00002ab0'         .long   set_tornado_shot_script
     352 00001e50 00002ab0'         .long   set_tornado_shot_script
     353 00001e70 00002710'         .long   set_trail_spin_shot_script
     354 00001e90 00002710'         .long   set_trail_spin_shot_script
     355 00001eb0 00002a40'         .long   set_trail_tornado_script
     356 00001ed0 000066c0'         .long   set_spin_backhand_script
     357 00001ef0 000064e0'         .long   set_spin_slapshot_script
     358                    
     359 00001f10           ss_close
     360 00001f10     000a          .word   6+4
     361 00001f20 00002710'         .long   set_trail_spin_shot_script
     362 00001f40 00002710'         .long   set_trail_spin_shot_script
     363                    
     364 00001f60 00005660'         .long   set_trail_slapshot_script
     365 00001f80 00005660'         .long   set_trail_slapshot_script
     366                    ;       .long   set_scaleshoot_script
     367                    ;       .long   set_scaletrail_shoot_script
     368                    
     369 00001fa0 00002e90'         .long   set_turbo_backhand_script
     370 00001fc0 00002e90'         .long   set_turbo_backhand_script
     371 00001fe0 00002860'         .long   set_spin_around_slapshot_script
     372 00002000 00002860'         .long   set_spin_around_slapshot_script
     373 00002020 000056d0'         .long   set_regular_slap_shot_script
     374 00002040 00002710'         .long   set_trail_spin_shot_script
     375                    
     376 00002060           ss_other
     377 00002060     0010          .word   10+6
     378 00002070 00005660'         .long   set_trail_slapshot_script
     379 00002090 00002710'         .long   set_trail_spin_shot_script
     380 000020b0 000066c0'         .long   set_spin_backhand_script
     381 000020d0 000064e0'         .long   set_spin_slapshot_script
     382                    
     383 000020f0 00005660'         .long   set_trail_slapshot_script
     384 00002110 00005660'         .long   set_trail_slapshot_script
     385                    ;       .long   set_scaleshoot_script
     386                    ;       .long   set_scaletrail_shoot_script
     387                    
     388 00002130 00005480'         .long   set_side_snapshot_script
     389 00002150 00002e90'         .long   set_turbo_backhand_script
     390 00002170 00002860'         .long   set_spin_around_slapshot_script
     391 00002190 000056d0'         .long   set_regular_slap_shot_script
     392 000021b0 000056d0'         .long   set_regular_slap_shot_script
     393 000021d0 000056d0'         .long   set_regular_slap_shot_script
     394 000021f0 00005660'         .long   set_trail_slapshot_script
     395 00002210 00002710'         .long   set_trail_spin_shot_script
     396 00002230 000066c0'         .long   set_spin_backhand_script
     397 00002250 000064e0'         .long   set_spin_slapshot_script
     398                    
     399 00002270           set_up_down_shot_script
     400 00002270     09ee          movi    suds_tab-32,a14
         00002280 000022b0' 
     401 000022a0     c080          jauc    start_panim_if_not_ta14
         000022b0 00000000! 
     402                    
     403 000022d0           suds_tab
TMS340 COFF Macro Assembler Version 6.10     Wed Apr 21 11:37:21 2021
 Copyright (c) 1985-1991  Texas Instruments Incorporated 

                                                                     PAGE    9

     404 000022d0 00000000!         .long   anim_up_down_shot_1
     405 000022f0 00000000!         .long   anim_up_down_shot_2
     406 00002310 00000000!         .long   anim_up_down_shot_3
     407 00002330 00000000!         .long   anim_up_down_shot_4
     408 00002350 00000000!         .long   anim_up_down_shot_5
     409 00002370 00000000!         .long   anim_up_down_shot_6
     410 00002390 00000000!         .long   anim_up_down_shot_7
     411 000023b0 00000000!         .long   anim_up_down_shot_8
     412                    
     413 000023d0           set_up_sommersault_shot_script
     414 000023d0     09ee          movi    susss_tab-32,a14
         000023e0 00002410' 
     415 00002400     c080          jauc    start_panim_if_not_ta14
         00002410 00000000! 
     416                    
     417 00002430           susss_tab
     418 00002430 00000000!         .long   anim_sommersault_shot_1
     419 00002450 00000000!         .long   anim_sommersault_shot_2
     420 00002470 00000000!         .long   anim_sommersault_shot_3
     421 00002490 00000000!         .long   anim_sommersault_shot_4
     422 000024b0 00000000!         .long   anim_sommersault_shot_5
     423 000024d0 00000000!         .long   anim_sommersault_shot_6
     424 000024f0 00000000!         .long   anim_sommersault_shot_7
     425 00002510 00000000!         .long   anim_sommersault_shot_8
     426                    
     427 00002530           set_wrist_shot_script
     428 00002530     098f          mmtm    sp,a2
         00002540     2000  
     429 00002550     5642          clr     a2
     430 00002560     0d5f          calla   spx_shot1
         00002570 00000000! 
     431 00002590     09af          mmfm    sp,a2
         000025a0     0004  
     432 000025b0     09ee          movi    swss_tab-32,a14
         000025c0 000025f0' 
     433 000025e0     c080          jauc    start_panim_if_not_ta14
         000025f0 00000000! 
     434                    
     435 00002610           swss_tab
     436 00002610 00000000!         .long   anim_wrist_shot_1
     437 00002630 00000000!         .long   anim_wrist_shot_2
     438 00002650 00000000!         .long   anim_wrist_shot_3
     439 00002670 00000000!         .long   anim_wrist_shot_4
     440 00002690 00000000!         .long   anim_wrist_shot_5
     441 000026b0 00000000!         .long   anim_wrist_shot_6
     442 000026d0 00000000!         .long   anim_wrist_shot_7
     443 000026f0 00000000!         .long   anim_wrist_shot_8
     444                    
     445 00002710           set_trail_spin_shot_script
     446 00002710     b4ce          move    *a6(POF_FLAGS),a14,W
         00002720     0200  
     447 00002730     0bae          ori     M_PF_TRAILS,a14
         00002740 00004000  
     448 00002760     b1c6          move    a14,*a6(POF_FLAGS),W
         00002770     0200  
TMS340 COFF Macro Assembler Version 6.10     Wed Apr 21 11:37:21 2021
 Copyright (c) 1985-1991  Texas Instruments Incorporated 

                                                                     PAGE   10

     449 00002780     098f          mmtm    sp,a2
         00002790     2000  
     450 000027a0     1882          movk    4,a2
     451 000027b0     0d5f          calla   spx_shot1
         000027c0 00000000! 
     452 000027e0     09af          mmfm    sp,a2
         000027f0     0004  
     453 00002800     09ee          movi    sars_tab-32,a14
         00002810 00002920' 
     454 00002830     c080          jauc    start_panim_if_not_ta14
         00002840 00000000! 
     455                    
     456 00002860           set_spin_around_slapshot_script
     457 00002860     098f          mmtm    sp,a2
         00002870     2000  
     458 00002880     1882          movk    4,a2
     459 00002890     0d5f          calla   spx_shot1
         000028a0 00000000! 
     460 000028c0     09af          mmfm    sp,a2
         000028d0     0004  
     461 000028e0     09ee          movi    sars_tab-32,a14
         000028f0 00002920' 
     462 00002910     c080          jauc    start_panim_if_not_ta14
         00002920 00000000! 
     463                    
     464 00002940           sars_tab
     465 00002940 00000000!         .long   anim_spin_around_slap_1
     466 00002960 00000000!         .long   anim_spin_around_slap_2
     467 00002980 00000000!         .long   anim_spin_around_slap_3
     468 000029a0 00000000!         .long   anim_spin_around_slap_4
     469 000029c0 00000000!         .long   anim_spin_around_slap_5
     470 000029e0 00000000!         .long   anim_spin_around_slap_6
     471 00002a00 00000000!         .long   anim_spin_around_slap_7
     472 00002a20 00000000!         .long   anim_spin_around_slap_8
     473                    
     474 00002a40           set_trail_tornado_script
     475 00002a40     b4ce          move    *a6(POF_FLAGS),a14,W
         00002a50     0200  
     476 00002a60     0bae          ori     M_PF_TRAILS,a14
         00002a70 00004000  
     477 00002a90     b1c6          move    a14,*a6(POF_FLAGS),W
         00002aa0     0200  
     478 00002ab0           set_tornado_shot_script
     479 00002ab0     098f          mmtm    sp,a2
         00002ac0     2000  
     480 00002ad0     b4ce          move    *a6(POF_FLAGS),a14,W
         00002ae0     0200  
     481 00002af0     0bae          ori     M_PF_CONTROLM,a14
         00002b00 00000200  
     482 00002b20     b1c6          move    a14,*a6(POF_FLAGS),W
         00002b30     0200  
     483 00002b40     18a2          movk    5,a2
     484 00002b50     0d5f          calla   spx_shot1
         00002b60 00000000! 
     485 00002b80     09af          mmfm    sp,a2
TMS340 COFF Macro Assembler Version 6.10     Wed Apr 21 11:37:21 2021
 Copyright (c) 1985-1991  Texas Instruments Incorporated 

                                                                     PAGE   11

         00002b90     0004  
     486 00002ba0     0d5f          calla   RANDOM
         00002bb0 00000000! 
     487 00002bd0     2be0          sra     1,a0
     488 00002be0     c804          jrc     stss1
     489 00002bf0     09ee          movi    storscw_tab-32,a14
         00002c00 00002d70' 
     490 00002c20     c003          jruc    stss2
     491 00002c30     09ee  stss1   movi    storsccw_tab-32,a14
         00002c40 00002c70' 
     492 00002c60     c080  stss2   jauc    start_panim_if_not_ta14
         00002c70 00000000! 
     493                    
     494 00002c90           storsccw_tab
     495 00002c90 00000000!         .long   anim_tornadoccw_shot_1
     496 00002cb0 00000000!         .long   anim_tornadoccw_shot_2
     497 00002cd0 00000000!         .long   anim_tornadoccw_shot_3
     498 00002cf0 00000000!         .long   anim_tornadoccw_shot_4
     499 00002d10 00000000!         .long   anim_tornadoccw_shot_5
     500 00002d30 00000000!         .long   anim_tornadoccw_shot_6
     501 00002d50 00000000!         .long   anim_tornadoccw_shot_7
     502 00002d70 00000000!         .long   anim_tornadoccw_shot_8
     503                    
     504 00002d90           storscw_tab
     505 00002d90 00000000!         .long   anim_tornadocw_shot_1
     506 00002db0 00000000!         .long   anim_tornadocw_shot_2
     507 00002dd0 00000000!         .long   anim_tornadocw_shot_3
     508 00002df0 00000000!         .long   anim_tornadocw_shot_4
     509 00002e10 00000000!         .long   anim_tornadocw_shot_5
     510 00002e30 00000000!         .long   anim_tornadocw_shot_6
     511 00002e50 00000000!         .long   anim_tornadocw_shot_7
     512 00002e70 00000000!         .long   anim_tornadocw_shot_8
     513                    
     514 00002e90           set_turbo_backhand_script
     515 00002e90     098f          mmtm    sp,a2
         00002ea0     2000  
     516 00002eb0     1862          movk    3,a2
     517 00002ec0     0d5f          calla   spx_shot1
         00002ed0 00000000! 
     518 00002ef0     09af          mmfm    sp,a2
         00002f00     0004  
     519 00002f10     09ee          movi    stbs_tab-32,a14
         00002f20 00002f50' 
     520 00002f40     c080          jauc    start_panim_if_not_ta14
         00002f50 00000000! 
     521                    
     522 00002f70           stbs_tab
     523 00002f70 00000000!         .long   anim_turbo_backhand_1
     524 00002f90 00000000!         .long   anim_turbo_backhand_2
     525 00002fb0 00000000!         .long   anim_turbo_backhand_3
     526 00002fd0 00000000!         .long   anim_turbo_backhand_4
     527 00002ff0 00000000!         .long   anim_turbo_backhand_5
     528 00003010 00000000!         .long   anim_turbo_backhand_6
     529 00003030 00000000!         .long   anim_turbo_backhand_7
     530 00003050 00000000!         .long   anim_turbo_backhand_8
TMS340 COFF Macro Assembler Version 6.10     Wed Apr 21 11:37:21 2021
 Copyright (c) 1985-1991  Texas Instruments Incorporated 

                                                                     PAGE   12

     531                    
     532 00003070           set_pool_cue_shot_script
     533 00003070     098f          mmtm    sp,a2
         00003080     2000  
     534 00003090     18a2          movk    5,a2
     535 000030a0     0d5f          calla   spx_shot1
         000030b0 00000000! 
     536 000030d0     09af          mmfm    sp,a2
         000030e0     0004  
     537 000030f0     09ee          movi    spcs_tab-32,a14
         00003100 00003130' 
     538 00003120     c080          jauc    start_panim_if_not_ta14
         00003130 00000000! 
     539                    
     540 00003150           spcs_tab
     541 00003150 00000000!         .long   anim_pool_cue_script_1
     542 00003170 00000000!         .long   anim_pool_cue_script_2
     543 00003190 00000000!         .long   anim_pool_cue_script_3
     544 000031b0 00000000!         .long   anim_pool_cue_script_4
     545 000031d0 00000000!         .long   anim_pool_cue_script_5
     546 000031f0 00000000!         .long   anim_pool_cue_script_6
     547 00003210 00000000!         .long   anim_pool_cue_script_7
     548 00003230 00000000!         .long   anim_pool_cue_script_8
     549                    
     550 00003250           set_pass_script
     551 00003250     09ee          movi    sphs_tab-32,a14
         00003260 00003290' 
     552 00003280     c080          jauc    start_panim_if_not_ta14
         00003290 00000000! 
     553                    
     554 000032b0           sphs_tab
     555 000032b0 00000000!         .long   anim_pass_1
     556 000032d0 00000000!         .long   anim_pass_2
     557 000032f0 00000000!         .long   anim_pass_3
     558 00003310 00000000!         .long   anim_pass_4
     559 00003330 00000000!         .long   anim_pass_5
     560 00003350 00000000!         .long   anim_pass_6
     561 00003370 00000000!         .long   anim_pass_7
     562 00003390 00000000!         .long   anim_pass_8
     563                    
     564 000033b0           set_turbo_pass_script
     565 000033b0     09ee          movi    spths_tab-32,a14
         000033c0 000033f0' 
     566 000033e0     c080          jauc    start_panim_if_not_ta14
         000033f0 00000000! 
     567                    
     568 00003410           spths_tab
     569 00003410 00000000!         .long   anim_tpass_1
     570 00003430 00000000!         .long   anim_tpass_2
     571 00003450 00000000!         .long   anim_tpass_3
     572 00003470 00000000!         .long   anim_tpass_4
     573 00003490 00000000!         .long   anim_tpass_5
     574 000034b0 00000000!         .long   anim_tpass_6
     575 000034d0 00000000!         .long   anim_tpass_7
     576 000034f0 00000000!         .long   anim_tpass_8
TMS340 COFF Macro Assembler Version 6.10     Wed Apr 21 11:37:21 2021
 Copyright (c) 1985-1991  Texas Instruments Incorporated 

                                                                     PAGE   13

     577                    
     578 00003510           set_pass_early_script
     579 00003510     09ee          movi    spers_tab-32,a14
         00003520 00003550' 
     580 00003540     c080          jauc    start_panim_if_not_ta14
         00003550 00000000! 
     581                    
     582 00003570           spers_tab
     583 00003570 00000000!         .long   anim_pass_early_1
     584 00003590 00000000!         .long   anim_pass_early_2
     585 000035b0 00000000!         .long   anim_pass_early_3
     586 000035d0 00000000!         .long   anim_pass_early_4
     587 000035f0 00000000!         .long   anim_pass_early_5
     588 00003610 00000000!         .long   anim_pass_early_6
     589 00003630 00000000!         .long   anim_pass_early_7
     590 00003650 00000000!         .long   anim_pass_early_8
     591                    
     592 00003670           set_wrist_shot_down_script
     593 00003670     098f          mmtm    sp,a2
         00003680     2000  
     594 00003690     5642          clr     a2
     595 000036a0     0d5f          calla   spx_shot1
         000036b0 00000000! 
     596 000036d0     09af          mmfm    sp,a2
         000036e0     0004  
     597 000036f0     09ee          movi    swsd_tab-32,a14
         00003700 00003730' 
     598 00003720     c080          jauc    start_panim_if_not_ta14
         00003730 00000000! 
     599                    
     600 00003750           swsd_tab
     601 00003750 00000000!         .long   anim_wrist_shot_down_1
     602 00003770 00000000!         .long   anim_wrist_shot_down_2
     603 00003790 00000000!         .long   anim_wrist_shot_down_3
     604 000037b0 00000000!         .long   anim_wrist_shot_down_4
     605 000037d0 00000000!         .long   anim_wrist_shot_down_5
     606 000037f0 00000000!         .long   anim_wrist_shot_down_6
     607 00003810 00000000!         .long   anim_wrist_shot_down_7
     608 00003830 00000000!         .long   anim_wrist_shot_down_8
     609                    
     610 00003850           set_backhand_shot_up_script
     611 00003850     098f          mmtm    sp,a2
         00003860     2000  
     612 00003870     1842          movk    2,a2
     613 00003880     0d5f          calla   spx_shot1
         00003890 00000000! 
     614 000038b0     09af          mmfm    sp,a2
         000038c0     0004  
     615 000038d0     09ee          movi    sbsu_tab-32,a14
         000038e0 00003910' 
     616 00003900     c080          jauc    start_panim_if_not_ta14
         00003910 00000000! 
     617                    
     618 00003930           sbsu_tab
     619 00003930 00000000!         .long   anim_backhand_shot_up_1
TMS340 COFF Macro Assembler Version 6.10     Wed Apr 21 11:37:21 2021
 Copyright (c) 1985-1991  Texas Instruments Incorporated 

                                                                     PAGE   14

     620 00003950 00000000!         .long   anim_backhand_shot_up_2
     621 00003970 00000000!         .long   anim_backhand_shot_up_3
     622 00003990 00000000!         .long   anim_backhand_shot_up_4
     623 000039b0 00000000!         .long   anim_backhand_shot_up_5
     624 000039d0 00000000!         .long   anim_backhand_shot_up_6
     625 000039f0 00000000!         .long   anim_backhand_shot_up_7
     626 00003a10 00000000!         .long   anim_backhand_shot_up_8
     627                    
     628 00003a30           set_slap_shot_down_script
     629 00003a30     098f          mmtm    sp,a2
         00003a40     2000  
     630 00003a50     1822          movk    1,a2
     631 00003a60     0d5f          calla   spx_shot1
         00003a70 00000000! 
     632 00003a90     09af          mmfm    sp,a2
         00003aa0     0004  
     633 00003ab0     09ee          movi    sssd_tab-32,a14
         00003ac0 00003af0' 
     634 00003ae0     c080          jauc    start_panim_if_not_ta14
         00003af0 00000000! 
     635                    
     636 00003b10           sssd_tab
     637 00003b10 00000000!         .long   anim_slap_shot_down_1
     638 00003b30 00000000!         .long   anim_slap_shot_down_2
     639 00003b50 00000000!         .long   anim_slap_shot_down_3
     640 00003b70 00000000!         .long   anim_slap_shot_down_4
     641 00003b90 00000000!         .long   anim_slap_shot_down_5
     642 00003bb0 00000000!         .long   anim_slap_shot_down_6
     643 00003bd0 00000000!         .long   anim_slap_shot_down_7
     644 00003bf0 00000000!         .long   anim_slap_shot_down_8
     645                    
     646 00003c10           set_turbo_back_shot_up_script
     647 00003c10     098f          mmtm    sp,a2
         00003c20     2000  
     648 00003c30     1862          movk    3,a2
     649 00003c40     0d5f          calla   spx_shot1
         00003c50 00000000! 
     650 00003c70     09af          mmfm    sp,a2
         00003c80     0004  
     651 00003c90     09ee          movi    stbsu_tab-32,a14
         00003ca0 00003cd0' 
     652 00003cc0     c080          jauc    start_panim_if_not_ta14
         00003cd0 00000000! 
     653                    
     654 00003cf0           stbsu_tab
     655 00003cf0 00000000!         .long   anim_turbo_backhand_shot_up_1
     656 00003d10 00000000!         .long   anim_turbo_backhand_shot_up_2
     657 00003d30 00000000!         .long   anim_turbo_backhand_shot_up_3
     658 00003d50 00000000!         .long   anim_turbo_backhand_shot_up_4
     659 00003d70 00000000!         .long   anim_turbo_backhand_shot_up_5
     660 00003d90 00000000!         .long   anim_turbo_backhand_shot_up_6
     661 00003db0 00000000!         .long   anim_turbo_backhand_shot_up_7
     662 00003dd0 00000000!         .long   anim_turbo_backhand_shot_up_8
     663                    
     664 00003df0           set_pass_left_thru_script
TMS340 COFF Macro Assembler Version 6.10     Wed Apr 21 11:37:21 2021
 Copyright (c) 1985-1991  Texas Instruments Incorporated 

                                                                     PAGE   15

     665 00003df0     09ee          movi    splts_tab-32,a14
         00003e00 00003e30' 
     666 00003e20     c080          jauc    start_panim_if_not_ta14
         00003e30 00000000! 
     667 00003e50           splts_tab
     668 00003e50 00000000!         .long   anim_pass_1_7
     669 00003e70 00000000!         .long   anim_pass_thru_3_7
     670 00003e90 00000000!         .long   anim_pass_thru_3_7
     671 00003eb0 00000000!         .long   anim_pass_thru_3_7
     672 00003ed0 00000000!         .long   anim_pass_5_7
     673 00003ef0 00000000!         .long   anim_pass_r3_r3
     674 00003f10 00000000!         .long   anim_pass_r3_r3
     675 00003f30 00000000!         .long   anim_pass_r3_r3
     676                    
     677 00003f50           set_pass_left_thru_early_script
     678 00003f50     09ee          movi    spltes_tab-32,a14
         00003f60 00003f90' 
     679 00003f80     c080          jauc    start_panim_if_not_ta14
         00003f90 00000000! 
     680                    
     681 00003fb0           spltes_tab
     682 00003fb0 00000000!         .long   anim_pass_early_1_7
     683 00003fd0 00000000!         .long   anim_pass_thru_early_3_7
     684 00003ff0 00000000!         .long   anim_pass_thru_early_3_7
     685 00004010 00000000!         .long   anim_pass_thru_early_3_7
     686 00004030 00000000!         .long   anim_pass_early_5_7
     687 00004050 00000000!         .long   anim_pass_early_r3_r3
     688 00004070 00000000!         .long   anim_pass_early_r3_r3
     689 00004090 00000000!         .long   anim_pass_early_r3_r3
     690                    
     691 000040b0           set_pass_left_script
     692 000040b0     09ee          movi    spls_tab-32,a14
         000040c0 000040f0' 
     693 000040e0     c080          jauc    start_panim_if_not_ta14
         000040f0 00000000! 
     694                    
     695 00004110           spls_tab
     696 00004110 00000000!         .long   anim_pass_1_7
     697 00004130 00000000!         .long   anim_pass_3_7
     698 00004150 00000000!         .long   anim_pass_3_7
     699 00004170 00000000!         .long   anim_pass_3_7
     700 00004190 00000000!         .long   anim_pass_5_7
     701 000041b0 00000000!         .long   anim_pass_r3_r3
     702 000041d0 00000000!         .long   anim_pass_r3_r3
     703 000041f0 00000000!         .long   anim_pass_r3_r3
     704                    
     705 00004210           set_pass_left_early_script
     706 00004210     09ee          movi    sples_tab-32,a14
         00004220 00004250' 
     707 00004240     c080          jauc    start_panim_if_not_ta14
         00004250 00000000! 
     708                    
     709 00004270           sples_tab
     710 00004270 00000000!         .long   anim_pass_early_1_7
     711 00004290 00000000!         .long   anim_pass_early_3_7
TMS340 COFF Macro Assembler Version 6.10     Wed Apr 21 11:37:21 2021
 Copyright (c) 1985-1991  Texas Instruments Incorporated 

                                                                     PAGE   16

     712 000042b0 00000000!         .long   anim_pass_early_3_7
     713 000042d0 00000000!         .long   anim_pass_early_3_7
     714 000042f0 00000000!         .long   anim_pass_early_5_7
     715 00004310 00000000!         .long   anim_pass_early_r3_r3
     716 00004330 00000000!         .long   anim_pass_early_r3_r3
     717 00004350 00000000!         .long   anim_pass_early_r3_r3
     718                    
     719 00004370           set_pass_right_thru_script
     720 00004370     09ee          movi    sprts_tab-32,a14
         00004380 000043b0' 
     721 000043a0     c080          jauc    start_panim_if_not_ta14
         000043b0 00000000! 
     722 000043d0           sprts_tab
     723 000043d0 00000000!         .long   anim_pass_1_3
     724 000043f0 00000000!         .long   anim_pass_3_3
     725 00004410 00000000!         .long   anim_pass_3_3
     726 00004430 00000000!         .long   anim_pass_3_3
     727 00004450 00000000!         .long   anim_pass_5_3
     728 00004470 00000000!         .long   anim_pass_thru_r3_r7
     729 00004490 00000000!         .long   anim_pass_thru_r3_r7
     730 000044b0 00000000!         .long   anim_pass_thru_r3_r7
     731                    
     732 000044d0           set_pass_right_thru_early_script
     733 000044d0     09ee          movi    sprtes_tab-32,a14
         000044e0 00004510' 
     734 00004500     c080          jauc    start_panim_if_not_ta14
         00004510 00000000! 
     735                    
     736 00004530           sprtes_tab
     737 00004530 00000000!         .long   anim_pass_early_1_3
     738 00004550 00000000!         .long   anim_pass_early_3_3
     739 00004570 00000000!         .long   anim_pass_early_3_3
     740 00004590 00000000!         .long   anim_pass_early_3_3
     741 000045b0 00000000!         .long   anim_pass_early_5_3
     742 000045d0 00000000!         .long   anim_pass_thru_early_r3_r7
     743 000045f0 00000000!         .long   anim_pass_thru_early_r3_r7
     744 00004610 00000000!         .long   anim_pass_thru_early_r3_r7
     745                    
     746 00004630           set_pass_right_script
     747 00004630     09ee          movi    sprs_tab-32,a14
         00004640 00004670' 
     748 00004660     c080          jauc    start_panim_if_not_ta14
         00004670 00000000! 
     749                    
     750 00004690           sprs_tab
     751 00004690 00000000!         .long   anim_pass_1_3
     752 000046b0 00000000!         .long   anim_pass_3_3
     753 000046d0 00000000!         .long   anim_pass_3_3
     754 000046f0 00000000!         .long   anim_pass_3_3
     755 00004710 00000000!         .long   anim_pass_5_3
     756 00004730 00000000!         .long   anim_pass_r3_r7
     757 00004750 00000000!         .long   anim_pass_r3_r7
     758 00004770 00000000!         .long   anim_pass_r3_r7
     759                    
     760 00004790           set_pass_right_early_script
TMS340 COFF Macro Assembler Version 6.10     Wed Apr 21 11:37:21 2021
 Copyright (c) 1985-1991  Texas Instruments Incorporated 

                                                                     PAGE   17

     761 00004790     09ee          movi    spres_tab-32,a14
         000047a0 000047d0' 
     762 000047c0     c080          jauc    start_panim_if_not_ta14
         000047d0 00000000! 
     763                    
     764 000047f0           spres_tab
     765 000047f0 00000000!         .long   anim_pass_early_1_3
     766 00004810 00000000!         .long   anim_pass_early_3_3
     767 00004830 00000000!         .long   anim_pass_early_3_3
     768 00004850 00000000!         .long   anim_pass_early_3_3
     769 00004870 00000000!         .long   anim_pass_early_5_3
     770 00004890 00000000!         .long   anim_pass_early_r3_r7
     771 000048b0 00000000!         .long   anim_pass_early_r3_r7
     772 000048d0 00000000!         .long   anim_pass_early_r3_r7
     773                    
     774 000048f0           set_pass_up_script
     775 000048f0     09ee          movi    spus_tab-32,a14
         00004900 00004930' 
     776 00004920     c080          jauc    start_panim_if_not_ta14
         00004930 00000000! 
     777                    
     778 00004950           spus_tab
     779 00004950 00000000!         .long   anim_pass_p3_1
     780 00004970 00000000!         .long   anim_pass_3_1
     781 00004990 00000000!         .long   anim_pass_3_1
     782 000049b0 00000000!         .long   anim_pass_3_1
     783 000049d0 00000000!         .long   anim_pass_p3_1
     784 000049f0 00000000!         .long   anim_pass_r3_1
     785 00004a10 00000000!         .long   anim_pass_r3_1
     786 00004a30 00000000!         .long   anim_pass_r3_1
     787                    
     788 00004a50           set_pass_up_early_script
     789 00004a50     09ee          movi    spues_tab-32,a14
         00004a60 00004a90' 
     790 00004a80     c080          jauc    start_panim_if_not_ta14
         00004a90 00000000! 
     791                    
     792 00004ab0           spues_tab
     793 00004ab0 00000000!         .long   anim_pass_early_p3_1
     794 00004ad0 00000000!         .long   anim_pass_early_3_1
     795 00004af0 00000000!         .long   anim_pass_early_3_1
     796 00004b10 00000000!         .long   anim_pass_early_3_1
     797 00004b30 00000000!         .long   anim_pass_early_p3_1
     798 00004b50 00000000!         .long   anim_pass_early_r3_1
     799 00004b70 00000000!         .long   anim_pass_early_r3_1
     800 00004b90 00000000!         .long   anim_pass_early_r3_1
     801                    
     802 00004bb0           set_pass_down_script
     803 00004bb0     09ee          movi    spds_tab-32,a14
         00004bc0 00004bf0' 
     804 00004be0     c080          jauc    start_panim_if_not_ta14
         00004bf0 00000000! 
     805                    
     806 00004c10           spds_tab
     807 00004c10 00000000!         .long   anim_pass_p3_5
TMS340 COFF Macro Assembler Version 6.10     Wed Apr 21 11:37:21 2021
 Copyright (c) 1985-1991  Texas Instruments Incorporated 

                                                                     PAGE   18

     808 00004c30 00000000!         .long   anim_pass_3_5
     809 00004c50 00000000!         .long   anim_pass_3_5
     810 00004c70 00000000!         .long   anim_pass_3_5
     811 00004c90 00000000!         .long   anim_pass_p3_5
     812 00004cb0 00000000!         .long   anim_pass_r3_5
     813 00004cd0 00000000!         .long   anim_pass_r3_5
     814 00004cf0 00000000!         .long   anim_pass_r3_5
     815                    
     816 00004d10           set_pass_down_early_script
     817 00004d10     09ee          movi    spdes_tab-32,a14
         00004d20 00004d50' 
     818 00004d40     c080          jauc    start_panim_if_not_ta14
         00004d50 00000000! 
     819                    
     820 00004d70           spdes_tab
     821 00004d70 00000000!         .long   anim_pass_early_p3_5
     822 00004d90 00000000!         .long   anim_pass_early_3_5
     823 00004db0 00000000!         .long   anim_pass_early_3_5
     824 00004dd0 00000000!         .long   anim_pass_early_3_5
     825 00004df0 00000000!         .long   anim_pass_early_p3_5
     826 00004e10 00000000!         .long   anim_pass_early_r3_5
     827 00004e30 00000000!         .long   anim_pass_early_r3_5
     828 00004e50 00000000!         .long   anim_pass_early_r3_5
     829                    
     830 00004e70           set_shoot_early_script
     831 00004e70     098f          mmtm    sp,a2
         00004e80     2000  
     832 00004e90     5642          clr     a2
     833 00004ea0     0d5f          calla   spx_shot1
         00004eb0 00000000! 
     834 00004ed0     09af          mmfm    sp,a2
         00004ee0     0004  
     835 00004ef0     09ee          movi    ssehs_tab-32,a14
         00004f00 00004f30' 
     836 00004f20     c080          jauc    start_panim_if_not_ta14
         00004f30 00000000! 
     837                    
     838 00004f50           ssehs_tab
     839 00004f50 00000000!         .long   anim_shoot_early_1
     840 00004f70 00000000!         .long   anim_shoot_early_2
     841 00004f90 00000000!         .long   anim_shoot_early_3
     842 00004fb0 00000000!         .long   anim_shoot_early_4
     843 00004fd0 00000000!         .long   anim_shoot_early_5
     844 00004ff0 00000000!         .long   anim_shoot_early_6
     845 00005010 00000000!         .long   anim_shoot_early_7
     846 00005030 00000000!         .long   anim_shoot_early_8
     847                    
     848 00005050           set_scaletrail_shoot_script
     849 00005050     b4ce          move    *a6(POF_FLAGS),a14,W
         00005060     0200  
     850 00005070     0bae          ori     M_PF_TRAILS,a14
         00005080 00004000  
     851 000050a0     b1c6          move    a14,*a6(POF_FLAGS),W
         000050b0     0200  
     852 000050c0           set_scaleshoot_script
TMS340 COFF Macro Assembler Version 6.10     Wed Apr 21 11:37:21 2021
 Copyright (c) 1985-1991  Texas Instruments Incorporated 

                                                                     PAGE   19

     853 000050c0     098f          mmtm    sp,a2
         000050d0     2000  
     854 000050e0     1822          movk    1,a2
     855 000050f0     0d5f          calla   spx_shot1
         00005100 00000000! 
     856 00005120     09af          mmfm    sp,a2
         00005130     0004  
     857 00005140     09ee          movi    scrshs_tab-32,a14
         00005150 00005180' 
     858 00005170     c080          jauc    start_panim_if_not_ta14
         00005180 00000000! 
     859                    
     860 000051a0           scrshs_tab
     861 000051a0 00000000!         .long   anim_scaleshoot_1
     862 000051c0 00000000!         .long   anim_scaleshoot_2
     863 000051e0 00000000!         .long   anim_scaleshoot_3
     864 00005200 00000000!         .long   anim_scaleshoot_4
     865 00005220 00000000!         .long   anim_scaleshoot_5
     866 00005240 00000000!         .long   anim_scaleshoot_6
     867 00005260 00000000!         .long   anim_scaleshoot_7
     868 00005280 00000000!         .long   anim_scaleshoot_8
     869                    
     870 000052a0           set_bscaleshoot_script
     871 000052a0     098f          mmtm    sp,a2
         000052b0     2000  
     872 000052c0     1822          movk    1,a2
     873 000052d0     0d5f          calla   spx_shot1
         000052e0 00000000! 
     874 00005300     09af          mmfm    sp,a2
         00005310     0004  
     875 00005320     09ee          movi    bscrshs_tab-32,a14
         00005330 00005360' 
     876 00005350     c080          jauc    start_panim_if_not_ta14
         00005360 00000000! 
     877                    
     878 00005380           bscrshs_tab
     879 00005380 00000000!         .long   anim_bscaleshoot_1
     880 000053a0 00000000!         .long   anim_bscaleshoot_2
     881 000053c0 00000000!         .long   anim_bscaleshoot_3
     882 000053e0 00000000!         .long   anim_bscaleshoot_4
     883 00005400 00000000!         .long   anim_bscaleshoot_5
     884 00005420 00000000!         .long   anim_bscaleshoot_6
     885 00005440 00000000!         .long   anim_bscaleshoot_7
     886 00005460 00000000!         .long   anim_bscaleshoot_8
     887                    
     888 00005480           set_side_snapshot_script
     889 00005480     098f          mmtm    sp,a2
         00005490     2000  
     890 000054a0     5642          clr     a2
     891 000054b0     0d5f          calla   spx_shot1
         000054c0 00000000! 
     892 000054e0     09af          mmfm    sp,a2
         000054f0     0004  
     893 00005500     09ee          movi    sidesns_tab-32,a14
         00005510 00005540' 
TMS340 COFF Macro Assembler Version 6.10     Wed Apr 21 11:37:21 2021
 Copyright (c) 1985-1991  Texas Instruments Incorporated 

                                                                     PAGE   20

     894 00005530     c080          jauc    start_panim_if_not_ta14
         00005540 00000000! 
     895 00005560           sidesns_tab
     896 00005560 00000000!         .long   anim_sidesnap_1
     897 00005580 00000000!         .long   anim_sidesnap_2
     898 000055a0 00000000!         .long   anim_sidesnap_3
     899 000055c0 00000000!         .long   anim_sidesnap_4
     900 000055e0 00000000!         .long   anim_sidesnap_5
     901 00005600 00000000!         .long   anim_sidesnap_6
     902 00005620 00000000!         .long   anim_sidesnap_7
     903 00005640 00000000!         .long   anim_sidesnap_8
     904                    
     905 00005660           set_trail_slapshot_script
     906 00005660     b4ce          move    *a6(POF_FLAGS),a14,W
         00005670     0200  
     907 00005680     0bae          ori     M_PF_TRAILS,a14
         00005690 00004000  
     908 000056b0     b1c6          move    a14,*a6(POF_FLAGS),W
         000056c0     0200  
     909 000056d0           set_regular_slap_shot_script
     910 000056d0     098f          mmtm    sp,a2
         000056e0     2000  
     911 000056f0     1822          movk    1,a2
     912 00005700     0d5f          calla   spx_shot1
         00005710 00000000! 
     913 00005730     09af          mmfm    sp,a2
         00005740     0004  
     914 00005750     09ee          movi    ssths_tab-32,a14
         00005760 00005790' 
     915 00005780     c080          jauc    start_panim_if_not_ta14
         00005790 00000000! 
     916                    
     917 000057b0           ssths_tab
     918 000057b0 00000000!         .long   anim_trailshoot_1
     919 000057d0 00000000!         .long   anim_trailshoot_2
     920 000057f0 00000000!         .long   anim_trailshoot_3
     921 00005810 00000000!         .long   anim_trailshoot_4
     922 00005830 00000000!         .long   anim_trailshoot_5
     923 00005850 00000000!         .long   anim_trailshoot_6
     924 00005870 00000000!         .long   anim_trailshoot_7
     925 00005890 00000000!         .long   anim_trailshoot_8
     926                    
     927 000058b0           set_turbo_shoot_early_script
     928 000058b0     098f          mmtm    sp,a2
         000058c0     2000  
     929 000058d0     1822          movk    1,a2
     930 000058e0     0d5f          calla   spx_shot1
         000058f0 00000000! 
     931 00005910     09af          mmfm    sp,a2
         00005920     0004  
     932 00005930     09ee          movi    sseths_tab-32,a14
         00005940 00005970' 
     933 00005960     c080          jauc    start_panim_if_not_ta14
         00005970 00000000! 
     934                    
TMS340 COFF Macro Assembler Version 6.10     Wed Apr 21 11:37:21 2021
 Copyright (c) 1985-1991  Texas Instruments Incorporated 

                                                                     PAGE   21

     935 00005990           sseths_tab
     936 00005990 00000000!         .long   anim_tshoot_early_1
     937 000059b0 00000000!         .long   anim_tshoot_early_2
     938 000059d0 00000000!         .long   anim_tshoot_early_3
     939 000059f0 00000000!         .long   anim_tshoot_early_4
     940 00005a10 00000000!         .long   anim_tshoot_early_5
     941 00005a30 00000000!         .long   anim_tshoot_early_6
     942 00005a50 00000000!         .long   anim_tshoot_early_7
     943 00005a70 00000000!         .long   anim_tshoot_early_8
     944                    
     945 00005a90           set_onetime_script
     946 00005a90     098f          mmtm    sp,a0
         00005aa0     8000  
     947 00005ab0     09c0          movi    200,a0
         00005ac0     00c8  
     948 00005ad0     0d5f          calla   RANDPER
         00005ae0 00000000! 
     949 00005b00     c90c          jrnc    sos_rs1
     950 00005b10     0d5f          calla   RANDOM
         00005b20 00000000! 
     951 00005b40     c804          jrc     sos_rs3
     952 00005b50     09ee          movi    soos2tab-32,a14
         00005b60 00005e40' 
     953 00005b80     c007          jruc    sos_rs2
     954 00005b90     09ee  sos_rs3 movi    soos1tab-32,a14
         00005ba0 00005d40' 
     955 00005bc0     c003          jruc    sos_rs2
     956 00005bd0     09ee  sos_rs1 movi    sots_tab-32,a14
         00005be0 00005c40' 
     957 00005c00     0d5f  sos_rs2 calla   start_panim_if_not_ta14
         00005c10 00000000! 
     958 00005c30     09af          mmfm    sp,a0
         00005c40     0001  
     959 00005c50     0960          rets
     960                    
     961 00005c60           sots_tab
     962 00005c60 00000000!         .long   anim_onetime_1
     963 00005c80 00000000!         .long   anim_onetime_2
     964 00005ca0 00000000!         .long   anim_onetime_3
     965 00005cc0 00000000!         .long   anim_onetime_4
     966 00005ce0 00000000!         .long   anim_onetime_5
     967 00005d00 00000000!         .long   anim_onetime_6
     968 00005d20 00000000!         .long   anim_onetime_7
     969 00005d40 00000000!         .long   anim_onetime_8
     970                    
     971 00005d60           soos1tab
     972 00005d60 00000000!         .long   anim_onespinccw_1
     973 00005d80 00000000!         .long   anim_onespinccw_2
     974 00005da0 00000000!         .long   anim_onespinccw_3
     975 00005dc0 00000000!         .long   anim_onespinccw_4
     976 00005de0 00000000!         .long   anim_onespinccw_5
     977 00005e00 00000000!         .long   anim_onespinccw_6
     978 00005e20 00000000!         .long   anim_onespinccw_7
     979 00005e40 00000000!         .long   anim_onespinccw_8
     980                    
TMS340 COFF Macro Assembler Version 6.10     Wed Apr 21 11:37:21 2021
 Copyright (c) 1985-1991  Texas Instruments Incorporated 

                                                                     PAGE   22

     981 00005e60           soos2tab
     982 00005e60 00000000!         .long   anim_onespincw_1
     983 00005e80 00000000!         .long   anim_onespincw_2
     984 00005ea0 00000000!         .long   anim_onespincw_3
     985 00005ec0 00000000!         .long   anim_onespincw_4
     986 00005ee0 00000000!         .long   anim_onespincw_5
     987 00005f00 00000000!         .long   anim_onespincw_6
     988 00005f20 00000000!         .long   anim_onespincw_7
     989 00005f40 00000000!         .long   anim_onespincw_8
     990                    
     991 00005f60           set_faster_onetime_script
     992 00005f60     09ee          movi    sotfs_tab-32,a14
         00005f70 00005fa0' 
     993 00005f90     c080          jauc    start_panim_if_not_ta14
         00005fa0 00000000! 
     994                    
     995 00005fc0           sotfs_tab
     996 00005fc0 00000000!         .long   anim_fonetime_1
     997 00005fe0 00000000!         .long   anim_fonetime_2
     998 00006000 00000000!         .long   anim_fonetime_3
     999 00006020 00000000!         .long   anim_fonetime_4
    1000 00006040 00000000!         .long   anim_fonetime_5
    1001 00006060 00000000!         .long   anim_fonetime_6
    1002 00006080 00000000!         .long   anim_fonetime_7
    1003 000060a0 00000000!         .long   anim_fonetime_8
    1004                    
    1005 000060c0           set_a_fastest_onetime_script
    1006 000060c0     09ee          movi    satffs_tab-32,a14
         000060d0 00006100' 
    1007 000060f0     c080          jauc    start_panim_if_not_ta14
         00006100 00000000! 
    1008                    
    1009 00006120           satffs_tab
    1010 00006120 00000000!         .long   anim_fafonetime_1
    1011 00006140 00000000!         .long   anim_fafonetime_2
    1012 00006160 00000000!         .long   anim_fafonetime_3
    1013 00006180 00000000!         .long   anim_fafonetime_4
    1014 000061a0 00000000!         .long   anim_fafonetime_5
    1015 000061c0 00000000!         .long   anim_fafonetime_6
    1016 000061e0 00000000!         .long   anim_fafonetime_7
    1017 00006200 00000000!         .long   anim_fafonetime_8
    1018                    
    1019 00006220           set_fastest_onetime_script
    1020 00006220     09ee          movi    sotffs_tab-32,a14
         00006230 00006260' 
    1021 00006250     c080          jauc    start_panim_if_not_ta14
         00006260 00000000! 
    1022                    
    1023 00006280           sotffs_tab
    1024 00006280 00000000!         .long   anim_ffonetime_1
    1025 000062a0 00000000!         .long   anim_ffonetime_2
    1026 000062c0 00000000!         .long   anim_ffonetime_3
    1027 000062e0 00000000!         .long   anim_ffonetime_4
    1028 00006300 00000000!         .long   anim_ffonetime_5
    1029 00006320 00000000!         .long   anim_ffonetime_6
TMS340 COFF Macro Assembler Version 6.10     Wed Apr 21 11:37:21 2021
 Copyright (c) 1985-1991  Texas Instruments Incorporated 

                                                                     PAGE   23

    1030 00006340 00000000!         .long   anim_ffonetime_7
    1031 00006360 00000000!         .long   anim_ffonetime_8
    1032                    
    1033 00006380           set_immediate_onetime_script
    1034 00006380     09ee          movi    sotfis_tab-32,a14
         00006390 000063c0' 
    1035 000063b0     c080          jauc    start_panim_if_not_ta14
         000063c0 00000000! 
    1036                    
    1037 000063e0           sotfis_tab
    1038 000063e0 00000000!         .long   anim_fionetime_1
    1039 00006400 00000000!         .long   anim_fionetime_2
    1040 00006420 00000000!         .long   anim_fionetime_3
    1041 00006440 00000000!         .long   anim_fionetime_4
    1042 00006460 00000000!         .long   anim_fionetime_5
    1043 00006480 00000000!         .long   anim_fionetime_6
    1044 000064a0 00000000!         .long   anim_fionetime_7
    1045 000064c0 00000000!         .long   anim_fionetime_8
    1046                    
    1047 000064e0           set_spin_slapshot_script
    1048 000064e0     098f          mmtm    sp,a2
         000064f0     2000  
    1049 00006500     18a2          movk    5,a2
    1050 00006510     0d5f          calla   spx_shot1
         00006520 00000000! 
    1051 00006540     09af          mmfm    sp,a2
         00006550     0004  
    1052 00006560     09ee          movi    sspsp1_tab-32,a14
         00006570 000065a0' 
    1053 00006590     c080          jauc    start_panim_if_not_ta14
         000065a0 00000000! 
    1054 000065c0           sspsp1_tab
    1055 000065c0 00000000!         .long   anim_spin_slapshot_1
    1056 000065e0 00000000!         .long   anim_spin_slapshot_2
    1057 00006600 00000000!         .long   anim_spin_slapshot_3
    1058 00006620 00000000!         .long   anim_spin_slapshot_4
    1059 00006640 00000000!         .long   anim_spin_slapshot_5
    1060 00006660 00000000!         .long   anim_spin_slapshot_6
    1061 00006680 00000000!         .long   anim_spin_slapshot_7
    1062 000066a0 00000000!         .long   anim_spin_slapshot_8
    1063                    
    1064 000066c0           set_spin_backhand_script
    1065 000066c0     098f          mmtm    sp,a2
         000066d0     2000  
    1066 000066e0     18a2          movk    5,a2
    1067 000066f0     0d5f          calla   spx_shot1
         00006700 00000000! 
    1068 00006720     09af          mmfm    sp,a2
         00006730     0004  
    1069 00006740     09ee          movi    ssbhp1_tab-32,a14
         00006750 00006780' 
    1070 00006770     c080          jauc    start_panim_if_not_ta14
         00006780 00000000! 
    1071 000067a0           ssbhp1_tab
    1072 000067a0 00000000!         .long   anim_spin_backhand_1
TMS340 COFF Macro Assembler Version 6.10     Wed Apr 21 11:37:21 2021
 Copyright (c) 1985-1991  Texas Instruments Incorporated 

                                                                     PAGE   24

    1073 000067c0 00000000!         .long   anim_spin_backhand_2
    1074 000067e0 00000000!         .long   anim_spin_backhand_3
    1075 00006800 00000000!         .long   anim_spin_backhand_4
    1076 00006820 00000000!         .long   anim_spin_backhand_5
    1077 00006840 00000000!         .long   anim_spin_backhand_6
    1078 00006860 00000000!         .long   anim_spin_backhand_7
    1079 00006880 00000000!         .long   anim_spin_backhand_8
    1080                    
    1081                    ;set_wraparound_up_script
    1082                    ;       movi    anim_wrap_up,a1
    1083                    ;       jauc    start_panim_if_not
    1084                    ;
    1085                    ;set_wraparound_down_script
    1086                    ;       movi    anim_wrap_down,a1
    1087                    ;       jauc    start_panim_if_not
    1088                    

 No Errors,  No Warnings
