TMS340 COFF Macro Assembler Version 6.10     Wed Apr 21 11:32:16 2021
 Copyright (c) 1985-1991  Texas Instruments Incorporated 

                                                                     PAGE    1

       1                            .MLIB   "HHMACS.LIB"
       2                            .FILE   "HHSELECT.ASM"
       3                            .WIDTH  132
       4                            .OPTION B,D,L,T
       5                            .MNOLIST
       6                    
       7                    *
       8                    *GET THE SYSTEM STUFF
       9                    *
      10                    
      11                            .INCLUDE        "HH.INC"
      12                            .INCLUDE        "HHSTRING.H"
      13                            .INCLUDE        "IMGTBL.GLO"
      14                            .include        "hhselect.e"
      15                            .include        "hhproc.g"
      16                            .include        "hhd.g"
      17                            .include        "hhpall.g"
      18                            .include        "hhutil.g"
      19                            .include        "hhplayer.g"
      20                            .include        "hhgame.g"
      21                            .include        "hhgscr.g"
      22                            .include        "hhmisc.g"
      23                            .include        "hhram.g"
      24                            .include        "hhc.g"
      25                    ;       .include        "hhstable.g"
      26                            .ref    team_data
      27                            .ref    helmet_type_plist
      28                            .include        "hhcontrl.g"
      29                            .include        "hhtables.g"
      30                            .include        "hhcx.g"
      31                            .include        "hhgctrl.g"
      32                            .include        "hhstabl2.g"
      33                            .include        "hhpick.g"
      34                            .include        "hhscr_fn.g"
      35                            .include        "hhscr_ms.g"
      36                            .include        "hhscr_sk.g"
      37                            .include        "hhcontr2.g"
      38                            .include        "hhtext.g"
      39                            .include        "hhpup.g"
      40                            .include        "hhcmos.g"
      41                    
      42                    ; end of include files
      43                    
      44 00000000                   .bss    player_1_turbopal,16*256        ;just don't use a 256 color palette
      45 00001000                   .bss    player_2_turbopal,16*256        ;with these (our size pushes us over)
      46 00002000                   .bss    player_3_turbopal,16*256
      47 00003000                   .bss    player_4_turbopal,16*256
      48                    
      49 00004000                   .bss    player_1_headpal,16*256         ;we can be non 1256
      50 00005000                   .bss    player_2_headpal,16*256         ;and get here
      51 00006000                   .bss    player_3_headpal,16*256
      52 00007000                   .bss    player_4_headpal,16*256
      53 00008000                   .bss    player_5_headpal,16*256
      54 00009000                   .bss    player_6_headpal,16*256
      55 0000a000                   .bss    player_7_headpal,16*256
TMS340 COFF Macro Assembler Version 6.10     Wed Apr 21 11:32:16 2021
 Copyright (c) 1985-1991  Texas Instruments Incorporated 

                                                                     PAGE    2

      56 0000b000                   .bss    player_8_headpal,16*256
      57                    
      58 0000c000                   .bss    player_1_trailpal,16*256                ;we can be non 1256
      59 0000d000                   .bss    player_2_trailpal,16*256                ;and get here
      60 0000e000                   .bss    player_3_trailpal,16*256
      61 0000f000                   .bss    player_4_trailpal,16*256
      62 00010000                   .bss    player_5_trailpal,16*256
      63 00011000                   .bss    player_6_trailpal,16*256
      64 00012000                   .bss    player_7_trailpal,16*256
      65 00013000                   .bss    player_8_trailpal,16*256
      66                    
      67 00014000                   .bss    player_1_redpal,16*256          ;we can be non 1256
      68 00015000                   .bss    player_2_redpal,16*256          ;and get here
      69 00016000                   .bss    player_3_redpal,16*256
      70 00017000                   .bss    player_4_redpal,16*256
      71 00018000                   .bss    player_5_redpal,16*256
      72 00019000                   .bss    player_6_redpal,16*256
      73 0001a000                   .bss    player_7_redpal,16*256
      74 0001b000                   .bss    player_8_redpal,16*256
      75                    
      76 0001c000                   .bss    player_1_headpal_alt,16*256
      77 0001d000                   .bss    player_2_headpal_alt,16*256
      78 0001e000                   .bss    player_5_headpal_alt,16*256
      79 0001f000                   .bss    player_6_headpal_alt,16*256
      80                    
      81 00020000                   .bss    team_1_vidpal,32        ;keep 
      82 00020020                   .bss    team_2_vidpal,32        ;together
      83                    
      84 00000000                   .TEXT
      85 00000000                   .EVEN
      86                    
      87 00000000     1820  atest   movk    1,a0
      88 00000010     0d3f  at12    callr   get_bargraph_data
         00000020     0002  
      89 00000030     1020          inc     a0
      90 00000040     c0fc          jruc    at12
      91                    
      92                    **************************************************************************
      93                    *                                                                        *
      94                    * get_bargraph_data                                                      *
      95                    *       input   a0 = character number                                    *
      96                    *       output  a2 = character data (bytewise CPHS)                      *
      97                    *                S = character's skate rating (1-10)                     *
      98                    *                    (speed+stop+corner) / 2                             *
      99                    *                H = character's shoot rating (1-10)                     *
     100                    *                    (3 x shoot + handle) / 2                            *
     101                    *                P = character's pass  rating (1-10)                     *
     102                    *                    (3 x pass + handle) / 2                             *
     103                    *                C = character's check rating (1-10)                     *
     104                    *                    (3 x check + faceoff) / 2                           *
     105                    *                                                                        *
     106                    **************************************************************************
     107 00000050           get_bargraph_data
     108 00000050     098f          mmtm    sp,a1,a3,a4,a5
         00000060     5c00  
TMS340 COFF Macro Assembler Version 6.10     Wed Apr 21 11:32:16 2021
 Copyright (c) 1985-1991  Texas Instruments Incorporated 

                                                                     PAGE    3

     109 00000070     4c05          move    a0,a5
     110 00000080     24a5          sll     5,a5
     111 00000090     0b25          addi    player_data,a5
         000000a0 00000000! 
     112 000000c0     86a5          move    *a5,a5,L
     113 000000d0     aea1          movb    *a5(TP_SPEED),a1
         000000e0     00e0  
     114 000000f0     aeae          movb    *a5(TP_STOP),a14
         00000100     00e8  
     115 00000110     41c1          add     a14,a1
     116 00000120     aeae          movb    *a5(TP_CORNER),a14
         00000130     00f0  
     117 00000140     41c1          add     a14,a1
     118 00000150     2be1          sra     1,a1
     119 00000160     aea2          movb    *a5(TP_SHOOT),a2
         00000170     00f8  
     120 00000180     4c4e          move    a2,a14
     121 00000190     41c2          add     a14,a2
     122 000001a0     41c2          add     a14,a2
     123 000001b0     aeae          movb    *a5(TP_HANDLE),a14
         000001c0     0110  
     124 000001d0     41c2          add     a14,a2
     125 000001e0     2be2          sra     1,a2
     126 000001f0     aea3          movb    *a5(TP_PASS),a3
         00000200     0100  
     127 00000210     4c6e          move    a3,a14
     128 00000220     41c3          add     a14,a3
     129 00000230     41c3          add     a14,a3
     130 00000240     aeae          movb    *a5(TP_HANDLE),a14
         00000250     0110  
     131 00000260     41c3          add     a14,a3
     132 00000270     2be3          sra     1,a3
     133 00000280     aea4          movb    *a5(TP_CHECK),a4
         00000290     0118  
     134 000002a0     4c8e          move    a4,a14
     135 000002b0     41c4          add     a14,a4
     136 000002c0     41c4          add     a14,a4
     137 000002d0     aeae          movb    *a5(TP_FACEOFF),a14
         000002e0     0108  
     138 000002f0     41c4          add     a14,a4
     139 00000300     2be4          sra     1,a4
     140 00000310     2701          sll     24,a1
     141 00000320     2d01          srl     24,a1
     142 00000330     2702          sll     24,a2
     143 00000340     2e02          srl     16,a2
     144 00000350     2703          sll     24,a3
     145 00000360     2f03          srl     8,a3
     146 00000370     2704          sll     24,a4
     147 00000380     4022          add     a1,a2
     148 00000390     4062          add     a3,a2
     149 000003a0     4082          add     a4,a2
     150 000003b0     09af          mmfm    sp,a1,a3,a4,a5
         000003c0     003a  
     151 000003d0     0960          rets
     152                    
TMS340 COFF Macro Assembler Version 6.10     Wed Apr 21 11:32:16 2021
 Copyright (c) 1985-1991  Texas Instruments Incorporated 

                                                                     PAGE    4

     153 000003e0           set_bench_palettes
     154 000003e0     05a3          move    @team1,a3,W
         000003f0 00000000! 
     155 00000410                   MOD_COL a3                      ;modify a3 based if colorado
     156 00000460     2543          sll     10,a3
     157 00000470     0b23          addi    team_data,a3
         00000480 00000000! 
     158 000004a0     09c4          movi    TD_BENCHP_AWAY,a4
         000004b0     0360  
     159 000004c0     05ae          move    @team1_home,a14,W
         000004d0 00000000! 
     160 000004f0     ca02          jrz     sbp2
     161 00000500     09c4          movi    TD_BENCHP_HOME,a4
         00000510     0380  
     162 00000520     4083  sbp2    add     a4,a3
     163 00000530     866e          move    *a3,a14,L
     164 00000540     078e          move    a14,@teampal1,L
         00000550 00000000! 
     165 00000570     05a3          move    @team2,a3,W
         00000580 00000000! 
     166 000005a0                   MOD_COL a3                      ;modify a3 based if colorado
     167 000005f0     2543          sll     10,a3
     168 00000600     0b23          addi    team_data,a3
         00000610 00000000! 
     169 00000630     09c4          movi    TD_BENCHP_AWAY,a4
         00000640     0360  
     170 00000650     05ae          move    @team2_home,a14,W
         00000660 00000000! 
     171 00000680     ca02          jrz     sbp3
     172 00000690     09c4          movi    TD_BENCHP_HOME,a4
         000006a0     0380  
     173 000006b0     4083  sbp3    add     a4,a3
     174 000006c0     866e          move    *a3,a14,L
     175 000006d0     078e          move    a14,@teampal2,L
         000006e0 00000000! 
     176 00000700     0960          rets
     177                    
     178 00000710           set_video_palettes
     179 00000710     0960          rets
     180                    ;       move    @team1,a3,W
     181                    ;       sll     10,a3
     182                    ;       addi    team_data,a3
     183                    ;       move    @team2,a4,W
     184                    ;       sll     10,a4
     185                    ;       addi    team_data,a4
     186                    ;       move    *a3(TD_VCLIP_1),a1,W
     187                    ;       move    *a4(TD_VCLIP_1),a2,W
     188                    ;       cmp     a1,a2
     189                    ;       jrnz    svp7                    ;a1 and a2 are it
     190                    ;       move    *a3(TD_VCLIP_2),a14,W
     191                    ;       cmp     a14,a2
     192                    ;       jrnz    svp_141                 ;a14 and a2 are it
     193                    ;       move    *a4(TD_VCLIP_2),a0,W
     194                    ;       cmp     a1,a0
     195                    ;       jrnz    svp_02                  ;a1 and a0 are it
TMS340 COFF Macro Assembler Version 6.10     Wed Apr 21 11:32:16 2021
 Copyright (c) 1985-1991  Texas Instruments Incorporated 

                                                                     PAGE    5

     196                    ;       cmp     a14,a0
     197                    ;       jrnz    svp_140         ;a14 and a0 are it
     198                    ;       jruc    svp7                    ;a1 and a2 are it, we will live with match
     199                    ;svp_141        move    a14,a1
     200                    ;       jruc    svp7
     201                    ;svp_02 move    a0,a2
     202                    ;       jruc    svp7
     203                    ;svp_140        move    a14,a1
     204                    ;       move    a0,a2
     205                    ;svp7   sll     5,a1
     206                    ;       sll     5,a2
     207                    ;       addi    vclip_pal_list,a1
     208                    ;       addi    vclip_pal_list,a2
     209                    ;       move    *a1,a1,L
     210                    ;       move    *a2,a2,L
     211                    ;       move    a1,@team_1_vidpal,L
     212                    ;       move    a2,@team_2_vidpal,L
     213                    ;       rets
     214                    ;
     215                    ;vclip_pal_list
     216                    ;       .long   VIDEOSP
     217                    ;       .long   VIDEOGRNP
     218                    ;       .long   VIDEOTRQP
     219                    ;       .long   VIDEOYELP
     220                    ;       .long   VIDEOBLUP
     221                    ;       .long   VIDEOREDP
     222                    ;       .long   VIDEOBRNP
     223                    ;       .long   VIDEOORGP
     224                    ;
     225                    
     226                    **************************************************************************
     227                    *                                                                        *
     228                    * COPY_HEAD_PALS - COPY CONTENTS OF PLAYER 1, 2, 5, AND 6 HEAD PALETTES  *
     229                    *                  TO THEIR ALTERNATE RAM PALETTES                       *
     230                    *                                                                        *
     231                    * PASS:                                                                  *
     232                    * NUTIN'                                                                 *
     233                    * RETURN:                                                                *
     234                    * NUTIN'                                                                 *
     235                    *                                                                        *
     236                    **************************************************************************
     237                    
     238 00000720           COPY_HEAD_PALS
     239 00000720     098f          MMTM    SP,A0,A1
         00000730     c000  
     240                    
     241 00000740     09e0          MOVI    player_1_headpal,A0
         00000750 00004000- 
     242 00000770     09e1          MOVI    player_1_headpal_alt,A1
         00000780 0001c000- 
     243 000007a0     09ce          MOVI    16*256*2/32,A14
         000007b0     0100  
     244 000007c0           CHP_LUPE12
     245 000007c0     9a01          MOVE    *A0+,*A1+,L
     246 000007d0     3c4e          DSJS    A14,CHP_LUPE12
TMS340 COFF Macro Assembler Version 6.10     Wed Apr 21 11:32:16 2021
 Copyright (c) 1985-1991  Texas Instruments Incorporated 

                                                                     PAGE    6

     247                    
     248 000007e0     09e0          MOVI    player_5_headpal,A0
         000007f0 00008000- 
     249 00000810     09e1          MOVI    player_5_headpal_alt,A1
         00000820 0001e000- 
     250 00000840     09ce          MOVI    16*256*2/32,A14
         00000850     0100  
     251 00000860           CHP_LUPE56
     252 00000860     9a01          MOVE    *A0+,*A1+,L
     253 00000870     3c4e          DSJS    A14,CHP_LUPE56
     254                    
     255 00000880     09af          MMFM    SP,A0,A1
         00000890     0003  
     256 000008a0     0960          RETS
     257                    
     258                    **************************************************************************
     259                    *                                                                        *
     260                    * ALLOCATE_ALT_HEAD_PALS                                                 *
     261                    *                                                                        *
     262                    * PASS:                                                                  *
     263                    * NUTIN'                                                                 *
     264                    * RETURN:                                                                *
     265                    * NUTIN'                                                                 *
     266                    *                                                                        *
     267                    **************************************************************************
     268                    
     269 000008b0           ALLOCATE_ALT_HEAD_PALS
     270 000008b0                   PUSH    A0
     271 000008c0     09e0          MOVI    player_1_headpal_alt,A0
         000008d0 0001c000- 
     272 000008f0     0d5f          CALLA   GETFPAL
         00000900 00000000! 
     273 00000920     09e0          MOVI    player_2_headpal_alt,A0
         00000930 0001d000- 
     274 00000950     0d5f          CALLA   GETFPAL
         00000960 00000000! 
     275 00000980     09e0          MOVI    player_5_headpal_alt,A0
         00000990 0001e000- 
     276 000009b0     0d5f          CALLA   GETFPAL
         000009c0 00000000! 
     277 000009e0     09e0          MOVI    player_6_headpal_alt,A0
         000009f0 0001f000- 
     278 00000a10     0d5f          CALLA   GETFPAL
         00000a20 00000000! 
     279 00000a40                   PULLQ   A0
     280 00000a50     0960          RETS
     281                            
     282                    **************************************************************************
     283                    *                                                                        *
     284                    * DEALLOCATE_ALT_HEAD_PALS                                               *
     285                    *                                                                        *
     286                    * PASS:                                                                  *
     287                    * NUTIN'                                                                 *
     288                    * RETURN:                                                                *
     289                    * NUTIN'                                                                 *
TMS340 COFF Macro Assembler Version 6.10     Wed Apr 21 11:32:16 2021
 Copyright (c) 1985-1991  Texas Instruments Incorporated 

                                                                     PAGE    7

     290                    *                                                                        *
     291                    **************************************************************************
     292                    
     293 00000a60           DEALLOCATE_ALT_HEAD_PALS
     294 00000a60                   PUSH    A0
     295 00000a70     09e0          MOVI    player_1_headpal_alt,A0
         00000a80 0001c000- 
     296 00000aa0     0d5f          CALLA   FINDPAL
         00000ab0 00000000! 
     297 00000ad0     0d5f          CALLA   FREEPAL
         00000ae0 00000000! 
     298 00000b00     09e0          MOVI    player_2_headpal_alt,A0
         00000b10 0001d000- 
     299 00000b30     0d5f          CALLA   FINDPAL
         00000b40 00000000! 
     300 00000b60     0d5f          CALLA   FREEPAL
         00000b70 00000000! 
     301 00000b90     09e0          MOVI    player_5_headpal_alt,A0
         00000ba0 0001e000- 
     302 00000bc0     0d5f          CALLA   FINDPAL
         00000bd0 00000000! 
     303 00000bf0     0d5f          CALLA   FREEPAL
         00000c00 00000000! 
     304 00000c20     09e0          MOVI    player_6_headpal_alt,A0
         00000c30 0001f000- 
     305 00000c50     0d5f          CALLA   FINDPAL
         00000c60 00000000! 
     306 00000c80     0d5f          CALLA   FREEPAL
         00000c90 00000000! 
     307 00000cb0                   PULLQ   A0
     308 00000cc0     0960          RETS
     309                    
     310                    **************************************************************************
     311                    *                                                                        *
     312                    * find_special_character                                                 *
     313                    *       input   match_b_* = initial/birthday data to match               *
     314                    *       output  a0 = -1 - no special character matched                   *
     315                    *               a0 > 0  = special POF_CHARACTER matched                  *
     316                    *                                                                        *
     317                    **************************************************************************
     318 00000cd0           find_special_character
     319 00000cd0     098f          mmtm    sp,a1,a2,a3,a4,a5,a6,a7
         00000ce0     7f00  
     320 00000cf0     19c0          MOVK    ADJTOURMODE,A0
     321 00000d00     0d5f          CALLA   GET_ADJ                         ;SET TOURNAMENT MODE
         00000d10 00000000! 
     322 00000d30     cb2e          jrnz    fsc_n9
     323 00000d40     09e6          movi    player_data+32,a6
         00000d50 00000020! 
     324 00000d70     5600          clr     a0
     325 00000d80     09ee          movi    match_b_initial1,a14
         00000d90 00000000! 
     326 00000db0     95c1          move    *a14+,a1,W
     327 00000dc0     95c2          move    *a14+,a2,W
     328 00000dd0     95c3          move    *a14+,a3,W
TMS340 COFF Macro Assembler Version 6.10     Wed Apr 21 11:32:16 2021
 Copyright (c) 1985-1991  Texas Instruments Incorporated 

                                                                     PAGE    8

     329 00000de0     95c4          move    *a14+,a4,W
     330 00000df0     95c5          move    *a14+,a5,W
     331 00000e00     96c7  fsc_5   move    *a6+,a7,L
     332 00000e10     ca20          jrz     fsc_n9
     333 00000e20     1020          inc     a0
     334 00000e30     8eee          movb    *a7,a14
     335 00000e40     49c1          cmp     a14,a1
     336 00000e50     cbfa          jrnz    fsc_5
     337 00000e60     1107          addk    8,a7
     338 00000e70     8eee          movb    *a7,a14
     339 00000e80     49c2          cmp     a14,a2
     340 00000e90     cbf6          jrnz    fsc_5
     341 00000ea0     1107          addk    8,a7
     342 00000eb0     8eee          movb    *a7,a14
     343 00000ec0     49c3          cmp     a14,a3
     344 00000ed0     cbf2          jrnz    fsc_5
     345 00000ee0     1107          addk    8,a7
     346 00000ef0     8eee          movb    *a7,a14
     347 00000f00     49c4          cmp     a14,a4
     348 00000f10     cbee          jrnz    fsc_5
     349 00000f20     1107          addk    8,a7
     350 00000f30     8eee          movb    *a7,a14
     351 00000f40     49c5          cmp     a14,a5
     352 00000f50     cbea          jrnz    fsc_5
     353                    
     354 00000f60     098f          mmtm    sp,a0
         00000f70     8000  
     355 00000f80     09c0          movi    AUD_SECRET_CHAR,a0
         00000f90     0047  
     356 00000fa0     0d5f          calla   AUD1
         00000fb0 00000000! 
     357 00000fd0     09af          mmfm    sp,a0
         00000fe0     0001  
     358                    
     359 00000ff0     09af          mmfm    sp,a1,a2,a3,a4,a5,a6,a7
         00001000     00fe  
     360 00001010     0960          rets
     361 00001020     5600  fsc_n9  clr     a0
     362 00001030     1420          dec     a0
     363 00001040     09af          mmfm    sp,a1,a2,a3,a4,a5,a6,a7
         00001050     00fe  
     364 00001060     0960          rets
     365                    
     366 00001070           create_players          ;creates all players in the game
     367 00001070     0d3f          callr   create_teams
         00001080     003e  
     368 00001090     09e1          movi    panim_list1,a1
         000010a0 00000000! 
     369                    
     370 000010c0     1904          movk    8,a4
     371 000010d0     1820          movk    1,a0
     372 000010e0     0b40  cppo3   cmpi    3,a0
         000010f0     fffc  
     373 00001100     ca0b          jrz     cppo2
     374 00001110     0b40          cmpi    7,a0
TMS340 COFF Macro Assembler Version 6.10     Wed Apr 21 11:32:16 2021
 Copyright (c) 1985-1991  Texas Instruments Incorporated 

                                                                     PAGE    9

         00001120     fff8  
     375 00001130     ca08          jrz     cppo2
     376 00001140                   GBLOCK  a0,a6
     377 00001190     b6c8          move    *a6(POF_OBJECT),a8,L
         000011a0     0280  
     378 000011b0     9301          move    a8,*a1+,L
     379 000011c0     1020  cppo2   inc     a0
     380 000011d0     3e04          dsjs    a4,cppo3
     381 000011e0     5600          clr     a0
     382 000011f0     9201          move    a0,*a1+,L
     383 00001200     09e0          movi    panim_list2,a0
         00001210 00000000! 
     384 00001230     9201          move    a0,*a1+,L
     385 00001240     1904          movk    8,a4
     386 00001250     1900          movk    8,a0
     387 00001260     0b40  appo3   cmpi    3,a0
         00001270     fffc  
     388 00001280     ca0b          jrz     appo2
     389 00001290     0b40          cmpi    7,a0
         000012a0     fff8  
     390 000012b0     ca08          jrz     appo2
     391 000012c0                   GBLOCK  a0,a6
     392 00001310     b6c8          move    *a6(POF_OBJECT),a8,L
         00001320     0280  
     393 00001330     9301          move    a8,*a1+,L
     394 00001340     1420  appo2   dec     a0
     395 00001350     3e04          dsjs    a4,appo3
     396 00001360     5600          clr     a0
     397 00001370     9201          move    a0,*a1+,L
     398 00001380     09e0          movi    panim_list1,a0
         00001390 00000000! 
     399 000013b0     9201          move    a0,*a1+,L
     400 000013c0     1820          movk    1,a0
     401 000013d0     0580          move    a0,@panim_ok,W
         000013e0 00000000! 
     402 00001400     09e0          movi    panim_list1,a0
         00001410 00000000! 
     403 00001430     0780          move    a0,@anipllist,L
         00001440 00000000! 
     404 00001460     0960          rets
     405                    
     406                    **************************************************************************
     407                    *                                                                        *
     408                    * create_teams                                                           *
     409                    *       input   @team1 = team 1                                          *
     410                    *               @team2 = team 2                                          *
     411                    *                                                                        *
     412                    **************************************************************************
     413 00001470           create_teams
     414 00001470     0d5f          CALLA   fix_curplyrs
         00001480 00000000! 
     415 000014a0     0d3f          callr   set_video_palettes
         000014b0     ff25  
     416 000014c0     0d3f          callr   set_bench_palettes
         000014d0     fef0  
TMS340 COFF Macro Assembler Version 6.10     Wed Apr 21 11:32:16 2021
 Copyright (c) 1985-1991  Texas Instruments Incorporated 

                                                                     PAGE   10

     417 000014e0     05a2          move    @team1,a2,W
         000014f0 00000000! 
     418 00001510     05a3          move    @team1_home,a3,W
         00001520 00000000! 
     419 00001540     56a5          clr     a5
     420 00001550     05a6          MOVE    @TEAM1_SWAP,A6,W
         00001560 00000000! 
     421 00001580     0d3f          callr   create_team
         00001590     000d  
     422 000015a0     05a2          move    @team2,a2,W
         000015b0 00000000! 
     423 000015d0     05a3          move    @team2_home,a3,W
         000015e0 00000000! 
     424 00001600     1825          movk    1,a5
     425 00001610     05a6          MOVE    @TEAM2_SWAP,A6,W
         00001620 00000000! 
     426 00001640     0d3f          callr   create_team
         00001650     0001  
     427                    ;       jauc    fix_curplyrs
     428 00001660     0960          RETS
     429                    
     430                    **************************************************************************
     431                    *                                                                        *
     432                    * create_team                                                            *
     433                    *       input   a2 = team_#                                              *
     434                    *               a3 = 0 - home, 1 - away                                  *
     435                    *               a5 = 0 - left side, 1 - right side                       *
     436                    *               A6 = PLAYER SWAP INDEX                                   *
     437                    *                                                                        *
     438                    **************************************************************************
     439 00001670           create_team
     440 00001670     098f          mmtm    sp,a0,a1,a4,A7
         00001680     c900  
     441 00001690     4c40          move    a2,a0
     442 000016a0     0d5f          calla   get_teams_goalie
         000016b0 00003950' 
     443 000016d0     098f          mmtm    sp,a0
         000016e0     8000  
     444 000016f0     4c44          move    a2,a4
     445 00001700     2544          sll     10,a4
     446 00001710     0b24          addi    team_data,a4
         00001720 00000000! 
     447 00001740     b684          move    *a4(64),a4,L            ;PLAYER LIST TABLE
         00001750     0040  
     448                    
     449 00001760     4c80          MOVE    A4,A0
     450 00001770     56e7          CLR     A7                      ;ZERO NUMBER PLAYERS ON TEAM
     451 00001780           CT_PLAYER_COUNT
     452 00001780     940e          MOVE    *A0+,A14,W
     453 00001790     ca02          JRZ     CT_GET_SWAP_TABLE       ;BR=END OF PLAYER LIST
     454 000017a0     1027          INC     A7                      ;ONE MORE PLAYER
     455 000017b0     c0fc          JRUC    CT_PLAYER_COUNT
     456 000017c0           CT_GET_SWAP_TABLE
     457 000017c0     1447          SUBK    2,A7                    ;OFFSET MINIMUM NUMBER OF PLAYERS (2)
     458                            .if     DEBUG
TMS340 COFF Macro Assembler Version 6.10     Wed Apr 21 11:32:16 2021
 Copyright (c) 1985-1991  Texas Instruments Incorporated 

                                                                     PAGE   11

     459                            LOCKON  N
     460                            .endif
     461 000017d0     24a7          SLL     5,A7
     462 000017e0     0b27          ADDI    SWAP_TABLES_TABLE,A7,L
         000017f0 00000000! 
     463 00001810     86e7          MOVE    *A7,A7,L                ;GET SWAP TABLE
     464 00001820     1207          ADDK    010H,A7                 ;SKIP NUMBER OF COMBOS
     465 00001830     24a6          SLL     5,A6
     466 00001840     40c7          ADD     A6,A7
     467                    
     468 00001850     4ca0          move    a5,a0
     469 00001860     2440          sll     2,a0
     470 00001870     1020          inc     a0                      ;first player on team
     471                    ;       move    *a4+,a1,W               ;player number
     472                    
     473 00001880     94ee          MOVE    *A7+,A14,W              ;GET PLAYER 1(5) PLAYER LIST OFFSET
     474 00001890     4c86          MOVE    A4,A6
     475 000018a0     41c6          ADD     A14,A6
     476 000018b0     84c1          MOVE    *A6,A1,W                ;player number
     477                    
     478 000018c0     0d3f          callr   create_player
         000018d0     000e  
     479 000018e0     1020          inc     a0
     480                    ;       move    *a4+,a1,W
     481                    
     482 000018f0     94ee          MOVE    *A7+,A14,W              ;GET PLAYER 2(6) PLAYER LIST OFFSET
     483 00001900     41c4          ADD     A14,A4
     484 00001910     8481          MOVE    *A4,A1,W                ;player number
     485                    
     486 00001920     0d3f          callr   create_player
         00001930     0008  
     487 00001940     1040          addk    2,a0
     488 00001950     09af          mmfm    sp,a1
         00001960     0002  
     489 00001970     0d3f          callr   create_player
         00001980     0003  
     490 00001990     09af          mmfm    sp,a0,a1,a4,A7
         000019a0     0093  
     491 000019b0     0960          rets
     492                    
     493                    **************************************************************************
     494                    *                                                                        *
     495                    * create_player                                                          *
     496                    *       input   a0  = number of player to create (1-8)                   *
     497                    *               a1  = player # (individual)                              *
     498                    *               a2  = team # (palette)                                   *
     499                    *               a3  = 1 - home, 0 - away                                 *
     500                    *                                                                        *
     501                    **************************************************************************
     502 000019c0           create_player
     503 000019c0     098f          mmtm    sp,a0,a1,a2,a3,a4,a6,a7,a8,a9,a10,a11           ;since we seldom do this
         000019d0     fbf0  
     504 000019e0                   GBLOCK  a0,a6
     505 00001a30     ac06          movb    a0,*a6(POF_NUMBER)
         00001a40     0000  
TMS340 COFF Macro Assembler Version 6.10     Wed Apr 21 11:32:16 2021
 Copyright (c) 1985-1991  Texas Instruments Incorporated 

                                                                     PAGE   12

     506                    
     507 00001a50     b4ce          MOVE    *A6(POF_LOCKED_CHAR),A14,W
         00001a60     0c40  
     508 00001a70     ca01          JRZ     CP_SET_CHAR                             ;BR=NO SPECIAL CHARACTER
     509 00001a80     4dc1          MOVE    A14,A1
     510 00001a90           CP_SET_CHAR
     511 00001a90     b026          move    a1,*a6(POF_CHARACTER),W
         00001aa0     0070  
     512 00001ab0     b046          move    a2,*a6(POF_TEAM),W
         00001ac0     0080  
     513 00001ad0     b066          move    a3,*a6(POF_HOME),W
         00001ae0     0090  
     514 00001af0     4c0b          move    a0,a11
     515 00001b00     250b          sll     8,a11
     516 00001b10     0b2b          addi    cp_table-256,a11
         00001b20 00001ac0' 
     517 00001b40     976a          move    *a11+,a10,L
     518 00001b50     092a          call    a10
     519                    
     520                            .if     BILL & 1
     521                            .ref    ARROW_INIT
     522                            PUSH    A8
     523                            MOVI    ARROW_INIT,B0
     524                            CALLA   EASYMAKE
     525                            MOVE    A8,A0
     526                            PULLQ   A8
     527                            MOVE    *A8(OPART1),A8,L
     528                            MOVE    A8,*A0(ODATA),L
     529                            .endif
     530                    
     531 00001b60     0d5f          calla   create_mini_bar
         00001b70 00000000! 
     532 00001b90     09af          mmfm    sp,a0,a1,a2,a3,a4,a6,a7,a8,a9,a10,a11
         00001ba0     0fdf  
     533 00001bb0     0960          rets
     534                    
     535 00001bc0           cp_table
     536 00001bc0 00004560'         .long   regular_player,PID_PLAYER_1,player1_init,player1_shadow_init,arrow_1_init,0,0,0
     537 00001cc0 00004560'         .long   regular_player,PID_PLAYER_2,player2_init,player2_shadow_init,arrow_2_init,0,0,0
     538 00001dc0 00004560'         .long   regular_player,PID_PLAYER_3,player3_init,player3_shadow_init,arrow_2_init,0,0,0
     539 00001ec0 000039d0'         .long   goalie_player,PID_PLAYER_4,player4_init,player4_shadow_init,0,0,0,0
     540 00001fc0 00004560'         .long   regular_player,PID_PLAYER_5,player5_init,player5_shadow_init,arrow_3_init,0,0,0
     541 000020c0 00004560'         .long   regular_player,PID_PLAYER_6,player6_init,player6_shadow_init,arrow_4_init,0,0,0
     542 000021c0 00004560'         .long   regular_player,PID_PLAYER_7,player7_init,player7_shadow_init,arrow_4_init,0,0,0
     543 000022c0 000039d0'         .long   goalie_player,PID_PLAYER_8,player8_init,player8_shadow_init,0,0,0,0
     544                    
     545 000023c0           cp2p_table
     546 000023c0 00004560'         .long   regular_player,PID_PLAYER_1,player1_init,player1_shadow_init,arrow_1_init,0,0,0
     547 000024c0 00004560'         .long   regular_player,PID_PLAYER_2,player2_init,player2_shadow_init,arrow_3alt_init,0,0,0
     548 000025c0 00004560'         .long   regular_player,PID_PLAYER_3,player3_init,player3_shadow_init,arrow_3alt_init,0,0,0
     549 000026c0 000039d0'         .long   goalie_player,PID_PLAYER_4,player4_init,player4_shadow_init,0,0,0,0
     550 000027c0 00004560'         .long   regular_player,PID_PLAYER_5,player5_init,player5_shadow_init,arrow_4alt_init,0,0,0
     551 000028c0 00004560'         .long   regular_player,PID_PLAYER_6,player6_init,player6_shadow_init,arrow_2alt_init,0,0,0
     552 000029c0 00004560'         .long   regular_player,PID_PLAYER_7,player7_init,player7_shadow_init,arrow_4alt_init,0,0,0
     553 00002ac0 000039d0'         .long   goalie_player,PID_PLAYER_8,player8_init,player8_shadow_init,0,0,0,0
TMS340 COFF Macro Assembler Version 6.10     Wed Apr 21 11:32:16 2021
 Copyright (c) 1985-1991  Texas Instruments Incorporated 

                                                                     PAGE   13

     554                    
     555 00002bc0           cp_extra_drone_table
     556 00002bc0 00004560'         .long   regular_player,PID_PLAYER_4,player4p_init,player4p_shadow_init,arrow_3_init,0,0,0
     557 00002cc0 00004560'         .long   regular_player,PID_PLAYER_8,player8p_init,player8p_shadow_init,arrow_3_init,0,0,0
     558                    
     559 00002dc0           cp_back_to_goalie_table
     560 00002dc0 000039d0'         .long   goalie_player,PID_PLAYER_4,player4_init,player4_shadow_init,0,0,0,0
     561 00002ec0 000039d0'         .long   goalie_player,PID_PLAYER_8,player8_init,player8_shadow_init,0,0,0,0
     562                    
     563 00002fc0           goalie_to_drone         ;a0 = 4 or 8 for player number
     564 00002fc0     5642          clr     a2
     565 00002fd0                   GBLOCK  a0,a6
     566 00003020     b6c8          move    *a6(POF_OBJECT),a8,L    ;goalie object
         00003030     0280  
     567 00003040     098f          mmtm    sp,a8
         00003050     0080  
     568 00003060     0d5f          calla   DELETE_OBJ
         00003070 00000000! 
     569 00003090     b246          move    a2,*a6(POF_OBJECT),L
         000030a0     0280  
     570 000030b0     b6c8          move    *a6(POF_SHADOW),a8,L
         000030c0     02a0  
     571 000030d0     0d5f          calla   DELETE_OBJ
         000030e0 00000000! 
     572 00003100     b246          move    a2,*a6(POF_SHADOW),L
         00003110     02a0  
     573 00003120     b6c8          move    *a6(POF_ARROW),a8,L
         00003130     02e0  
     574 00003140     ca05          jrz     gtd1
     575 00003150     0d5f          calla   DELETE_OBJ
         00003160 00000000! 
     576 00003180     b246          move    a2,*a6(POF_ARROW),L
         00003190     02e0  
     577 000031a0     b6c8  gtd1    move    *a6(POF_ARROW_CPU),a8,L
         000031b0     0360  
     578 000031c0     ca05          jrz     gtd2
     579 000031d0     0d5f          calla   DELETE_OBJ
         000031e0 00000000! 
     580 00003200     b246          move    a2,*a6(POF_ARROW_CPU),L
         00003210     0360  
     581 00003220     aecb  gtd2    movb    *a6(POF_NUMBER),a11
         00003230     0000  
     582 00003240     24cb          sll     6,a11
     583 00003250     0b2b          addi    cp_extra_drone_table-256,a11
         00003260 00002ac0' 
     584 00003280     09c0          movi    s_mark_messier,a0
         00003290     0001  
     585 000032a0     b006          move    a0,*a6(POF_CHARACTER),W
         000032b0     0070  
     586 000032c0     976a          move    *a11+,a10,L
     587 000032d0     092a          call    a10
     588 000032e0     b6c8          move    *a6(POF_OBJECT),a8,L
         000032f0     0280  
     589 00003300     09af          mmfm    sp,a9
         00003310     0200  
TMS340 COFF Macro Assembler Version 6.10     Wed Apr 21 11:32:16 2021
 Copyright (c) 1985-1991  Texas Instruments Incorporated 

                                                                     PAGE   14

     590 00003320     1a00          movk    16,a0
     591 00003330     09e1          movi    panim_list1,a1
         00003340 00000000! 
     592 00003360     862e  ppl3    move    *a1,a14,L
     593 00003370     49c9          cmp     a14,a9
     594 00003380     cb01          jrnz    ppl2
     595 00003390     8301          move    a8,*a1,L
     596 000033a0     1001  ppl2    addk    32,a1
     597 000033b0     3cc0          dsjs    a0,ppl3
     598 000033c0     0960          rets
     599                    
     600 000033d0           reset_all_pulled_goalies
     601 000033d0     098f          mmtm    sp,a0,a1,a2,a6,a10,a11
         000033e0     e230  
     602 000033f0     1880          movk    4,a0
     603 00003400     05ae          move    @PLAYER_4_BLOCK+POF_FLAGS,a14,W
         00003410 00000200! 
     604 00003430     1fae          btst    B_PF_GOALIE,a14
     605 00003440     cb02          jrnz    rap1
     606 00003450     0d3f          callr   drone_to_goalie
         00003460     000b  
     607 00003470     1900  rap1    movk    8,a0
     608 00003480     05ae          move    @PLAYER_8_BLOCK+POF_FLAGS,a14,W
         00003490 00000200! 
     609 000034b0     1fae          btst    B_PF_GOALIE,a14
     610 000034c0     cb02          jrnz    rap2
     611 000034d0     0d3f          callr   drone_to_goalie
         000034e0     0003  
     612 000034f0     09af  rap2    mmfm    sp,a0,a1,a2,a6,a10,a11
         00003500     0c47  
     613 00003510     0960          rets
     614                    
     615 00003520           drone_to_goalie         ;a0 = 4 or 8 for player number
     616 00003520     5642          clr     a2
     617 00003530                   GBLOCK  a0,a6
     618 00003580     b6c8          move    *a6(POF_OBJECT),a8,L    ;goalie object
         00003590     0280  
     619 000035a0     098f          mmtm    sp,a8
         000035b0     0080  
     620 000035c0     0d5f          calla   DELETE_OBJ
         000035d0 00000000! 
     621 000035f0     b246          move    a2,*a6(POF_OBJECT),L
         00003600     0280  
     622 00003610     b6c8          move    *a6(POF_SHADOW),a8,L
         00003620     02a0  
     623 00003630     0d5f          calla   DELETE_OBJ
         00003640 00000000! 
     624 00003660     b246          move    a2,*a6(POF_SHADOW),L
         00003670     02a0  
     625 00003680     b6c8          move    *a6(POF_ARROW),a8,L
         00003690     02e0  
     626 000036a0     ca05          jrz     dtg1
     627 000036b0     0d5f          calla   DELETE_OBJ
         000036c0 00000000! 
     628 000036e0     b246          move    a2,*a6(POF_ARROW),L
TMS340 COFF Macro Assembler Version 6.10     Wed Apr 21 11:32:16 2021
 Copyright (c) 1985-1991  Texas Instruments Incorporated 

                                                                     PAGE   15

         000036f0     02e0  
     629 00003700     b6c8  dtg1    move    *a6(POF_ARROW_CPU),a8,L
         00003710     0360  
     630 00003720     ca05          jrz     dtg2
     631 00003730     0d5f          calla   DELETE_OBJ
         00003740 00000000! 
     632 00003760     b246          move    a2,*a6(POF_ARROW_CPU),L
         00003770     0360  
     633 00003780     aecb  dtg2    movb    *a6(POF_NUMBER),a11
         00003790     0000  
     634 000037a0     24cb          sll     6,a11
     635 000037b0     0b2b          addi    cp_back_to_goalie_table-256,a11
         000037c0 00002cc0' 
     636 000037e0     b4c0          move    *a6(POF_TEAM),a0,W
         000037f0     0080  
     637 00003800     0d3f          callr   get_teams_goalie
         00003810     0013  
     638 00003820     b006          move    a0,*a6(POF_CHARACTER),W
         00003830     0070  
     639 00003840     976a          move    *a11+,a10,L
     640 00003850     092a          call    a10
     641 00003860     b6c8          move    *a6(POF_OBJECT),a8,L
         00003870     0280  
     642 00003880     09af          mmfm    sp,a9
         00003890     0200  
     643 000038a0     1a00          movk    16,a0
     644 000038b0     09e1          movi    panim_list1,a1
         000038c0 00000000! 
     645 000038e0     862e  plp3    move    *a1,a14,L
     646 000038f0     49c9          cmp     a14,a9
     647 00003900     cb01          jrnz    plp2
     648 00003910     8301          move    a8,*a1,L
     649 00003920     1001  plp2    addk    32,a1
     650 00003930     3cc0          dsjs    a0,plp3
     651 00003940     0960          rets
     652                    
     653                    **************************************************************************
     654                    *                                                                        *
     655                    * get_teams_goalie                                                       *
     656                    *       input   a0 = team number (1-26)                                  *
     657                    *       output  a0 = character number for goalie                         *
     658                    *                                                                        *
     659                    **************************************************************************
     660 00003950           get_teams_goalie
     661 00003950     2540          sll     10,a0
     662 00003960     0b20          addi    team_data,a0
         00003970 00000000! 
     663 00003990     b600          move    *a0(0220h),a0,L
         000039a0     0220  
     664 000039b0     8400          move    *a0,a0,W
     665 000039c0     0960          rets
     666                    
     667 000039d0           goalie_player
     668 000039d0     1820          movk    1,a0
     669 000039e0     ac06          movb    a0,*a6(POF_DIRECTION)
TMS340 COFF Macro Assembler Version 6.10     Wed Apr 21 11:32:16 2021
 Copyright (c) 1985-1991  Texas Instruments Incorporated 

                                                                     PAGE   16

         000039f0     0390  
     670                    
     671 00003a00     09c0          MOVI    M_PF_CONTROL|M_PF_GOALIE,A0
         00003a10     0006  
     672 00003a20     b206          MOVE    A0,*A6(POF_FLAGS),L
         00003a30     0200  
     673                    
     674 00003a40     9762          move    *a11+,A2,L
     675 00003a50     976e          move    *a11+,a14,L
     676 00003a60     4fc0          move    a14,b0
     677 00003a70     0d5f          calla   EASYMAKE
         00003a80 00000000! 
     678 00003aa0     09e1          movi    AA53F03,a1
         00003ab0 00000000! 
     679 00003ad0     b504          move    *a8(OCTRL),a4,W
         00003ae0     01f0  
     680 00003af0     0d5f          calla   ANI
         00003b00 00000000! 
     681 00003b20     0d5f          CALLA   CLR_ODATA
         00003b30 00000000! 
     682 00003b50     b306          move    a8,*a6(POF_OBJECT),L
         00003b60     0280  
     683 00003b70     b2c8          move    a6,*a8(ODT_PBK),L
         00003b80     0530  
     684 00003b90     09ce          MOVI    M_PUCKCHECK,A14
         00003ba0     0040  
     685 00003bb0     b1c8          MOVE    A14,*A8(ODT_GFLAGS),W           ;SET PUCK CHECKING ON
         00003bc0     0630  
     686 00003bd0     09ce          MOVI    GSTAND_COLLRANGE,A14
         00003be0     0028  
     687 00003bf0     b1c6          MOVE    A14,*A6(POF_D_COLL),W           ;SET STANDING COLLISION
         00003c00     0690  
     688 00003c10     5600          clr     a0
     689 00003c20     ac06          movb    a0,*a6(POF_BDIRECTION)
         00003c30     03d0  
     690 00003c40     4c41          MOVE    A2,A1
     691 00003c50     aeca          movb    *a6(POF_NUMBER),a10
         00003c60     0000  
     692 00003c70     09e7          movi    control_goalie,a7
         00003c80 00000000! 
     693 00003ca0     0d5f          calla   KILL_AND_GETPPRC
         00003cb0 00000000! 
     694 00003cd0     b4c1          MOVE    *A6(POF_TEAM),A1,W
         00003ce0     0080  
     695 00003cf0     0b41          cmpi    26,a1
         00003d00     ffe5  
     696 00003d10     c202          jrls    nonrt1
     697 00003d20     0d3f          callr   find_a1_real_team
         00003d30     01a8  
     698 00003d40           nonrt1  MOD_COL a1                      ;modify a1 based if colorado
     699 00003d90     2541          SLL     10,A1
     700 00003da0     0b21          ADDI    team_data,A1
         00003db0 00000000! 
     701 00003dd0     b620          MOVE    *A1(0A0H),A0,L                  ;visitor PAL
         00003de0     00a0  
TMS340 COFF Macro Assembler Version 6.10     Wed Apr 21 11:32:16 2021
 Copyright (c) 1985-1991  Texas Instruments Incorporated 

                                                                     PAGE   17

     702 00003df0     b4ce          MOVE    *A6(POF_HOME),A14,W
         00003e00     0090  
     703 00003e10     ca02          JRZ     GP_PAL
     704 00003e20     b620          MOVE    *A1(0E0H),A0,L                  ;home PAL
         00003e30     00e0  
     705 00003e40           GP_PAL
     706 00003e40     b206          MOVE    A0,*A6(POF_NORMALPAL),L
         00003e50     0240  
     707 00003e60     0d5f          CALLA   CHANGE_PAL                      ;CHANGE UNIFORM PALETTE, BASED ON TEAM
         00003e70 00000000! 
     708                    
     709 00003e90     b4c2          MOVE    *A6(POF_PUP_FLAGS),A2,W
         00003ea0     0c50  
     710 00003eb0     05ae          MOVE    @DIPSWITCH,A14,W
         00003ec0 01860020  
     711 00003ee0     1e8e          BTST    11,A14
     712 00003ef0     cb0a          JRNZ    GP_GET_HEAD_SCALE_TABLE         ;BR=NORMAL
     713                    
     714 00003f00     4c4e          MOVE    A2,A14
     715 00003f10     0b8e          ANDI    M_PUP_HEADS,A14
         00003f20 ffffffe0  
     716 00003f40     cb05          JRNZ    GP_GET_HEAD_SCALE_TABLE         ;BR=HEAD SET
     717 00003f50     0ba2          ORI     M_PUP_BIGHEAD,A2                ;FORCE BIGHEAD
         00003f60 00000001  
     718 00003f80     b046          MOVE    A2,*A6(POF_PUP_FLAGS),W
         00003f90     0c50  
     719                    
     720 00003fa0           GP_GET_HEAD_SCALE_TABLE
     721 00003fa0     0b82          ANDI    M_PUP_HEADS,A2
         00003fb0 ffffffe0  
     722 00003fd0     ca04          JRZ     GP_ADD_TABLE                    ;BR=NO POWERUP
     723 00003fe0     6a42          LMO     A2,A2
     724 00003ff0     1402          SUBK    32,A2
     725 00004000     0382          ABS     A2
     726 00004010     24a2          SLL     5,A2
     727 00004020           GP_ADD_TABLE
     728 00004020     0b22          ADDI    HEAD_SCALES_TABLE,A2
         00004030 000071b0' 
     729 00004050     b4ce          move    *a6(POF_CHARACTER),a14,W
         00004060     0070  
     730 00004070     24ae          sll     5,a14
     731 00004080     0b2e          addi    player_data,a14
         00004090 00000000! 
     732 000040b0     87ce          move    *a14,a14,L
     733 000040c0     b7ce          move    *a14(TP_HELMET_OFF),a14,L
         000040d0     0060  
     734 000040e0     ca03          jrz     fgzb1
     735 000040f0     09e2          MOVI    HEAD_ASPECT_SCALES_TABLE,A2
         00004100 00007270' 
     736 00004120     8642  fgzb1   MOVE    *A2,A2,L
     737 00004130     09f0          movi    head_init,b0
         00004140 00007330' 
     738 00004160     0d5f          calla   EASYMAKE
         00004170 00000000! 
     739 00004190     b248          MOVE    A2,*A8(OSCTAB),L
TMS340 COFF Macro Assembler Version 6.10     Wed Apr 21 11:32:16 2021
 Copyright (c) 1985-1991  Texas Instruments Incorporated 

                                                                     PAGE   18

         000041a0     0470  
     740 000041b0     b6c9          move    *a6(POF_OBJECT),a9,L
         000041c0     0280  
     741 000041d0     b329          move    a9,*a9(OPART1),L                ;
         000041e0     00a0  
     742 000041f0     b328          move    a9,*a8(OPART1),L                ; make the head part 2 of multiparter
         00004200     00a0  
     743 00004210     b309          move    a8,*a9(OPARTS),L                ;
         00004220     00c0  
     744 00004230     0d5f          calla   start_head_script
         00004240 00000000! 
     745 00004260     0d3f          callr   goalie_head_scale_fix
         00004270     001d  
     746 00004280     976e          move    *a11+,a14,L
     747 00004290     4fc0          move    a14,b0
     748 000042a0     0d5f          calla   EASYMAKE
         000042b0 00000000! 
     749 000042d0     b306          move    a8,*a6(POF_SHADOW),L
         000042e0     02a0  
     750 000042f0     5600          CLR     A0                              ;STAND
     751 00004300     b206          move    a0,*a6(POF_ARROW),L
         00004310     02e0  
     752 00004320     b206          move    a0,*a6(POF_ARROW_CPU),L
         00004330     0360  
     753 00004340     b006          move    a0,*a6(POF_MODE),W
         00004350     0210  
     754 00004360     b4c0          move    *a6(POF_TEAM),a0,W
         00004370     0080  
     755 00004380     b4c9          move    *a6(POF_CHARACTER),a9,W
         00004390     0070  
     756 000043a0     24a9          sll     5,a9
     757 000043b0     0b29          addi    player_data,a9
         000043c0 00000000! 
     758 000043e0     8729          move    *a9,a9,L
     759 000043f0     b6c8          move    *a6(POF_OBJECT),a8,L
         00004400     0280  
     760 00004410     0d3f          callr   read_player_data
         00004420     0257  
     761                    ;       callr   fix_trail_palette
     762 00004430     c000          jruc    fix_head_palette
         00004440     01ad  
     763                    
     764 00004450           goalie_head_scale_fix
     765 00004450           irbe_head_fix
     766 00004450     b4c0          move    *a6(POF_CHARACTER),a0,W
         00004460     0070  
     767 00004470     0b40          cmpi    s_arturs_irbe,a0
         00004480     ffb4  
     768 00004490     cb0b          jrnz    ihf9
     769 000044a0     b70e          move    *a8(OSCTAB),a14,L
         000044b0     0470  
     770 000044c0     0b6e          cmpi    zscale_50_50_table,a14
         000044d0 ffffffff! 
     771 000044f0     cb05          jrnz    ihf9
     772 00004500     09ee          movi    zscale_55_55_table,a14
TMS340 COFF Macro Assembler Version 6.10     Wed Apr 21 11:32:16 2021
 Copyright (c) 1985-1991  Texas Instruments Incorporated 

                                                                     PAGE   19

         00004510 00000000! 
     773 00004530     b3c8          move    a14,*a8(OSCTAB),L
         00004540     0470  
     774 00004550     0960  ihf9    rets
     775                    
     776                    
     777 00004560           regular_player
     778 00004560     5600          clr     a0
     779 00004570     ac06          movb    a0,*a6(POF_TOP_MODE)
         00004580     05a8  
     780 00004590     b206          move    a0,*a6(POF_TURBO_BOX),L
         000045a0     0300  
     781 000045b0     b206          move    a0,*a6(POF_TURBO_BAR),L
         000045c0     0320  
     782 000045d0     b206          move    a0,*a6(POF_TURBO_NAME),L
         000045e0     0340  
     783 000045f0     b006          move    a0,*a6(POF_BUTTONS),W           ;clear out buttons (in case we are a drone)
         00004600     0380  
     784 00004610     b006          move    a0,*a6(POF_DRONE1),W            ;clear out drone logic
         00004620     0700  
     785 00004630     ac06          movb    a0,*a6(POF_BDIRECTION)
         00004640     03d0  
     786 00004650     b006          move    a0,*a6(POF_TIRED),W
         00004660     05e0  
     787 00004670     18a0          movk    5,a0
     788 00004680     ac06          movb    a0,*a6(POF_DIRECTION)
         00004690     0390  
     789 000046a0     b6c0          MOVE    *A6(POF_FLAGS),A0,L
         000046b0     0200  
     790 000046c0     0b80          ANDI    M_PF_HUMAN,A0                   ;RESET ALL OTHER BITS
         000046d0 fffffffe  
     791 000046f0     0ba0          ORI     M_PF_CONTROL,A0
         00004700 00000002  
     792 00004720     b206          MOVE    A0,*A6(POF_FLAGS),L
         00004730     0200  
     793 00004740     9761          move    *a11+,a1,L
     794 00004750     aeca          movb    *a6(POF_NUMBER),a10
         00004760     0000  
     795 00004770     09e7          movi    control_player,a7
         00004780 00000000! 
     796 000047a0     0d5f          calla   KILL_AND_GETPPRC
         000047b0 00000000! 
     797 000047d0     976e          move    *a11+,a14,L
     798 000047e0     4fc0          move    a14,b0
     799 000047f0     0d5f          calla   EASYMAKE
         00004800 00000000! 
     800 00004820     09e1          movi    AA53F03,a1
         00004830 00000000! 
     801 00004850     b504          move    *a8(OCTRL),a4,W
         00004860     01f0  
     802 00004870     0d5f          calla   ANI
         00004880 00000000! 
     803 000048a0     0d5f          CALLA   CLR_ODATA
         000048b0 00000000! 
     804 000048d0     b306          move    a8,*a6(POF_OBJECT),L
TMS340 COFF Macro Assembler Version 6.10     Wed Apr 21 11:32:16 2021
 Copyright (c) 1985-1991  Texas Instruments Incorporated 

                                                                     PAGE   20

         000048e0     0280  
     805 000048f0     b2c8          move    a6,*a8(ODT_PBK),L
         00004900     0530  
     806 00004910     1bce          MOVK    STAND_COLLRANGE,A14
     807 00004920     b1c6          MOVE    A14,*A6(POF_D_COLL),W           ;SET STANDING COLLISION
         00004930     0690  
     808 00004940     976e          move    *a11+,a14,L
     809 00004950     4fc0          move    a14,b0
     810 00004960     0d5f          calla   EASYMAKE
         00004970 00000000! 
     811 00004990     b306          move    a8,*a6(POF_SHADOW),L
         000049a0     02a0  
     812 000049b0     09e0  ttbo    movi    [71,0],a0
         000049c0 00470000  
     813 000049e0     b206          move    a0,*a6(POF_TURBO_AMOUNT),L
         000049f0     04c0  
     814 00004a00     976e          move    *a11+,a14,L
     815 00004a10     4fc0          move    a14,b0
     816 00004a20     0d5f          calla   EASYMAKE
         00004a30 00000000! 
     817 00004a50     09ce          movi    0e0eh,a14
         00004a60     0e0e  
     818 00004a70     b1c8          move    a14,*a8(OCONST),W
         00004a80     0290  
     819 00004a90     b306          move    a8,*a6(POF_ARROW),L
         00004aa0     02e0  
     820 00004ab0     09c0          movi    100,a0
         00004ac0     0064  
     821 00004ad0     b006          move    a0,*a6(POF_ARROW_TIME),W
         00004ae0     0560  
     822 00004af0     5708          clr     a8
     823 00004b00     05ae          move    @GAME_STATE,a14,W
         00004b10 00000000! 
     824 00004b30     0b4e          cmpi    INAMODE,a14
         00004b40     ffcf  
     825 00004b50     ca1f          jrz     ttboj1
     826 00004b60     05ae          move    @BABY_SIZE,a14,W
         00004b70 00000000! 
     827 00004b90     cb1b          jrnz    ttboj1
     828 00004ba0     b4ce          move    *a6(POF_CHARACTER),a14,W
         00004bb0     0070  
     829 00004bc0     0b4e          cmpi    s_jack_h_haeger,a14
         00004bd0     ff65  
     830 00004be0     ca16          jrz     ttboj1
     831 00004bf0     0b4e          cmpi    s_jennifer_fedesna,a14
         00004c00     ff64  
     832 00004c10     ca13          jrz     ttboj1
     833 00004c20     09f0          movi    cpu_init,b0
         00004c30 00008410' 
     834 00004c50     0d5f          calla   EASYMAKE
         00004c60 00000000! 
     835 00004c80     0d5f          calla   INSERT_OBJ
         00004c90 00000000! 
     836 00004cb0     b4ce          move    *a6(POF_FLAGS),a14,W
         00004cc0     0200  
TMS340 COFF Macro Assembler Version 6.10     Wed Apr 21 11:32:16 2021
 Copyright (c) 1985-1991  Texas Instruments Incorporated 

                                                                     PAGE   21

     837 00004cd0     1fee          btst    B_PF_HUMAN,a14
     838 00004ce0     ca06          jrz     ttboj1
     839 00004cf0     09e0          movi    GFONT10CP,a0
         00004d00 00000000! 
     840 00004d20     0d5f          calla   CHANGE_PAL
         00004d30 00000000! 
     841 00004d50     b306  ttboj1  move    a8,*a6(POF_ARROW_CPU),L
         00004d60     0360  
     842 00004d70     09e2          MOVI    HEAD_SCALES_TABLE,A2
         00004d80 000071b0' 
     843 00004da0     b4ce          move    *a6(POF_CHARACTER),a14,W
         00004db0     0070  
     844 00004dc0     24ae          sll     5,a14
     845 00004dd0     0b2e          addi    player_data,a14
         00004de0 00000000! 
     846 00004e00     87ce          move    *a14,a14,L
     847 00004e10     b7ce          move    *a14(TP_HELMET_OFF),a14,L
         00004e20     0060  
     848 00004e30     ca03          jrz     fzb1
     849 00004e40     09e2          MOVI    HEAD_ASPECT_SCALES_TABLE,A2
         00004e50 00007270' 
     850 00004e70           fzb1
     851 00004e70     b4c3          MOVE    *A6(POF_PUP_FLAGS),A3,W
         00004e80     0c50  
     852                    
     853 00004e90     09c4          MOVI    M_PUP_TINYHEAD,A4
         00004ea0     0004  
     854 00004eb0     05ae          MOVE    @BABY_SIZE,A14,W
         00004ec0 00000000! 
     855 00004ee0     cb07          JRNZ    RP_CHECK_HEAD                   ;BR=BABY SIZE POWERUP
     856                    
     857 00004ef0     05ae          MOVE    @DIPSWITCH,A14,W
         00004f00 01860020  
     858 00004f20     1e8e          BTST    11,A14
     859 00004f30     cb0a          JRNZ    RP_GET_HEAD_SCALE_TABLE         ;BR=NORMAL
     860 00004f40     09c4          MOVI    M_PUP_BIGHEAD,A4                ;FORCE BIGHEAD
         00004f50     0001  
     861                    
     862 00004f60           RP_CHECK_HEAD
     863 00004f60     4c6e          MOVE    A3,A14
     864 00004f70     0b8e          ANDI    M_PUP_HEADS,A14
         00004f80 ffffffe0  
     865 00004fa0     cb03          JRNZ    RP_GET_HEAD_SCALE_TABLE         ;BR=HEAD SET
     866 00004fb0     5483          OR      A4,A3                           ;SET HEAD
     867 00004fc0     b066          MOVE    A3,*A6(POF_PUP_FLAGS),W
         00004fd0     0c50  
     868                    
     869 00004fe0           RP_GET_HEAD_SCALE_TABLE
     870 00004fe0     0b83          ANDI    M_PUP_HEADS,A3
         00004ff0 ffffffe0  
     871 00005010     ca04          JRZ     RP_ADD_TABLE                    ;BR=NO POWERUP
     872 00005020     6a63          LMO     A3,A3
     873 00005030     1403          SUBK    32,A3
     874 00005040     0383          ABS     A3
     875 00005050     24a3          SLL     5,A3
TMS340 COFF Macro Assembler Version 6.10     Wed Apr 21 11:32:16 2021
 Copyright (c) 1985-1991  Texas Instruments Incorporated 

                                                                     PAGE   22

     876 00005060           RP_ADD_TABLE
     877 00005060     4062          ADD     A3,A2
     878 00005070     8642          MOVE    *A2,A2,L
     879                    
     880 00005080     09f0          movi    head_init,b0
         00005090 00007330' 
     881 000050b0     0d5f          calla   EASYMAKE
         000050c0 00000000! 
     882                    
     883 000050e0     b248          MOVE    A2,*A8(OSCTAB),L
         000050f0     0470  
     884                    
     885 00005100     b6c9          move    *a6(POF_OBJECT),a9,L
         00005110     0280  
     886 00005120     b329          move    a9,*a9(OPART1),L                ;
         00005130     00a0  
     887 00005140     b328          move    a9,*a8(OPART1),L                ; make the head part 2 of multiparter
         00005150     00a0  
     888 00005160     b309          move    a8,*a9(OPARTS),L                ;
         00005170     00c0  
     889 00005180     0d5f          calla   start_head_script
         00005190 00000000! 
     890 000051b0     b6c8          move    *a6(POF_OBJECT),a8,L
         000051c0     0280  
     891 000051d0     b4c9          move    *a6(POF_TEAM),a9,W
         000051e0     0080  
     892 000051f0     0b49          cmpi    26,a9
         00005200     ffe5  
     893 00005210     c202          jrls    nospt                   ;not a team # > 26
     894 00005220     0d3f          callr   find_a9_real_team       ;returns a new a9 or and old one
         00005230     0061  
     895 00005240           nospt   MOD_COL a9                      ;modify a9 based if colorado
     896 00005290     2549          sll     10,a9
     897 000052a0     0b29          addi    team_data,a9
         000052b0 00000000! 
     898 000052d0     aec2          movb    *a6(POF_NUMBER),a2
         000052e0     0000  
     899 000052f0     2462          sll     3,a2
     900 00005300     0b22          addi    numconl,a2
         00005310 00007000' 
     901 00005330     8e42          movb    *a2,a2
     902 00005340     ce00          jrn     nonp1234                ;he isn't
         00005350     014c  
     903 00005360     4c44          move    a2,a4
     904 00005370     24e4          sll     7,a4            ;palette address offset from data offset
     905 00005380     0b24          addi    player_1_turbopal,a4
         00005390 00000000- 
     906 000053b0     4122          add     a9,a2
     907 000053c0     b720          move    *a9(080h),a0,L          ;visitor regular pal
         000053d0     0080  
     908 000053e0     b641          move    *a2(0100h),a1,L         ;visitor turbo pal
         000053f0     0100  
     909 00005400     b4ce          move    *a6(POF_HOME),a14,W
         00005410     0090  
     910 00005420     ca04          jrz     pih_1
TMS340 COFF Macro Assembler Version 6.10     Wed Apr 21 11:32:16 2021
 Copyright (c) 1985-1991  Texas Instruments Incorporated 

                                                                     PAGE   23

     911 00005430     b720          move    *a9(0c0h),a0,L          ;home regular pal
         00005440     00c0  
     912 00005450     b641          move    *a2(0180h),a1,L         ;home turbo pal
         00005460     0180  
     913 00005470     b206  pih_1   move    a0,*a6(POF_NORMALPAL),L
         00005480     0240  
     914 00005490     4c03          move    a0,a3
     915 000054a0     0d5f          calla   GETFPAL
         000054b0 00000000! 
     916                    ;move colors from a3 (normal pal), and a1 (turbo pal reference) into area a4 (turbo pal)
     917 000054d0     4c60          move    a3,a0
     918 000054e0     4c89          move    a4,a9
     919 000054f0     09ce          movi    28,a14          ;palsize and 0-26 from normal pal
         00005500     001c  
     920 00005510     0d3f          callr   movepal_a0_to_a4
         00005520     005b  
     921 00005530     190e          movk    8,a14           ;27-34 from turbo pal
     922 00005540     0d3f          callr   movepal_a1_to_a4
         00005550     005c  
     923 00005560     09ce          movi    73,a14          ;35-107 from normal pal
         00005570     0049  
     924 00005580     0d3f          callr   movepal_a0_to_a4
         00005590     0054  
     925 000055a0     1a8e          movk    20,a14          ;108-127 from turbo pal
     926 000055b0     0d3f          callr   movepal_a1_to_a4
         000055c0     0055  
     927 000055d0     b326          move    a9,*a6(POF_TURBOPAL),L
         000055e0     0260  
     928 000055f0     4d20          move    a9,a0
     929 00005600     0d5f          calla   GETFPAL
         00005610 00000000! 
     930 00005630     4c60          move    a3,a0
     931 00005640     0d5f          calla   CHANGE_PAL                      ;change uniform palette, based on team
         00005650 00000000! 
     932 00005670     b4c9          move    *a6(POF_CHARACTER),a9,W
         00005680     0070  
     933 00005690     24a9          sll     5,a9
     934 000056a0     0b29          addi    player_data,a9
         000056b0 00000000! 
     935 000056d0     8729          move    *a9,a9,L                        ;a9 points to players data
     936 000056e0     0d3f          callr   read_player_data
         000056f0     012a  
     937 00005700     0d3f          callr   fix_trail_palettes
         00005710     0044  
     938 00005720     c07f          jruc    fix_head_palette
     939                    
     940                    **************************************************************************
     941                    *                                                                        *
     942                    * find_a9_real_team                                                      *
     943                    *       input   a9 = team # (> 26)                                       *
     944                    *               a6 = player block                                        *
     945                    *       output  a9 = input a9 (if no team <= 26 found)                   *
     946                    *                  = a9 of player's 'real' team                          *
     947                    *                                                                        *
     948                    **************************************************************************
TMS340 COFF Macro Assembler Version 6.10     Wed Apr 21 11:32:16 2021
 Copyright (c) 1985-1991  Texas Instruments Incorporated 

                                                                     PAGE   24

     949 00005730           find_a2_real_team
     950 00005730     098f          mmtm    sp,a9
         00005740     0040  
     951 00005750     4c49          move    a2,a9
     952 00005760     0d3f          callr   find_a9_real_team
         00005770     000d  
     953 00005780     4d22          move    a9,a2
     954 00005790     09af          mmfm    sp,a9
         000057a0     0200  
     955 000057b0     0960          rets
     956 000057c0           find_a1_real_team
     957 000057c0     098f          mmtm    sp,a9
         000057d0     0040  
     958 000057e0     4c29          move    a1,a9
     959 000057f0     0d3f          callr   find_a9_real_team
         00005800     0004  
     960 00005810     4d21          move    a9,a1
     961 00005820     09af          mmfm    sp,a9
         00005830     0200  
     962 00005840     0960          rets
     963 00005850           find_a9_real_team
     964 00005850     098f          mmtm    sp,a0,a2,a3
         00005860     b000  
     965 00005870     b4c3          move    *a6(POF_CHARACTER),a3,W
         00005880     0070  
     966 00005890     1b40          movk    26,a0
     967 000058a0     0d3f  frt1    callr   isplt
         000058b0     0009  
     968 000058c0     c804          jrc     frt8
     969 000058d0     3c80          dsjs    a0,frt1
     970 000058e0     09af          mmfm    sp,a0,a2,a3
         000058f0     000d  
     971 00005900     0960          rets
     972 00005910     4c09  frt8    move    a0,a9
     973 00005920     09af          mmfm    sp,a0,a2,a3
         00005930     000d  
     974 00005940     0960          rets
     975 00005950     4c01  isplt   move    a0,a1
     976 00005960     2541          sll     10,a1
     977 00005970     0b21          addi    team_data,a1
         00005980 00000000! 
     978 000059a0     b622          move    *a1(TD_MEMBER1_LIST),a2,L               ;team list (we don't check extended)
         000059b0     0040  
     979 000059c0     0d3f          callr   sra2
         000059d0     0008  
     980 000059e0     c80b          jrc     sray
     981 000059f0     b622          move    *a1(TD_MEMBER2_LIST),a2,L               ;team list (we don't check extended)
         00005a00     0060  
     982 00005a10     0d3f          callr   sra2
         00005a20     0003  
     983 00005a30     c806          jrc     sray
     984 00005a40     b622          move    *a1(TD_GOALIE_LIST),a2,L
         00005a50     0220  
     985 00005a60     944e  sra2    move    *a2+,a14,W
     986 00005a70     ca04          jrz     sran
TMS340 COFF Macro Assembler Version 6.10     Wed Apr 21 11:32:16 2021
 Copyright (c) 1985-1991  Texas Instruments Incorporated 

                                                                     PAGE   25

     987 00005a80     49c3          cmp     a14,a3
     988 00005a90     cbfc          jrnz    sra2
     989 00005aa0     0de0  sray    setc
     990 00005ab0     0960          rets
     991 00005ac0     0320  sran    clrc
     992 00005ad0     0960          rets
     993                    
     994 00005ae0           movepal_a0_to_a4
     995 00005ae0     9804  ampl3   move    *a0+,*a4+,W
     996 00005af0     1201          addk    16,a1
     997 00005b00     3c6e          dsjs    a14,ampl3
     998 00005b10     0960          rets
     999                    
    1000 00005b20           movepal_a1_to_a4
    1001 00005b20     9824  ampl4   move    *a1+,*a4+,W
    1002 00005b30     1200          addk    16,a0
    1003 00005b40     3c6e          dsjs    a14,ampl4
    1004 00005b50     0960          rets
    1005                    
    1006 00005b60           fix_trail_palettes
    1007 00005b60     aec4          movb    *a6(POF_NUMBER),a4
         00005b70     0000  
    1008 00005b80     1424          dec     a4
    1009 00005b90     2584          sll     12,a4
    1010 00005ba0     0b24          addi    player_1_trailpal,a4            ;a4 is our destination palette
         00005bb0 0000c000- 
    1011 00005bd0     4c8b          move    a4,a11
    1012 00005be0     0b2b          addi    player_1_redpal-player_1_trailpal,a11
         00005bf0 00008000  
    1013 00005c10     b286          move    a4,*a6(POF_TRAIL_PAL),L
         00005c20     0a10  
    1014 00005c30     b366          move    a11,*a6(POF_REDPAL),L
         00005c40     0c80  
    1015 00005c50     b6c1          move    *a6(POF_NORMALPAL),a1,L
         00005c60     0240  
    1016 00005c70     942e          move    *a1+,a14,W
    1017 00005c80     91c4          move    a14,*a4+,W
    1018 00005c90     91cb          move    a14,*a11+,W
    1019 00005ca0     09c5          movi    128,a5
         00005cb0     0080  
    1020 00005cc0     1862          movk    3,a2
    1021 00005cd0     9427  ftpft1  move    *a1+,a7,W
    1022 00005ce0     4ce9          move    a7,a9
    1023 00005cf0     4cea          move    a7,a10
    1024 00005d00     2767          sll     27,a7
    1025 00005d10     2ca7          srl     27,a7           ;b
    1026 00005d20     26c9          sll     22,a9
    1027 00005d30     2ca9          srl     27,a9           ;g
    1028 00005d40     262a          sll     17,a10
    1029 00005d50     2caa          srl     27,a10          ;r
    1030 00005d60     17e7          subk    31,a7
    1031 00005d70     2bc7          sra     2,a7
    1032 00005d80     13e7          addk    31,a7
    1033 00005d90     17e9          subk    31,a9
    1034 00005da0     2be9          sra     1,a9
TMS340 COFF Macro Assembler Version 6.10     Wed Apr 21 11:32:16 2021
 Copyright (c) 1985-1991  Texas Instruments Incorporated 

                                                                     PAGE   26

    1035 00005db0     13e9          addk    31,a9
    1036 00005dc0     17ea          subk    31,a10
    1037 00005dd0     2bea          sra     1,a10
    1038 00005de0     13ea          addk    31,a10
    1039 00005df0     24a9          sll     5,a9
    1040 00005e00     254a          sll     10,a10
    1041 00005e10     4127          add     a9,a7
    1042 00005e20     4147          add     a10,a7
    1043 00005e30     90e4          move    a7,*a4+,W
    1044 00005e40     2ec7          srl     10,a7
    1045 00005e50     2547          sll     10,a7
    1046 00005e60     90eb          move    a7,*a11+,W
    1047 00005e70     3f65          dsj     a5,ftpft1
    1048 00005e80     b6c0          move    *a6(POF_REDPAL),a0,L
         00005e90     0c80  
    1049 00005ea0     0d5f          calla   GETFPAL
         00005eb0 00000000! 
    1050 00005ed0     b6c0          move    *a6(POF_TRAIL_PAL),a0,L
         00005ee0     0a10  
    1051 00005ef0     c080          jauc    GETFPAL
         00005f00 00000000! 
    1052                    
    1053 00005f20           fix_head_palette
    1054 00005f20     098f          mmtm    sp,a0,a1,a2,a4,a9
         00005f30     e840  
    1055 00005f40     b4ce          move    *a6(POF_FLAGS),a14,W
         00005f50     0200  
    1056 00005f60     1fae          btst    B_PF_GOALIE,a14
    1057 00005f70     cb5a          jrnz    fhp_goalie
    1058 00005f80     b4c0  g_no_h  move    *a6(POF_CHARACTER),a0,W
         00005f90     0070  
    1059 00005fa0     24a0          sll     5,a0
    1060 00005fb0     0b20          addi    player_data,a0
         00005fc0 00000000! 
    1061 00005fe0     8600          move    *a0,a0,L
    1062 00005ff0     b400          move    *a0(TP_HELMET_TYPE),a0,W
         00006000     0160  
    1063 00006010     24a0          sll     5,a0
    1064 00006020     0b20          addi    helmet_type_plist,a0
         00006030 00000000! 
    1065 00006050     8600          move    *a0,a0,L
    1066 00006060     b4c2          move    *a6(POF_TEAM),a2,W
         00006070     0080  
    1067 00006080     0b42          cmpi    26,a2
         00006090     ffe5  
    1068 000060a0     c202          jrls    fhpha
    1069 000060b0     0d3f          callr   find_a2_real_team
         000060c0     ff66  
    1070 000060d0           fhpha   MOD_COL a2                      ;modify a2 based if colorado
    1071 00006120     2542          sll     10,a2
    1072 00006130     0b22          addi    team_data,a2
         00006140 00000000! 
    1073 00006160     b441          move    *a2(TD_HOME_HELMET),a1,W
         00006170     0280  
    1074 00006180     b4ce          move    *a6(POF_HOME),a14,W
TMS340 COFF Macro Assembler Version 6.10     Wed Apr 21 11:32:16 2021
 Copyright (c) 1985-1991  Texas Instruments Incorporated 

                                                                     PAGE   27

         00006190     0090  
    1075 000061a0     cb02          jrnz    fhp1
    1076 000061b0     b441          move    *a2(TD_AWAY_HELMET),a1,W
         000061c0     0290  
    1077 000061d0     24a1  fhp1    sll     5,a1
    1078 000061e0     4020          add     a1,a0
    1079 000061f0     b6c1          move    *a6(POF_HEAD_TABLE),a1,L        ;head table
         00006200     0040  
    1080 00006210     8621          move    *a1,a1,L                        ;first head img
    1081 00006220     b621          move    *a1(ICMAP),a1,L                 ;a1 is palette of head image
         00006230     0070  
    1082 00006240     8422          move    *a1,a2,W                        ;palette size
    1083                    
    1084 00006250     b4ce          move    *a6(POF_CHARACTER),a14,W
         00006260     0070  
    1085 00006270     24ae          sll     5,a14
    1086 00006280     0b2e          addi    player_data,a14
         00006290 00000000! 
    1087 000062b0     87ce          move    *a14,a14,L
    1088 000062c0     b7ce          move    *a14(TP_HELMET_OFF),a14,L
         000062d0     0060  
    1089 000062e0     ca02          jrz     fhp20
    1090 000062f0     4c20          move    a1,a0
    1091 00006300     c001          jruc    fhp21
    1092 00006310     8600  fhp20   move    *a0,a0,L                ;a0 is our helmet palette
    1093 00006320     aec4  fhp21   movb    *a6(POF_NUMBER),a4
         00006330     0000  
    1094 00006340     1424          dec     a4
    1095 00006350     2584          sll     12,a4
    1096 00006360     0b24          addi    player_1_headpal,a4             ;a4 is our destination palette
         00006370 00004000- 
    1097 00006390     4c89          move    a4,a9
    1098 000063a0     182e          movk    1,a14
    1099 000063b0     0d3f          callr   movepal_a1_to_a4        ;move our size (from face)
         000063c0     ff75  
    1100 000063d0     09ce          movi    32,a14
         000063e0     0020  
    1101 000063f0     0d3f          callr   movepal_a0_to_a4        ;move 32 palette entries (helmet)
         00006400     ff6d  
    1102 00006410     4c4e          move    a2,a14
    1103 00006420     140e          subk    32,a14
    1104 00006430     ca03          jrz     notmore
    1105 00006440     ce02          jrn     notmore
    1106 00006450     0d3f          callr   movepal_a1_to_a4        ;move the rest of our palette (face)
         00006460     ff6b  
    1107 00006470     4d20  notmore move    a9,a0
    1108 00006480     b6c8          move    *a6(POF_OBJECT),a8,L
         00006490     0280  
    1109 000064a0     b708          move    *a8(OPARTS),a8,L        ;get us from anywhere to our head
         000064b0     00c0  
    1110 000064c0     0d5f          calla   CHANGE_PAL              ;now give us a new palette
         000064d0 00000000! 
    1111 000064f0     09af          mmfm    sp,a0,a1,a2,a4,a9
         00006500     0217  
    1112 00006510     0960          rets
TMS340 COFF Macro Assembler Version 6.10     Wed Apr 21 11:32:16 2021
 Copyright (c) 1985-1991  Texas Instruments Incorporated 

                                                                     PAGE   28

    1113                    
    1114 00006520           fhp_goalie
    1115 00006520     b4c0          move    *a6(POF_CHARACTER),a0,W
         00006530     0070  
    1116 00006540     24a0          sll     5,a0
    1117 00006550     0b20          addi    player_data,a0
         00006560 00000000! 
    1118 00006580     8600          move    *a0,a0,L
    1119 00006590     b40e          move    *a0(TP_HELMET_OFF),a14,W
         000065a0     0060  
    1120 000065b0     cb9c          jrnz    g_no_h
    1121 000065c0     b400          move    *a0(TP_HELMET_TYPE),a0,W
         000065d0     0160  
    1122 000065e0     24a0          sll     5,a0
    1123 000065f0     0b20          addi    helmet_type_plist,a0
         00006600 00000000! 
    1124 00006620     8600          move    *a0,a0,L
    1125 00006630     b4c2          move    *a6(POF_TEAM),a2,W
         00006640     0080  
    1126 00006650     0b42          cmpi    26,a2
         00006660     ffe5  
    1127 00006670     c202          jrls    fhphb
    1128 00006680     0d3f          callr   find_a2_real_team
         00006690     ff09  
    1129 000066a0           fhphb   MOD_COL a2                      ;modify a2 based if colorado
    1130 000066f0     2542          sll     10,a2
    1131 00006700     0b22          addi    team_data,a2
         00006710 00000000! 
    1132 00006730     b441          move    *a2(TD_GOALIE_HELMET),a1,W
         00006740     02a0  
    1133 00006750     24a1          sll     5,a1
    1134 00006760     4020          add     a1,a0
    1135 00006770     8600          move    *a0,a0,L
    1136 00006780     b6c8          move    *a6(POF_OBJECT),a8,L
         00006790     0280  
    1137 000067a0     b708          move    *a8(OPARTS),a8,L        ;get us from anywhere to our head
         000067b0     00c0  
    1138 000067c0     0d5f          calla   CHANGE_PAL
         000067d0 00000000! 
    1139 000067f0     09af          mmfm    sp,a0,a1,a2,a4,a9
         00006800     0217  
    1140 00006810     0960          rets
    1141                    
    1142 00006820           nonp1234
    1143 00006820     b720          move    *a9(080h),a0,L          ;visitor regular pal
         00006830     0080  
    1144 00006840     b4ce          move    *a6(POF_HOME),a14,W
         00006850     0090  
    1145 00006860     ca02          jrz     piph_1
    1146 00006870     b720          move    *a9(0c0h),a0,L          ;home regular pal
         00006880     00c0  
    1147 00006890     b206  piph_1  move    a0,*a6(POF_NORMALPAL),L
         000068a0     0240  
    1148 000068b0     4c03          move    a0,a3
    1149 000068c0     0d5f          calla   GETFPAL
TMS340 COFF Macro Assembler Version 6.10     Wed Apr 21 11:32:16 2021
 Copyright (c) 1985-1991  Texas Instruments Incorporated 

                                                                     PAGE   29

         000068d0 00000000! 
    1150 000068f0     4c60          move    a3,a0
    1151 00006900     0d5f          calla   CHANGE_PAL                      ;change uniform palette, based on team
         00006910 00000000! 
    1152 00006930     b4c9          move    *a6(POF_CHARACTER),a9,W
         00006940     0070  
    1153 00006950     24a9          sll     5,a9
    1154 00006960     0b29          addi    player_data,a9
         00006970 00000000! 
    1155 00006990     8729          move    *a9,a9,L                        ;a9 points to players data
    1156                            ;
    1157                    
    1158 000069a0           read_player_data
    1159 000069a0     0b09          addi    64,a9                           ;initials and birthday
         000069b0     0040  
    1160 000069c0     9720          move    *a9+,a0,L                       ;head table
    1161 000069d0     0be0          subi    64,a0
         000069e0     ffbf  
    1162 000069f0     b206          move    a0,*a6(POF_HEAD_TABLE),L
         00006a00     0040  
    1163 00006a10     9720          move    *a9+,a0,L                       ;head palette
    1164 00006a20     b6c8  nohead  move    *a6(POF_OBJECT),a8,L
         00006a30     0280  
    1165 00006a40     9720          move    *a9+,a0,L                       ;shot table
    1166 00006a50     b206          move    a0,*a6(POF_S_STAB),L
         00006a60     01e0  
    1167 00006a70     9720          move    *a9+,a0,L                       ;scale table
    1168 00006a80     05ae          move    @BABY_SIZE,a14,W
         00006a90 00000000! 
    1169 00006ab0     ca07          jrz     makeok                          ;not baby size
    1170 00006ac0     b4ce          move    *a6(POF_FLAGS),a14,W
         00006ad0     0200  
    1171 00006ae0     1fae          btst    B_PF_GOALIE,a14
    1172 00006af0     cb03          jrnz    makeok                          ;goalies not baby size
    1173 00006b00     09e0          movi    zscale_70_60_table,a0           ;baby size
         00006b10 00000000! 
    1174 00006b30     b208  makeok  move    a0,*a8(OSCTAB),L
         00006b40     0470  
    1175 00006b50     9520          move    *a9+,a0,W                       ;mass
    1176 00006b60     b006          move    a0,*a6(POF_MASS),W
         00006b70     00a0  
    1177 00006b80     1209          addk    16,a9                           ;empty word
    1178 00006b90     09e1          movi    player_speed_data,a1
         00006ba0 00000000! 
    1179 00006bc0     0d3f          callr   rpdb                            ;speed data
         00006bd0     003b  
    1180 00006be0     b206          move    a0,*a6(POF_S_SPED),L
         00006bf0     00e0  
    1181 00006c00     09e1          movi    player_stop_data,a1
         00006c10 00000000! 
    1182 00006c30     0d3f          callr   rpdb                            ;stopping data
         00006c40     0034  
    1183 00006c50     b206          move    a0,*a6(POF_S_STOP),L
         00006c60     0100  
    1184 00006c70     09e1          movi    player_corner_data,a1
TMS340 COFF Macro Assembler Version 6.10     Wed Apr 21 11:32:16 2021
 Copyright (c) 1985-1991  Texas Instruments Incorporated 

                                                                     PAGE   30

         00006c80 00000000! 
    1185 00006ca0     0d3f          callr   rpdb                            ;cornering data
         00006cb0     002d  
    1186 00006cc0     b206          move    a0,*a6(POF_S_CORN),L
         00006cd0     0120  
    1187 00006ce0     09e1          movi    player_shoot_data,a1
         00006cf0 00000000! 
    1188 00006d10     0d3f          callr   rpdb                            ;shooting data
         00006d20     0026  
    1189 00006d30     b206          move    a0,*a6(POF_S_SHOT),L
         00006d40     0140  
    1190 00006d50     09e1          movi    player_pass_data,a1
         00006d60 00000000! 
    1191 00006d80     0d3f          callr   rpdb                            ;passing data
         00006d90     001f  
    1192 00006da0     b206          move    a0,*a6(POF_S_PASS),L
         00006db0     0160  
    1193 00006dc0     09e1          movi    player_face_data,a1
         00006dd0 00000000! 
    1194 00006df0     0d3f          callr   rpdb                            ;dumping data
         00006e00     0018  
    1195 00006e10     b206          move    a0,*a6(POF_S_FACE),L
         00006e20     0180  
    1196 00006e30     09e1          movi    player_handle_data,a1
         00006e40 00000000! 
    1197 00006e60     0d3f          callr   rpdb                            ;puck handing data
         00006e70     0011  
    1198 00006e80     b206          move    a0,*a6(POF_S_HAND),L
         00006e90     01a0  
    1199 00006ea0     09e1          movi    player_check_data,a1
         00006eb0 00000000! 
    1200 00006ed0     0d3f          callr   rpdb
         00006ee0     000a  
    1201 00006ef0     b206          move    a0,*a6(POF_S_CHEK),L
         00006f00     01c0  
    1202 00006f10     b326          move    a9,*a6(POF_IMAGE_TABLE),L       ;image table
         00006f20     0020  
    1203 00006f30     09e1          movi    nul_script,a1
         00006f40 00000000! 
    1204 00006f60     c080          jauc    start_panim_if_not
         00006f70 00000000! 
    1205 00006f90     8f20  rpdb    movb    *a9,a0
    1206 00006fa0     1420          dec     a0
    1207 00006fb0     1109          addk    8,a9
    1208 00006fc0     24a0          sll     5,a0
    1209 00006fd0     4020          add     a1,a0
    1210 00006fe0     8600          move    *a0,a0,L
    1211 00006ff0     0960          rets
    1212                    
    1213 00007000       ff  numconl .byte   -1
    1214 00007008       00          .byte   0,32
    1215 00007018       ff          .byte   -1,-1
    1216 00007028       40          .byte   64,96
    1217 00007038       ff          .byte   -1
    1218 00007040       ff          .byte   -1
TMS340 COFF Macro Assembler Version 6.10     Wed Apr 21 11:32:16 2021
 Copyright (c) 1985-1991  Texas Instruments Incorporated 

                                                                     PAGE   31

    1219                    
    1220 00007050                   .even
    1221                    
    1222 00007050           replace_all_turbo_palettes
    1223 00007050     1821          movk    1,a1
    1224 00007060     0d3f          callr   ratp1
         00007070     0001  
    1225 00007080     18a1          movk    5,a1
    1226 00007090     0d3f  ratp1   callr   ratp2
         000070a0     0000  
    1227 000070b0           ratp2   GBLOCK  a1,a6
    1228 00007100     b6c0          move    *a6(POF_NORMALPAL),a0,L
         00007110     0240  
    1229 00007120     b206          move    a0,*a6(POF_TURBOPAL),L
         00007130     0260  
    1230 00007140     b6c8          move    *a6(POF_OBJECT),a8,L
         00007150     0280  
    1231 00007160     0d5f          calla   CHANGE_PAL
         00007170 00000000! 
    1232 00007190     1021          inc     a1
    1233 000071a0     0960          rets
    1234                    
    1235 000071b0           HEAD_SCALES_TABLE
    1236 000071b0 00000000!         .long   zscale_50_50_table
    1237 000071d0 00000000!         .long   zscale_100_100_table
    1238 000071f0 00000000!         .long   zscale_130_130_table
    1239 00007210 00000000!         .long   zscale_43_43_table
    1240 00007230 00000000!         .long   zscale_150_55_table
    1241 00007250 00000000!         .long   zscale_50_50_table
    1242                    
    1243 00007270           HEAD_ASPECT_SCALES_TABLE
    1244 00007270 00000000!         .long   zscale_65_53_table
    1245 00007290 00000000!         .long   zscale_130_107_table
    1246 000072b0 00000000!         .long   zscale_160_130_table
    1247 000072d0 00000000!         .long   zscale_52_43_table
    1248 000072f0 00000000!         .long   zscale_150_55_table
    1249 00007310 00000000!         .long   zscale_65_53_table
    1250                    
    1251 00007330           head_init
    1252 00007330 00000000!         .long   shadow3                 ;dummy image for initialization only
    1253 00007350     8000          .word   DMAGO,M_NOPARTANI
    1254 00007370     0900          .word   OM_OID|OM_INSERT
    1255 00007380     0201          .word   OID_HEAD
    1256                    
    1257                    ;head_init
    1258                    ;       .long   shadow3                 ;dummy image for initialization only
    1259                    ;;      .word   DMAWNZ,M_NOPARTANI
    1260                    ;       .word   DMAGO,M_NOPARTANI
    1261                    ;       .word   OM_OID|OM_INSERT|OM_SCTAB
    1262                    ;       .word   OID_HEAD
    1263                    ;       .long   zscale_50_50_table
    1264                    ;;      .long   zscale_100_100_table
    1265                    ;
    1266                    ;aspect_head_init
    1267                    ;       .long   shadow3                 ;dummy image for initialization only
TMS340 COFF Macro Assembler Version 6.10     Wed Apr 21 11:32:16 2021
 Copyright (c) 1985-1991  Texas Instruments Incorporated 

                                                                     PAGE   32

    1268                    ;;      .word   DMAWNZ,M_NOPARTANI
    1269                    ;       .word   DMAGO,M_NOPARTANI
    1270                    ;       .word   OM_OID|OM_INSERT|OM_SCTAB
    1271                    ;       .word   OID_HEAD
    1272                    ;       .long   zscale_61_50_table
    1273                    ;;      .long   zscale_100_100_table
    1274                    ;
    1275                    ;aspect_BIG_HEAD_INIT
    1276                    ;       .long   shadow3                 ;dummy image for initialization only
    1277                    ;;      .word   DMAWNZ,M_NOPARTANI
    1278                    ;       .word   DMAGO,M_NOPARTANI
    1279                    ;       .word   OM_OID|OM_INSERT|OM_SCTAB
    1280                    ;       .word   OID_HEAD
    1281                    ;       .long   zscale_122_100_table
    1282                    
    1283 00007390           player1_init
    1284 00007390 00000000!         .long   shadow3                 ;dummy image for initialization only
    1285 000073b0     8002          .word   DMAWNZ,0
    1286 000073d0     0910          .word   OM_OID|OM_POS|OM_INSERT
    1287 000073e0     0910          .word   OID_PLAYER_1
    1288 000073f0 fea20000          .long   [-350,0],0,[339,0]
    1289                    
    1290 00007450           player1_shadow_init
    1291 00007450 00000000!         .long   shadow3
    1292 00007470     8002          .word   DMAWNZ,M_NOSCALE
    1293 00007490     0900          .word   OM_OID|OM_INSERT
    1294 000074a0     1111          .word   OID_PLAYER_1_SHAD
    1295                    
    1296 000074b0           player2_init
    1297 000074b0 00000000!         .long   shadow3                 ;dummy image for initialization only
    1298 000074d0     8002          .word   DMAWNZ,0
    1299 000074f0     0910          .word   OM_OID|OM_POS|OM_INSERT
    1300 00007500     0920          .word   OID_PLAYER_2
    1301 00007510 fea20000          .long   [-350,0],0,[339,0]
    1302                    
    1303 00007570           player2_shadow_init
    1304 00007570 00000000!         .long   shadow3
    1305 00007590     8002          .word   DMAWNZ,M_NOSCALE
    1306 000075b0     0900          .word   OM_OID|OM_INSERT
    1307 000075c0     1121          .word   OID_PLAYER_2_SHAD
    1308                    
    1309 000075d0           player3_init
    1310 000075d0 00000000!         .long   shadow3                 ;dummy image for initialization only
    1311 000075f0     8002          .word   DMAWNZ,0
    1312 00007610     0910          .word   OM_OID|OM_POS|OM_INSERT
    1313 00007620     0930          .word   OID_PLAYER_3
    1314 00007630 ff9c0000          .long   [-100,0],0,[300,0]
    1315                    
    1316 00007690           player3_shadow_init
    1317 00007690 00000000!         .long   shadow3
    1318 000076b0     8002          .word   DMAWNZ,M_NOSCALE
    1319 000076d0     0900          .word   OM_OID|OM_INSERT
    1320 000076e0     1131          .word   OID_PLAYER_3_SHAD
    1321                    
    1322 000076f0           player4_init
TMS340 COFF Macro Assembler Version 6.10     Wed Apr 21 11:32:16 2021
 Copyright (c) 1985-1991  Texas Instruments Incorporated 

                                                                     PAGE   33

    1323 000076f0 00000000!         .long   shadow3                 ;dummy image for initialization only
    1324 00007710     8002          .word   DMAWNZ,0
    1325 00007730     0910          .word   OM_OID|OM_POS|OM_INSERT
    1326 00007740     0940          .word   OID_PLAYER_4
    1327 00007750 fd6d0000          .long   LEFT_GOALIE_AT_GOAL,0,CENTER_Z
    1328                    
    1329 000077b0           player4_shadow_init
    1330 000077b0 00000000!         .long   shadow3
    1331 000077d0     8002          .word   DMAWNZ,M_NOSCALE
    1332 000077f0     0900          .word   OM_OID|OM_INSERT
    1333 00007800     1141          .word   OID_PLAYER_4_SHAD
    1334                    
    1335 00007810           player4p_init
    1336 00007810 00000000!         .long   shadow3                 ;dummy image for initialization only
    1337 00007830     8002          .word   DMAWNZ,0
    1338 00007850     0910          .word   OM_OID|OM_POS|OM_INSERT
    1339 00007860     0940          .word   OID_PLAYER_4
    1340 00007870 00000000          .long   0,0,TOP_SIDEBOARD_Z
    1341                    
    1342 000078d0           player4p_shadow_init
    1343 000078d0 00000000!         .long   shadow3
    1344 000078f0     8002          .word   DMAWNZ,M_NOSCALE
    1345 00007910     0900          .word   OM_OID|OM_INSERT
    1346 00007920     1141          .word   OID_PLAYER_4_SHAD
    1347                    
    1348 00007930           player5_init
    1349 00007930 00000000!         .long   shadow3                 ;dummy image for initialization only
    1350 00007950     8012          .word   DMAWNZ|DMAHFL,0
    1351 00007970     0910          .word   OM_OID|OM_POS|OM_INSERT
    1352 00007980     0950          .word   OID_PLAYER_5
    1353 00007990 015e0000          .long   [350,0],0,[339,0]
    1354                    
    1355 000079f0           player5_shadow_init
    1356 000079f0 00000000!         .long   shadow3
    1357 00007a10     8002          .word   DMAWNZ,M_NOSCALE
    1358 00007a30     0900          .word   OM_OID|OM_INSERT
    1359 00007a40     1151          .word   OID_PLAYER_5_SHAD
    1360                    
    1361 00007a50           player6_init
    1362 00007a50 00000000!         .long   shadow3                 ;dummy image for initialization only
    1363 00007a70     8012          .word   DMAWNZ|DMAHFL,0
    1364 00007a90     0910          .word   OM_OID|OM_POS|OM_INSERT
    1365 00007aa0     0960          .word   OID_PLAYER_6
    1366 00007ab0 015e0000          .long   [350,0],0,[339,0]
    1367                    
    1368 00007b10           player6_shadow_init
    1369 00007b10 00000000!         .long   shadow3
    1370 00007b30     8002          .word   DMAWNZ,M_NOSCALE
    1371 00007b50     0900          .word   OM_OID|OM_INSERT
    1372 00007b60     1161          .word   OID_PLAYER_6_SHAD
    1373                    
    1374 00007b70           player7_init
    1375 00007b70 00000000!         .long   shadow3                 ;dummy image for initialization only
    1376 00007b90     8012          .word   DMAWNZ|DMAHFL,0
    1377 00007bb0     0910          .word   OM_OID|OM_POS|OM_INSERT
TMS340 COFF Macro Assembler Version 6.10     Wed Apr 21 11:32:16 2021
 Copyright (c) 1985-1991  Texas Instruments Incorporated 

                                                                     PAGE   34

    1378 00007bc0     0970          .word   OID_PLAYER_7
    1379 00007bd0 00640000          .long   [100,0],0,[300,0]
    1380                    
    1381 00007c30           player7_shadow_init
    1382 00007c30 00000000!         .long   shadow3
    1383 00007c50     8002          .word   DMAWNZ,M_NOSCALE
    1384 00007c70     0900          .word   OM_OID|OM_INSERT
    1385 00007c80     1171          .word   OID_PLAYER_7_SHAD
    1386                    
    1387 00007c90           player8_init
    1388 00007c90 00000000!         .long   shadow3                 ;dummy image for initialization only
    1389 00007cb0     8002          .word   DMAWNZ,0
    1390 00007cd0     0910          .word   OM_OID|OM_POS|OM_INSERT
    1391 00007ce0     0980          .word   OID_PLAYER_8
    1392 00007cf0 02930000          .long   RGHT_GOALIE_AT_GOAL,0,CENTER_Z
    1393                    
    1394 00007d50           player8_shadow_init
    1395 00007d50 00000000!         .long   shadow3
    1396 00007d70     8002          .word   DMAWNZ,M_NOSCALE
    1397 00007d90     0900          .word   OM_OID|OM_INSERT
    1398 00007da0     1181          .word   OID_PLAYER_8_SHAD
    1399                    
    1400 00007db0           player8p_init
    1401 00007db0 00000000!         .long   shadow3                 ;dummy image for initialization only
    1402 00007dd0     8002          .word   DMAWNZ,0
    1403 00007df0     0910          .word   OM_OID|OM_POS|OM_INSERT
    1404 00007e00     0980          .word   OID_PLAYER_8
    1405 00007e10 00000000          .long   0,0,TOP_SIDEBOARD_Z
    1406                    
    1407 00007e70           player8p_shadow_init
    1408 00007e70 00000000!         .long   shadow3
    1409 00007e90     8002          .word   DMAWNZ,M_NOSCALE
    1410 00007eb0     0900          .word   OM_OID|OM_INSERT
    1411 00007ec0     1181          .word   OID_PLAYER_8_SHAD
    1412                    
    1413 00007ed0           arrow_1_init
    1414 00007ed0 00000000!         .long   arrow1t
    1415 00007ef0     8002          .word   DMAWNZ,M_NOSCALE
    1416 00007f10     0910          .word   OM_OID|OM_POS|OM_INSERT
    1417 00007f20     0500          .word   OID_ARROW
    1418 00007f30 00000000          .long   [0,0],[0,0],[0,0]
    1419                    
    1420 00007f90           arrow_2_init
    1421 00007f90 00000000!         .long   arrow2t
    1422 00007fb0     8002          .word   DMAWNZ,M_NOSCALE
    1423 00007fd0     0910          .word   OM_OID|OM_POS|OM_INSERT
    1424 00007fe0     0500          .word   OID_ARROW
    1425 00007ff0 00000000          .long   [0,0],[0,0],[0,0]
    1426                    
    1427 00008050           arrow_3_init
    1428 00008050 00000000!         .long   arrow3t
    1429 00008070     8002          .word   DMAWNZ,M_NOSCALE
    1430 00008090     0910          .word   OM_OID|OM_POS|OM_INSERT
    1431 000080a0     0500          .word   OID_ARROW
    1432 000080b0 00000000          .long   [0,0],[0,0],[0,0]
TMS340 COFF Macro Assembler Version 6.10     Wed Apr 21 11:32:16 2021
 Copyright (c) 1985-1991  Texas Instruments Incorporated 

                                                                     PAGE   35

    1433                    
    1434 00008110           arrow_4_init
    1435 00008110 00000000!         .long   arrow4t
    1436 00008130     8002          .word   DMAWNZ,M_NOSCALE
    1437 00008150     0910          .word   OM_OID|OM_POS|OM_INSERT
    1438 00008160     0500          .word   OID_ARROW
    1439 00008170 00000000          .long   [0,0],[0,0],[0,0]
    1440                    
    1441                    
    1442 000081d0           arrow_2alt_init
    1443 000081d0 00000000!         .long   arrow2t
    1444 000081f0     8002          .word   DMAWNZ,M_NOSCALE
    1445 00008210     0910          .word   OM_OID|OM_POS|OM_INSERT
    1446 00008220     0500          .word   OID_ARROW
    1447 00008230 00000000          .long   [0,0],[0,0],[0,0]
    1448                    
    1449 00008290           arrow_3alt_init
    1450 00008290 00000000!         .long   arrow3t
    1451 000082b0     8002          .word   DMAWNZ,M_NOSCALE
    1452 000082d0     0910          .word   OM_OID|OM_POS|OM_INSERT
    1453 000082e0     0500          .word   OID_ARROW
    1454 000082f0 00000000          .long   [0,0],[0,0],[0,0]
    1455                    
    1456 00008350           arrow_4alt_init
    1457 00008350 00000000!         .long   arrow4t
    1458 00008370     8002          .word   DMAWNZ,M_NOSCALE
    1459 00008390     0910          .word   OM_OID|OM_POS|OM_INSERT
    1460 000083a0     0500          .word   OID_ARROW
    1461 000083b0 00000000          .long   [0,0],[0,0],[0,0]
    1462                    
    1463                    
    1464 00008410           cpu_init
    1465 00008410 00000000!         .long   cpu
    1466                    ;       .long   dummmy
    1467 00008430     8002          .word   DMAWNZ,M_NOSCALE
    1468 00008450     0100          .word   OM_OID
    1469 00008460     0501          .word   OID_CPU
    1470                    
    1471 00008470     4000  dummmy  .word   04000H,8,10
    1472 000084a0 077212e5          .long   077212e5H
    1473 000084c0     0000          .word   0,0
    1474 000084e0 00000000!         .long   GFONT10CP

 No Errors,  No Warnings
