TMS340 COFF Macro Assembler Version 6.10     Wed Apr 21 11:34:12 2021
 Copyright (c) 1985-1991  Texas Instruments Incorporated 

                                                                     PAGE    1

       1                            .MLIB   "HHMACS.LIB"
       2                            .FILE   "HHSPEECH.ASM"
       3                            .WIDTH  132
       4                            .OPTION B,D,L,T
       5                            .MNOLIST
       6                    
       7                            .INCLUDE        "HH.INC"                ;Game equates
       8                            .include        "hhspeech.e"
       9                            .include        "hhsnd.g"
      10                            .include        "hhutil.g"
      11                            .include        "hhplayer.g"
      12                            .include        "hhmisc.g"
      13                            .include        "hhpuck.g"
      14                            .include        "hhram.g"
      15                            .include        "hhproc.g"
      16                            .include        "hhscore.g"
      17                            .include        "hhgame.g"
      18                            .include        "hhscr_sk.g"
      19                            .include        "hhtimer.g"
      20                            .include        "hhgscr2.g"
      21                            .include        "hhcmos.g"
      22                            .include        "hhcontr2.g"
      23                            .include        "hhspech2.g"
      24                            .include        "hhattrct.g"
      25                            .include        "hhpup.g"
      26                            .include        "hhcontr3.g"
      27                            .include        "hhhigher.g"
      28                    
      29                    ; end of include files
      30                    
      31 00000000                   .bss    last_name_spoken,16
      32 00000010                   .bss    last_name_time,32
      33 00000030                   .bss    center_spoken,16
      34 00000040                   .bss    shot_type,16
      35 00000050                   .bss    shot_call,16            ;1,2,3 - where to make shot sound call
      36 00000060                   .bss    last_shot_time,32       ;time we called last shooting
      37 00000080                   .bss    last_shot_player,16     ;last player to shoot
      38 00000090                   .bss    spfaceoff_address,32    ;call this string at faceoff
      39 000000b0                   .bss    spfaceoff_call,16       ;where to make faceoff call
      40 000000c0                   .bss    line_crossed,16
      41 000000d0                   .bss    line_crossed_time,32
      42 000000f0                   .bss    score_call_log,16       ;hold last score call endlog
      43 00000100                   .bss    last_dne,32
      44 00000120                   .bss    goalie_phrase_time,32   ;time of last goalie call
      45 00000140                   .bss    goalie_phrase_num,16    ;player base (1 or 0, uses puck position)
      46 00000150                   .bss    estimated_speech_end,32
      47                    
      48 00000000           spx_theres_the_octopus
      49 00000000     0d5f          calla   get_speech_time_remaining
         00000010 00000000! 
      50 00000030     0b40          cmpi    20,a0
         00000040     ffeb  
      51 00000050     c905          jrhs    sttto9
      52 00000060     09ea          movi    spz_theres_the_octopus,a10
         00000070 000000c0' 
TMS340 COFF Macro Assembler Version 6.10     Wed Apr 21 11:34:12 2021
 Copyright (c) 1985-1991  Texas Instruments Incorporated 

                                                                     PAGE    2

      53 00000090     c000          jruc    handle_speech_string
         000000a0     190e  
      54 000000b0     0960  sttto9  rets
      55                    
      56 000000c0           spz_theres_the_octopus
      57 000000c0     0afd          .word   00afdh,-65,0    ;There's the octopus
      58                    
      59 000000f0           spx_spagetti
      60 000000f0     0d5f          calla   get_speech_time_remaining
         00000100 00000000! 
      61 00000120     0b40          cmpi    20,a0
         00000130     ffeb  
      62 00000140     c905          jrhs    spgt9
      63 00000150     09ea          movi    spz_spagetti,a10
         00000160 000001b0' 
      64 00000180     c000          jruc    handle_speech_string
         00000190     18ff  
      65 000001a0     0960  spgt9   rets
      66                    
      67 000001b0           spz_spagetti
      68 000001b0     09c5          .word   009c5h,-69              ;He-s back on his feet
      69 000001d0     09c6          .word   009c6h,-73,0            ;but with spaghetti legs
      70                            
      71 00000200           spx_gordie_picked
      72 00000200     0d5f          calla   get_speech_time_remaining
         00000210 00000000! 
      73 00000230     0b40          cmpi    20,a0
         00000240     ffeb  
      74 00000250     c905          jrhs    stgpp9
      75 00000260     09ea          movi    spz_mr_hockey,a10
         00000270 000002c0' 
      76 00000290     c000          jruc    handle_speech_string
         000002a0     18ee  
      77 000002b0     0960  stgpp9  rets
      78                    
      79 000002c0           spz_mr_hockey
      80 000002c0     0dbc          .word   00dbch,-59,0            ;Mr. Hockey (g.howe)
      81                    
      82 000002f0           spx_what_a_beauty
      83 000002f0     0d5f          calla   get_speech_time_remaining
         00000300 00000000! 
      84 00000320     0b40          cmpi    20,a0
         00000330     ffeb  
      85 00000340     c905          jrhs    stbea9
      86 00000350     09ea          movi    spz_what_a_beauty,a10
         00000360 000003b0' 
      87 00000380     c000          jruc    handle_speech_string
         00000390     18df  
      88 000003a0     0960  stbea9  rets
      89                    
      90 000003b0           spz_what_a_beauty
      91 000003b0     0b0a          .word   00b0ah,-57,0            ;What a Beauty
      92                    
      93 000003e0           spx_avalanche
      94 000003e0     098f          mmtm    sp,a0,a1,a2,a3,a4,a5,a6,a7,a8,a9,a10,a11
TMS340 COFF Macro Assembler Version 6.10     Wed Apr 21 11:34:12 2021
 Copyright (c) 1985-1991  Texas Instruments Incorporated 

                                                                     PAGE    3

         000003f0     fff0  
      95 00000400     09ea          movi    sp_avalanche,a10
         00000410 00000000! 
      96 00000430     0d3f          callr   handle_speech_string
         00000440     18d4  
      97 00000450     09af          mmfm    sp,a0,a1,a2,a3,a4,a5,a6,a7,a8,a9,a10,a11
         00000460     0fff  
      98 00000470     0960          rets
      99                    
     100 00000480           spx_change_in_lineup
     101 00000480     0d5f          calla   get_speech_time_remaining
         00000490 00000000! 
     102 000004b0     0b40          cmpi    3,a0
         000004c0     fffc  
     103 000004d0     c905          jrhs    stcil9
     104 000004e0     09ea          movi    spz_change_in_lineup,a10
         000004f0 00000540' 
     105 00000510     0d3f          callr   handle_speech_string
         00000520     18c6  
     106 00000530     0960  stcil9  rets
     107                    
     108 00000540           spz_change_in_lineup
     109 00000540     0ab4          .word   00ab4h,-85,0            ;A Change in the line-up
     110                    
     111 00000570           spx_stanley_1
     112 00000570     09ea          movi    spz_stan1,a10
         00000580 000006a0' 
     113 000005a0     05a1          move    @sound_store_t1,a1,W
         000005b0 00000000! 
     114 000005d0     05a2          move    @sound_store_fp,a2,W
         000005e0 00000000! 
     115 00000600     05ae          move    @sound_store_c2,a14,W
         00000610 00000000! 
     116 00000630     ce00          jrn     handle_speech_string
         00000640     18b4  
     117 00000650     09ea          movi    spz_stan2,a10
         00000660 00000790' 
     118 00000680     c000          jruc    handle_speech_string
         00000690     18af  
     119                    
     120 000006a0           spz_stan1
     121 000006a0     ffbf          .word   -65
     122 000006b0     0aea          .word   00aeah,-79              ;Listen to the crowd
     123 000006d0     0af7          .word   00af7h,-117             ;This is the greatest game I've ever seen
     124 000006f0     ff6a          .word   -150
     125 00000700     0ab2          .word   00ab2h,-65              ;Congratulations
     126 00000720     fff6          .word   -10
     127 00000730                   WL      1,city_team_name_tab
     128 00000760     0aa6          .word   00aa6h,-74,0            ;_ Win the Stanley Cup
     129                    
     130 00000790           spz_stan2
     131 00000790     ffbf          .word   -65
     132 000007a0     0aea          .word   00aeah,-79              ;Listen to the crowd
     133 000007c0     0af7          .word   00af7h,-117             ;This is the greatest game I've ever seen
     134 000007e0     ff6a          .word   -150
TMS340 COFF Macro Assembler Version 6.10     Wed Apr 21 11:34:12 2021
 Copyright (c) 1985-1991  Texas Instruments Incorporated 

                                                                     PAGE    4

     135 000007f0     0ab2          .word   00ab2h,-71              ;Congratulations
     136 00000810     fff6          .word   -10
     137 00000820                   WL      1,city_team_name_tab
     138 00000850     0aa6          .word   00aa6h,-74,0            ;_ Win the Stanley Cup
     139                    
     140 00000880           sz_pllist
     141 00000880 000009c0'         .long   z1p
     142 000008a0 000009c0'         .long   z1p
     143 000008c0 000009f0'         .long   z2p
     144 000008e0 000009f0'         .long   z2p
     145 00000900 000009f0'         .long   z2p
     146 00000920 00000a20'         .long   z3p
     147 00000940 00000a50'         .long   z4p
     148 00000960 00000a50'         .long   z4p
     149 00000980 00000a50'         .long   z4p
     150 000009a0 00000a50'         .long   z4p
     151                    
     152 000009c0     0aaa  z1p     .word   00aaah,-46,0            ;Player One     1
     153 000009f0     0aab  z2p     .word   00aabh,-43,0            ;Player Two     2
     154 00000a20     0aac  z3p     .word   00aach,-50,0            ;Player Three   5
     155 00000a50     0aad  z4p     .word   00aadh,-47,0            ;Player Four    6
     156                    
     157 00000a80           spx_speech_test
     158 00000a80     1821          movk    1,a1
     159 00000a90     1842          movk    2,a2
     160 00000aa0     0d5f          calla   spx_tonights_matchup
         00000ab0 00000d60' 
     161 00000ad0     c080          jauc    SUCIDE
         00000ae0 00000000! 
     162                    
     163 00000b00           spx_ten_seconds
     164 00000b00     098f          mmtm    sp,a0,a1,a2,a3,a4,a5,a6,a7,a8,a9,a10,a11
         00000b10     fff0  
     165 00000b20     0d5f          calla   get_speech_time_remaining
         00000b30 00000000! 
     166 00000b50     0b40          cmpi    80,a0
         00000b60     ffaf  
     167 00000b70     c905          jrhs    stsnd9
     168 00000b80     09ea          movi    spz_ten_seconds,a10
         00000b90 00000d30' 
     169 00000bb0     0d3f          callr   handle_speech_string
         00000bc0     185c  
     170 00000bd0     09af  stsnd9  mmfm    sp,a0,a1,a2,a3,a4,a5,a6,a7,a8,a9,a10,a11
         00000be0     0fff  
     171 00000bf0     0960          rets
     172                    
     173 00000c00           spx_one_minute
     174 00000c00     098f          mmtm    sp,a0,a1,a2,a3,a4,a5,a6,a7,a8,a9,a10,a11
         00000c10     fff0  
     175 00000c20     0d5f          calla   get_speech_time_remaining
         00000c30 00000000! 
     176 00000c50     0b40          cmpi    150,a0
         00000c60     ff69  
     177 00000c70     c905          jrhs    stmnd9
     178 00000c80     09ea          movi    spz_one_minute,a10
TMS340 COFF Macro Assembler Version 6.10     Wed Apr 21 11:34:12 2021
 Copyright (c) 1985-1991  Texas Instruments Incorporated 

                                                                     PAGE    5

         00000c90 00000d00' 
     179 00000cb0     0d3f          callr   handle_speech_string
         00000cc0     184c  
     180 00000cd0     09af  stmnd9  mmfm    sp,a0,a1,a2,a3,a4,a5,a6,a7,a8,a9,a10,a11
         00000ce0     0fff  
     181 00000cf0     0960          rets
     182                    
     183 00000d00           spz_one_minute
     184 00000d00     0ae2          .word   00ae2h,-54,0            ;One minute left #1
     185 00000d30           spz_ten_seconds
     186 00000d30     0ae6          .word   00ae6h,-50,0            ;Ten seconds
     187                    
     188 00000d60           spx_tonights_matchup
     189 00000d60     098f          mmtm    sp,a8,a9,a10,a11
         00000d70     00f0  
     190 00000d80     09ea          movi    sz_stanley_cup,a10
         00000d90 000014e0' 
     191 00000db0     0d3f          callr   is_this_cup
         00000dc0     003f  
     192 00000dd0     c839          jrc     stmd
     193 00000de0     05a1          move    @team1,a1,W
         00000df0 00000000! 
     194 00000e10     05a2          move    @team2,a2,W
         00000e20 00000000! 
     195 00000e40     09ea          movi    szwtsmt,a10     ;same team
         00000e50 00002040' 
     196 00000e70     4822          cmp     a1,a2
     197 00000e80     ca2e          jrz     stmd
     198 00000e90     0d3f          callr   is_a1a2_ny
         00000ea0     0068  
     199 00000eb0     c816          jrc     stny
     200 00000ec0     09ea          movi    szwtlng,a10     ;longtime
         00000ed0 00001e00' 
     201 00000ef0     0d3f          callr   is_a1a2_lt
         00000f00     0072  
     202 00000f10     c825          jrc     stmd
     203 00000f20     09ea          movi    szwtgrt,a10     ;great
         00000f30 00001f20' 
     204 00000f50     0d3f          callr   is_a1a2_gt
         00000f60     0076  
     205 00000f70     c81f          jrc     stmd
     206 00000f80     09ea          movi    szwtwht,a10     ;what a matchup
         00000f90 00001fc0' 
     207 00000fb0     0d3f          callr   is_a1a2_wt
         00000fc0     007a  
     208 00000fd0     c819          jrc     stmd
     209 00000fe0     09ea          movi    szwtreg,a10     ;nothing special
         00000ff0 00001dc0' 
     210 00001010     c015          jruc    stmd
     211 00001020     09ea  stny    movi    szwtnyl,a10     ;longtime
         00001030 00002080' 
     212 00001050     0d3f          callr   is_a1a2_lt
         00001060     005c  
     213 00001070     c80f          jrc     stmd
     214 00001080     09ea          movi    szwtnyg,a10     ;great
TMS340 COFF Macro Assembler Version 6.10     Wed Apr 21 11:34:12 2021
 Copyright (c) 1985-1991  Texas Instruments Incorporated 

                                                                     PAGE    6

         00001090 000021a0' 
     215 000010b0     0d3f          callr   is_a1a2_gt
         000010c0     0060  
     216 000010d0     c809          jrc     stmd
     217 000010e0     09ea          movi    szwtnyw,a10     ;what a matchup
         000010f0 00002240' 
     218 00001110     0d3f          callr   is_a1a2_wt
         00001120     0064  
     219 00001130     c803          jrc     stmd
     220 00001140     09ea          movi    szwtnyr,a10     ;nothing special
         00001150 00002040' 
     221 00001170     0d3f  stmd    callr   handle_speech_string
         00001180     1800  
     222 00001190     09af          mmfm    sp,a8,a9,a10,a11
         000011a0     0f00  
     223 000011b0     0960          rets
     224                    
     225 000011c0           is_this_cup
     226 000011c0     098f          mmtm    sp,a0,a1,a2,a3,a4,a5,a6,a7,a8,a9,a10,a11
         000011d0     fff0  
     227 000011e0     09e6          movi    PLAYER_1_BLOCK,a6
         000011f0 00000000! 
     228 00001210     05a1          move    @team2,a1,W
         00001220 00000000! 
     229 00001240     0d5f          calla   CHECK_STANCUP_GAME
         00001250 00000000! 
     230 00001270     ca22          jrz     itc_y
     231 00001280     09e6          movi    PLAYER_2_BLOCK,a6
         00001290 00000000! 
     232 000012b0     05a1          move    @team2,a1,W
         000012c0 00000000! 
     233 000012e0     0d5f          calla   CHECK_STANCUP_GAME
         000012f0 00000000! 
     234 00001310     ca18          jrz     itc_y
     235 00001320     09e6          movi    PLAYER_5_BLOCK,a6
         00001330 00000000! 
     236 00001350     05a1          move    @team1,a1,W
         00001360 00000000! 
     237 00001380     0d5f          calla   CHECK_STANCUP_GAME
         00001390 00000000! 
     238 000013b0     ca0e          jrz     itc_y
     239 000013c0     09e6          movi    PLAYER_6_BLOCK,a6
         000013d0 00000000! 
     240 000013f0     05a1          move    @team1,a1,W
         00001400 00000000! 
     241 00001420     0d5f          calla   CHECK_STANCUP_GAME
         00001430 00000000! 
     242 00001450     ca04          jrz     itc_y
     243 00001460     0320  itc_n   clrc
     244 00001470     09af          mmfm    sp,a0,a1,a2,a3,a4,a5,a6,a7,a8,a9,a10,a11
         00001480     0fff  
     245 00001490     0960          rets
     246 000014a0     0de0  itc_y   setc
     247 000014b0     09af          mmfm    sp,a0,a1,a2,a3,a4,a5,a6,a7,a8,a9,a10,a11
         000014c0     0fff  
TMS340 COFF Macro Assembler Version 6.10     Wed Apr 21 11:34:12 2021
 Copyright (c) 1985-1991  Texas Instruments Incorporated 

                                                                     PAGE    7

     248 000014d0     0960          rets
     249                    
     250 000014e0           sz_stanley_cup
     251 000014e0     0b0c          .word   00b0ch,-110             ;A capacity crowd on hand
     252 00001500     0b10          .word   00b10h,-98,0            ; Get ready for the Stanley Cup
     253                    
     254 00001530           is_a1a2_ny
     255 00001530     0b41          cmpi    team_rangers,a1
         00001540     fff4  
     256 00001550     ca0b          jrz     iny_y
     257 00001560     0b41          cmpi    team_islanders,a1
         00001570     fff5  
     258 00001580     ca08          jrz     iny_y
     259 00001590     0b42          cmpi    team_rangers,a2
         000015a0     fff4  
     260 000015b0     ca05          jrz     iny_y
     261 000015c0     0b42          cmpi    team_islanders,a2
         000015d0     fff5  
     262 000015e0     ca02          jrz     iny_y
     263 000015f0     0320  iny_n   clrc
     264 00001600     0960          rets
     265 00001610     0de0  iny_y   setc
     266 00001620     0960          rets
     267                    
     268 00001630           is_a1a2_lt
     269 00001630     098f          mmtm    sp,a1,a2,a3,a4,a5
         00001640     7c00  
     270 00001650     09e3          movi    longtime_list,a3
         00001660 00001930' 
     271 00001680     0d3f          callr   a1a2_match_l    ;returns what we need
         00001690     0017  
     272 000016a0     09af          mmfm    sp,a1,a2,a3,a4,a5
         000016b0     003e  
     273 000016c0     0960          rets
     274                    
     275 000016d0           is_a1a2_gt
     276 000016d0     098f          mmtm    sp,a1,a2,a3,a4,a5
         000016e0     7c00  
     277 000016f0     09e3          movi    great_list,a3
         00001700 00001aa0' 
     278 00001720     0d3f          callr   a1a2_match_l    ;returns what we need
         00001730     000d  
     279 00001740     09af          mmfm    sp,a1,a2,a3,a4,a5
         00001750     003e  
     280 00001760     0960          rets
     281                    
     282 00001770           is_a1a2_wt
     283 00001770     098f          mmtm    sp,a1,a2,a3,a4,a5
         00001780     7c00  
     284 00001790     09e3          movi    what_list,a3
         000017a0 00001bd0' 
     285 000017c0     0d3f          callr   a1a2_match_l    ;returns what we need
         000017d0     0003  
     286 000017e0     09af          mmfm    sp,a1,a2,a3,a4,a5
         000017f0     003e  
TMS340 COFF Macro Assembler Version 6.10     Wed Apr 21 11:34:12 2021
 Copyright (c) 1985-1991  Texas Instruments Incorporated 

                                                                     PAGE    8

     287 00001800     0960          rets
     288                    
     289 00001810           a1a2_match_l
     290 00001810     0d3f          callr   a2ml
         00001820     0004  
     291 00001830     c80e          jrc     a2ml9
     292 00001840                   SWAP    a1,a2
     293 00001870     4c64  a2ml    move    a3,a4
     294 00001880     9485  a2mll   move    *a4+,a5,W
     295 00001890     ca07          jrz     a2mln
     296 000018a0     948e          move    *a4+,a14,W
     297 000018b0     4825          cmp     a1,a5
     298 000018c0     cbfb          jrnz    a2mll
     299 000018d0     484e          cmp     a2,a14
     300 000018e0     cbf9          jrnz    a2mll
     301 000018f0     0de0  a2mly   setc
     302 00001900     0960          rets
     303 00001910     0320  a2mln   clrc
     304 00001920     0960  a2ml9   rets
     305                    
     306 00001930           longtime_list
     307 00001930     0001          .word   team_bruins,team_rangers
     308 00001950     0001          .word   team_bruins,team_blackhawks
     309 00001970     0003          .word   team_whalers,team_rangers
     310 00001990     0004          .word   team_canadiens,team_maple_leafs
     311 000019b0     0004          .word   team_canadiens,team_rangers
     312 000019d0     0006          .word   team_penguins,team_flyers
     313 000019f0     000a          .word   team_islanders,team_rangers
     314 00001a10     000f          .word   team_blackhawks,team_red_wings
     315 00001a30     000f          .word   team_blackhawks,team_blues
     316 00001a50     0011          .word   team_red_wings,team_maple_leafs
     317 00001a70     0002          .word   team_sabres,team_flyers
     318 00001a90     0000          .word   0
     319                    
     320 00001aa0           great_list
     321 00001aa0     000a          .word   team_islanders,team_devils
     322 00001ac0     000b          .word   team_rangers,team_devils
     323 00001ae0     0004          .word   team_canadiens,team_flames
     324 00001b00     000c          .word   team_flyers,team_capitals
     325 00001b20     000d          .word   team_lightning,team_panthers
     326 00001b40     000a          .word   team_islanders,team_oilers
     327 00001b60     0015          .word   team_mighty_ducks,team_kings
     328 00001b80     0019          .word   team_sharks,team_kings
     329 00001ba0     0017          .word   team_oilers,team_flames
     330 00001bc0     0000          .word   0
     331                    
     332 00001bd0           what_list
     333 00001bd0     000f          .word   team_blackhawks,team_stars
     334 00001bf0     0009          .word   team_devils,team_red_wings
     335 00001c10     0011          .word   team_red_wings,team_sharks
     336 00001c30     0004          .word   team_canadiens,team_kings
     337 00001c50     0007          .word   team_avalanche,team_rangers
     338 00001c70     0001          .word   team_bruins,team_flyers
     339 00001c90     001a          .word   team_canucks,team_rangers
     340 00001cb0     000e          .word   team_capitals,team_penguins
TMS340 COFF Macro Assembler Version 6.10     Wed Apr 21 11:34:12 2021
 Copyright (c) 1985-1991  Texas Instruments Incorporated 

                                                                     PAGE    9

     341 00001cd0     0001          .word   team_bruins,team_devils
     342 00001cf0     000c          .word   team_flyers,team_devils
     343 00001d10     0013          .word   team_maple_leafs,team_canucks
     344 00001d30     0016          .word   team_flames,team_sharks
     345 00001d50     0004          .word   team_canadiens,team_avalanche
     346 00001d70     0014          .word   team_jets,team_oilers
     347 00001d90     0014          .word   team_jets,team_flames
     348 00001db0     0000          .word   0
     349                    
     350 00001dc0     000a  szwtreg .word   10,1
     351 00001de0 000022c0'         .long   sztnrm
     352                    
     353 00001e00     000a  szwtlng .word   10,8
     354 00001e20 00002480'         .long   sztlng,sztlng,sztlng,sztgrt,sztgrt,sztwht,sztnrm,sztnrm
     355                    
     356 00001f20     000a  szwtgrt .word   10,4
     357 00001f40 00002620'         .long   sztgrt,sztgrt,sztwht,sztnrm
     358                    
     359 00001fc0     000a  szwtwht .word   10,3
     360 00001fe0 00002740'         .long   sztwht,sztwht,sztnrm
     361                    
     362 00002040           szwtsmt
     363 00002040     000a  szwtnyr .word   10,1
     364 00002060 000028e0'         .long   sztnyn
     365                    
     366 00002080     000a  szwtnyl .word   10,8
     367 000020a0 00002a60'         .long   sztnyl,sztnyl,sztnyl,sztnyg,sztnyg,sztnyw,sztnyn,sztnyn
     368                    
     369 000021a0     000a  szwtnyg .word   10,4
     370 000021c0 00002ba0'         .long   sztnyg,sztnyg,sztnyw,sztnyn
     371                    
     372 00002240     000a  szwtnyw .word   10,3
     373 00002260 00002740'         .long   sztwht,sztwht,sztnrm
     374                    
     375 000022c0     000a  sztnrm  .word   10,13
     376 000022e0 00002dc0'         .long   szwt05,szwt07,szwt08
     377 00002340 00002ee0'         .long   szwt09,szwt10
     378 00002380 00003740'         .long   szwt42,szwt43,szwt44,szwt45,szwt61,szwt62,szwt63,szwt64
     379                    
     380 00002480     000a  sztlng  .word   10,12
     381 000024a0 00003240'         .long   szwt17,szwt18,szwt19,szwt20
     382 00002520 00003b80'         .long   szwt52,szwt53,szwt54,szwt55
     383 000025a0 00004400'         .long   szwt71,szwt72,szwt73,szwt74
     384                    
     385 00002620     000a  sztgrt  .word   10,8
     386 00002640 000034c0'         .long   szwt22,szwt23,szwt24,szwt25
     387 000026c0 00003e00'         .long   szwt57,szwt58,szwt59,szwt60
     388                    
     389 00002740     000a  sztwht  .word   10,12
     390 00002760 00002fc0'         .long   szwt12,szwt13,szwt14,szwt15,szwt47,szwt48
     391 00002820 00003a40'         .long   szwt49,szwt50,szwt66,szwt67,szwt68,szwt69
     392                    
     393 000028e0     000a  sztnyn  .word   10,11
     394 00002900 00002dc0'         .long   szwt05,szwt08,szwt09,szwt10
     395 00002980 000037b0'         .long   szwt43,szwt44,szwt45,szwt61,szwt62,szwt63,szwt64
TMS340 COFF Macro Assembler Version 6.10     Wed Apr 21 11:34:12 2021
 Copyright (c) 1985-1991  Texas Instruments Incorporated 

                                                                     PAGE   10

     396                    
     397 00002a60     000a  sztnyl  .word   10,9
     398 00002a80 000032e0'         .long   szwt18,szwt19,szwt20,szwt53,szwt54
     399 00002b20 00003d60'         .long   szwt55,szwt72,szwt73,szwt74
     400                    
     401 00002ba0     000a  sztnyg  .word   10,6
     402 00002bc0 00003560'         .long   szwt23,szwt24,szwt25,szwt58,szwt59
     403 00002c60 00003fe0'         .long   szwt60
     404                    
     405 00002c80     000a  sztnyw  .word   10,9
     406 00002ca0 00003060'         .long   szwt13,szwt14,szwt15,szwt48,szwt49,szwt50,szwt67,szwt68
     407 00002da0 00004390'         .long   szwt69
     408                    
     409 00002dc0           szwt05  WLW     9,sxtmc5,0                              ;the city team versus the city team
     410 00002e00           szwt07  WLWLW   9,sxtma1, 9,sxtmc2,0                    ;welcome to tonights matchup city versus city
     411 00002e70           szwt08  WLWLW   9,sxtma1, 9,sxtmc3,0                    ;welcome to tonights matchup the team versus the
     412 00002ee0           szwt09  WLWLW   9,sxtma1, 9,sxtmc4,0                    ;welcome to tonights matchup team versus team
     413 00002f50           szwt10  WLWLW   9,sxtma1, 9,sxtmc5,0                    ;welcome to tonights matchup the city team versu
     414 00002fc0           szwt12  WLWLWLW 9,sxtma1, 9,sxtmc2, 9,sxtmd2,0          ;welcome to tonights matchup city versus city an
     415 00003060           szwt13  WLWLWLW 9,sxtma1, 9,sxtmc3, 9,sxtmd2,0          ;welcome to tonights matchup the team versus the
     416 00003100           szwt14  WLWLWLW 9,sxtma1, 9,sxtmc4, 9,sxtmd2,0          ;welcome to tonights matchup team versus team an
     417 000031a0           szwt15  WLWLWLW 9,sxtma1, 9,sxtmc5, 9,sxtmd2,0          ;welcome to tonights matchup the city team versu
     418 00003240           szwt17  WLWLWLW 9,sxtma1, 9,sxtmb1, 9,sxtmc2,0          ;welcome to tonights matchup two longtime rivals
     419 000032e0           szwt18  WLWLWLW 9,sxtma1, 9,sxtmb1, 9,sxtmc3,0          ;welcome to tonights matchup two longtime rivals
     420 00003380           szwt19  WLWLWLW 9,sxtma1, 9,sxtmb1, 9,sxtmc4,0          ;welcome to tonights matchup two longtime rivals
     421 00003420           szwt20  WLWLWLW 9,sxtma1, 9,sxtmb1, 9,sxtmc5,0          ;welcome to tonights matchup two longtime rivals
     422 000034c0           szwt22  WLWLWLW 9,sxtma1, 9,sxtmb4, 9,sxtmc2,0          ;welcome to tonights matchup It's a great rivalr
     423 00003560           szwt23  WLWLWLW 9,sxtma1, 9,sxtmb4, 9,sxtmc3,0          ;welcome to tonights matchup It's a great rivalr
     424 00003600           szwt24  WLWLWLW 9,sxtma1, 9,sxtmb4, 9,sxtmc4,0          ;welcome to tonights matchup It's a great rivalr
     425 000036a0           szwt25  WLWLWLW 9,sxtma1, 9,sxtmb4, 9,sxtmc5,0          ;welcome to tonights matchup It's a great rivalr
     426                    
     427 00003740           szwt42  WLWLW   9,sxtma3, 9,sxtmc2,0                    ;tonights matchup city versus city
     428 000037b0           szwt43  WLWLW   9,sxtma3, 9,sxtmc3,0                    ;tonights matchup the team versus the team
     429 00003820           szwt44  WLWLW   9,sxtma3, 9,sxtmc4,0                    ;tonights matchup team versus team
     430 00003890           szwt45  WLWLW   9,sxtma3, 9,sxtmc5,0                    ;tonights matchup the city team versus the city 
     431 00003900           szwt47  WLWLWLW 9,sxtma3, 9,sxtmc2, 9,sxtmd2,0          ;tonights matchup city versus city and what a ma
     432 000039a0           szwt48  WLWLWLW 9,sxtma3, 9,sxtmc3, 9,sxtmd2,0          ;tonights matchup the team versus the team and w
     433 00003a40           szwt49  WLWLWLW 9,sxtma3, 9,sxtmc4, 9,sxtmd2,0          ;tonights matchup team versus team and what a ma
     434 00003ae0           szwt50  WLWLWLW 9,sxtma3, 9,sxtmc5, 9,sxtmd2,0          ;tonights matchup the city team versus the city 
     435 00003b80           szwt52  WLWLWLW 9,sxtma3, 9,sxtmb1, 9,sxtmc2,0          ;tonights matchup two longtime rivals city versu
     436 00003c20           szwt53  WLWLWLW 9,sxtma3, 9,sxtmb1, 9,sxtmc3,0          ;tonights matchup two longtime rivals the team v
     437 00003cc0           szwt54  WLWLWLW 9,sxtma3, 9,sxtmb1, 9,sxtmc4,0          ;tonights matchup two longtime rivals team versu
     438 00003d60           szwt55  WLWLWLW 9,sxtma3, 9,sxtmb1, 9,sxtmc5,0          ;tonights matchup two longtime rivals the city t
     439 00003e00           szwt57  WLWLWLW 9,sxtma3, 9,sxtmb4, 9,sxtmc2,0          ;tonights matchup It's a great rivalry between t
     440 00003ea0           szwt58  WLWLWLW 9,sxtma3, 9,sxtmb4, 9,sxtmc3,0          ;tonights matchup It's a great rivalry between t
     441 00003f40           szwt59  WLWLWLW 9,sxtma3, 9,sxtmb4, 9,sxtmc4,0          ;tonights matchup It's a great rivalry between t
     442 00003fe0           szwt60  WLWLWLW 9,sxtma3, 9,sxtmb4, 9,sxtmc5,0          ;tonights matchup It's a great rivalry between t
     443 00004080           szwt61  WLWLW   9,sxtma4, 9,sxtmb2,0                    ;Midway presents NHL Open Ice
     444 000040f0           szwt62  WLWLW   9,sxtma4, 9,sxtmb3,0                    ;Midway presents National Hockey League Open Ice
     445 00004160           szwt63  WLWLW   9,sxtma5, 9,sxtmb2,0                    ;Welcome to NHL Open Ice
     446 000041d0           szwt64  WLWLW   9,sxtma5, 9,sxtmb3,0                    ;Welcome to National Hockey League Open Ice
     447 00004240           szwt66  WLWLW   9,sxtma6, 9,sxtmc2,0                    ;What a matchup city versus city
     448 000042b0           szwt67  WLWLW   9,sxtma6, 9,sxtmc3,0                    ;What a matchup the team versus the team
     449 00004320           szwt68  WLWLW   9,sxtma6, 9,sxtmc4,0                    ;What a matchup team versus team
     450 00004390           szwt69  WLWLW   9,sxtma6, 9,sxtmc5,0                    ;What a matchup the city team versus the city te
TMS340 COFF Macro Assembler Version 6.10     Wed Apr 21 11:34:12 2021
 Copyright (c) 1985-1991  Texas Instruments Incorporated 

                                                                     PAGE   11

     451 00004400           szwt71  WLWLWLW 9,sxtma6, 9,sxtmb1, 9,sxtmc2,0          ;What a matchup two longtime rivals city versus 
     452 000044a0           szwt72  WLWLWLW 9,sxtma6, 9,sxtmb1, 9,sxtmc3,0          ;What a matchup two longtime rivals the team ver
     453 00004540           szwt73  WLWLWLW 9,sxtma6, 9,sxtmb1, 9,sxtmc4,0          ;What a matchup two longtime rivals team versus 
     454 000045e0           szwt74  WLWLWLW 9,sxtma6, 9,sxtmb1, 9,sxtmc5,0          ;What a matchup two longtime rivals the city tea
     455                    
     456 00004680     0a9e  sxtma1  .word   00a9eh,-90,0            ;welcome to tonights matchup
     457                    
     458 000046b0     0b08  sxtma2  .word   00b08h,-94,0            ;welcome to tonights game
     459                    
     460 000046e0     0a9d  sxtma3  .word   00a9dh,-49,0            ;tonights matchup
     461                    
     462 00004710     0b07  sxtma4  .word   00b07h,-69,0            ;Midway presents
     463                    
     464 00004740     0b04  sxtma5  .word   00b04h,-51,0            ;Welcome to
     465                    
     466 00004770     000a  sxtma6  .word   10,2                    ;What a matchup
     467 00004790 000047d0'         .long   sxtma61,sxtma62
     468 000047d0     0aa0  sxtma61 .word   00aa0h,-58,0
     469 00004800     07f8  sxtma62 .word   007f8h,-61,0
     470                    
     471 00004830     09bf  sxtmb1  .word   009bfh,-106,0           ;two longtime rivals
     472                    
     473 00004860     0b06  sxtmb2  .word   00b06h,-95,0            ;NHL Open Ice
     474                    
     475 00004890     0b05  sxtmb3  .word   00b05h,-117,0           ;National Hockey League Open Ice
     476                    
     477 000048c0           sxtmd1                                  ;It's a great rivalry between these two teams
     478 000048c0     0ab3  sxtmb4  .word   00ab3h,-85,0
     479                    
     480 000048f0           sxtmc2  WL      1,city_name_tab         ;city versus city
     481 00004920                   WL      9,sxvers
     482 00004950                   WLW     2,city_name_tab,0
     483                    
     484 00004990           sxtmc3  WL      1,the_team_name_tab     ;the team versus the team
     485 000049c0                   WL      9,sxvers
     486 000049f0                   WLW     2,the_team_name_tab,0
     487                    
     488 00004a30           sxtmc4  WL      1,team_name_tab         ;team versus team
     489 00004a60                   WL      9,sxvers
     490 00004a90                   WLW     2,team_name_tab,0
     491                    
     492 00004ad0           sxtmc5  WL      1,city_team_name_tab    ;the city team versus the city team
     493 00004b00                   WL      9,sxvers
     494 00004b30                   WLW     2,city_team_name_tab,0
     495                    
     496 00004b70     0a9f  sxtmd2  .word   00a9fh,-100,0           ;and what a matchup it is
     497                    
     498 00004ba0     0a9a  sxvers  .word   00a9ah,-26,0
     499                    
     500 00004bd0           spx_pass_1
     501 00004bd0     098f          mmtm    sp,a0,a1,a2,a3,a4,a5,a6,a7,a8,a9,a10,a11
         00004be0     fff0  
     502 00004bf0     56e7          clr     a7
     503 00004c00     0587          move    a7,@center_spoken,W
         00004c10 00000030- 
TMS340 COFF Macro Assembler Version 6.10     Wed Apr 21 11:34:12 2021
 Copyright (c) 1985-1991  Texas Instruments Incorporated 

                                                                     PAGE   12

     504 00004c30                   GBLOCK  a0,a10
     505 00004c80     b6c8          move    *a6(POF_OBJECT),a8,L            ;sender object
         00004c90     0280  
     506 00004ca0     07a9          move    @PUCK_OBJECT,a9,L
         00004cb0 00000000! 
     507 00004cd0     aecb          movb    *a6(POF_NUMBER),a11
         00004ce0     0000  
     508 00004cf0     1827          movk    1,a7                    ;start with long allowed
     509 00004d00     0d5f          calla   get_speech_time_remaining
         00004d10 00000000! 
     510 00004d30     0b40          cmpi    2,a0
         00004d40     fffd  
     511 00004d50     c204          jrls    aspp_e          ;empty
     512 00004d60     0b40          cmpi    8,a0
         00004d70     fff7  
     513 00004d80     c923          jrhs    aspnfb
     514 00004d90     56e7  aspp_s  clr     a7              ;bit 0 = 0, short durations only
     515 00004da0     b50e  aspp_e  move    *a8(OXPOS),a14,W
         00004db0     0150  
     516 00004dc0     b520          move    *a9(ODT_XDEST+010h),a0,W
         00004dd0     0560  
     517 00004de0     142b          dec     a11
     518 00004df0     2bcb          sra     2,a11
     519 00004e00     ca02          jrz     asp1
     520 00004e10     03ae          neg     a14
     521 00004e20     03a0          neg     a0
     522 00004e30     b52e  asp1    move    *a9(ODT_ZDEST+010h),a14,W
         00004e40     0580  
     523 00004e50     0b4e          cmpi    200,a14
         00004e60     ff37  
     524 00004e70     c414          jrlt    aspnfb          ;not centering
     525 00004e80     0b4e          cmpi    480,a14
         00004e90     fe1f  
     526 00004ea0     c711          jrgt    aspnfb
     527 00004eb0     0b40          cmpi    250,a0          ;near blueline
         00004ec0     ff05  
     528 00004ed0     c40e          jrlt    aspnfb
     529 00004ee0     0b40          cmpi    680,a0          ;near goalline
         00004ef0     fd57  
     530 00004f00     c70b          jrgt    aspnfb
     531 00004f10     24a7          sll     5,a7
     532 00004f20     0b27          addi    sp_pass1_top_level_table,a7
         00004f30 00004ff0' 
     533 00004f50     86ea          move    *a7,a10,L
     534 00004f60     0d3f          callr   handle_speech_string
         00004f70     1421  
     535 00004f80     1827          movk    1,a7
     536 00004f90     0587          move    a7,@center_spoken,W
         00004fa0 00000030- 
     537 00004fc0     09af  aspnfb  mmfm    sp,a0,a1,a2,a3,a4,a5,a6,a7,a8,a9,a10,a11
         00004fd0     0fff  
     538 00004fe0     0960          rets
     539                    
     540 00004ff0           sp_pass1_top_level_table        ;L
     541 00004ff0 00005030'         .long   sp_pass1_2      ;0
TMS340 COFF Macro Assembler Version 6.10     Wed Apr 21 11:34:12 2021
 Copyright (c) 1985-1991  Texas Instruments Incorporated 

                                                                     PAGE   13

     542 00005010 00005190'         .long   sp_pass1_3      ;1
     543                    
     544 00005030           sp_pass1_2
     545 00005030     000a          .word   10,4
     546 00005050 000050d0'         .long   spc11
     547 00005070 00005100'         .long   spc12
     548 00005090 00005130'         .long   spc14
     549 000050b0 00005160'         .long   spc15
     550 000050d0     095d  spc11   .word   0095dh,-51,0    ;He looks to center
     551 00005100     0957  spc12   .word   00957h,-56,0    ;He puts it in front
     552 00005130     0869  spc14   .word   00869h,-54,0    ;_ Centered one
     553 00005160     095e  spc15   .word   0095eh,-67,0    ;He-s looking to center
     554 00005190           sp_pass1_3
     555 00005190     000a          .word   10,5
     556 000051b0 000050d0'         .long   spc11
     557 000051d0 00005100'         .long   spc12
     558 000051f0 00005130'         .long   spc14
     559 00005210 00005160'         .long   spc15
     560 00005230 00005250'         .long   spc16
     561 00005250     0868  spc16   .word   00868h,-37,0    ;He centered it ! 2
     562                    
     563                    
     564 00005280           spx_pass_2
     565 00005280     098f          mmtm    sp,a0,a1,a2,a3,a4,a5,a6,a7,a8,a9,a10,a11
         00005290     fff0  
     566                    
     567                            ;abort here if we don't have name to call
     568                    
     569 000052a0     0d3f          callr   name_check_a0
         000052b0     1487  
     570 000052c0     ca68          jrz     spp_f
     571 000052d0     05a7          move    @center_spoken,a7,W
         000052e0 00000030- 
     572 00005300     cb64          jrnz    spp_f
     573 00005310                   GBLOCK  a0,a10
     574                    
     575 00005360     b6c8          move    *a6(POF_OBJECT),a8,L            ;sender object
         00005370     0280  
     576 00005380     07a9          move    @PUCK_OBJECT,a9,L
         00005390 00000000! 
     577 000053b0     b4c1          move    *a6(POF_CHARACTER),a1,W         ;sender character
         000053c0     0070  
     578 000053d0     aecb          movb    *a6(POF_NUMBER),a11
         000053e0     0000  
     579 000053f0     b542          move    *a10(POF_CHARACTER),a2,W        ;receiver
         00005400     0070  
     580 00005410     05ae          move    @last_name_spoken,a14,W
         00005420 00000000- 
     581 00005440     484e          cmp     a2,a14
     582 00005450     cb0a          jrnz    sp_nss
     583 00005460     07ae          move    @last_name_time,a14,L
         00005470 00000010- 
     584 00005490     07a3          move    @WAVEIRQS,a3,L
         000054a0 00000000! 
     585 000054c0     45c3          sub     a14,a3
TMS340 COFF Macro Assembler Version 6.10     Wed Apr 21 11:34:12 2021
 Copyright (c) 1985-1991  Texas Instruments Incorporated 

                                                                     PAGE   14

     586 000054d0     0b43          cmpi    400,a3
         000054e0     fe6f  
     587 000054f0     c245          jrls    spp_f           ;no name repeat 6 seconds (use unsigned compare to catch negs from previ
     588 00005500     b4c3  sp_nss  move    *a6(POF_TEAM),a3,W              ;team
         00005510     0080  
     589 00005520     56a5          clr     a5                              ;male sender
     590 00005530     56c6          clr     a6                              ;male receiver
     591 00005540     1827          movk    1,a7                    ;start with long allowed
     592                    
     593                    ;       calla   get_speech_time_remaining
     594                    ;       cmpi    2,a0
     595                    ;       jrls    spp_e           ;empty
     596                    ;       cmpi    8,a0
     597                    ;       jrhs    spp_f
     598 00005550     0d5f          calla   get_speech_time_remaining
         00005560 00000000! 
     599 00005580     4c00          move    a0,a0
     600 00005590     cb3b          jrnz    spp_f
     601 000055a0     07a0          move    @estimated_speech_end,a0,L
         000055b0 00000150- 
     602 000055d0     07ae          move    @WAVEIRQS,a14,L
         000055e0 00000000! 
     603 00005600     440e          sub     a0,a14
     604 00005610     0b4e          cmpi    120,a14
         00005620     ff87  
     605 00005630     c231          jrls    spp_f
     606                    
     607 00005640     56e7  spp_s   clr     a7              ;bit 0 = 0, short durations only
     608 00005650     b52e  spp_e   move    *a9(ODT_ZSTRT+010h),a14,W
         00005660     05d0  
     609 00005670     b500          move    *a8(OZPOS),a0,W
         00005680     0190  
     610 00005690     45c0          sub     a14,a0
     611 000056a0     0380          abs     a0
     612 000056b0     0b40          cmpi    300,a0
         000056c0     fed3  
     613 000056d0     c409          jrlt    spp_nac
     614 000056e0     0ba7          ori     010b,a7         ;bit 1 = 1, across ice z
         000056f0 00000002  
     615 00005710     0b40          cmpi    600,a0
         00005720     fda7  
     616 00005730     c403          jrlt    spp_nac
     617 00005740     0ba7          ori     0100b,a7        ;bit 2 = 1, rink wide
         00005750 00000004  
     618 00005770     b52e  spp_nac move    *a9(ODT_XSTRT+010h),a14,W
         00005780     05b0  
     619 00005790     b500          move    *a8(OXPOS),a0,W
         000057a0     0150  
     620 000057b0     142b          dec     a11
     621 000057c0     2bcb          sra     2,a11
     622 000057d0     ca02          jrz     sp1
     623 000057e0     03ae          neg     a14
     624 000057f0     03a0          neg     a0
     625 00005800     440e  sp1     sub     a0,a14
     626 00005810     0b4e          cmpi    -100,a14
TMS340 COFF Macro Assembler Version 6.10     Wed Apr 21 11:34:12 2021
 Copyright (c) 1985-1991  Texas Instruments Incorporated 

                                                                     PAGE   15

         00005820     0063  
     627 00005830     c704          jrgt    spnf
     628 00005840     0ba7          ori     01000b,a7       ;bit 3 = 1, forward
         00005850 00000008  
     629 00005870     c006          jruc    spnfb
     630 00005880     0b4e  spnf    cmpi    100,a14
         00005890     ff9b  
     631 000058a0     c403          jrlt    spnfb
     632 000058b0     0ba7          ori     010000b,a7      ;bit 4 = 1, backward
         000058c0 00000010  
     633 000058e0     24a7  spnfb   sll     5,a7
     634 000058f0     0b27          addi    sp_pass2_top_level_table,a7
         00005900 00005980' 
     635 00005920     86ea          move    *a7,a10,L
     636 00005930     0d3f          callr   handle_speech_string
         00005940     1384  
     637 00005950     09af  spp_f   mmfm    sp,a0,a1,a2,a3,a4,a5,a6,a7,a8,a9,a10,a11
         00005960     0fff  
     638 00005970     0960          rets
     639                    
     640 00005980           sp_pass2_top_level_table        ;BFWAL
     641 00005980 00005c80'         .long   sp_pass_0       ;00000
     642 000059a0 00005cc0'         .long   sp_pass_1       ;00001
     643 000059c0 00005d00'         .long   sp_pass_2       ;00010
     644 000059e0 00005da0'         .long   sp_pass_3       ;00011
     645 00005a00 00005e40'         .long   sp_pass_4       ;00100
     646 00005a20 00005f60'         .long   sp_pass_5       ;00101
     647 00005a40 00005e40'         .long   sp_pass_6       ;00110
     648 00005a60 00005f60'         .long   sp_pass_7       ;00111
     649 00005a80 00006080'         .long   sp_pass_8       ;01000
     650 00005aa0 00006120'         .long   sp_pass_9       ;01001
     651 00005ac0 000061c0'         .long   sp_pass_10      ;01010
     652 00005ae0 000062e0'         .long   sp_pass_11      ;01011
     653 00005b00 00006400'         .long   sp_pass_12      ;01100
     654 00005b20 000065a0'         .long   sp_pass_13      ;01101
     655 00005b40 00006400'         .long   sp_pass_14      ;01110
     656 00005b60 000065a0'         .long   sp_pass_15      ;01111
     657 00005b80 00006740'         .long   sp_pass_16      ;10000
     658 00005ba0 000067e0'         .long   sp_pass_17      ;10001
     659 00005bc0 00006880'         .long   sp_pass_18      ;10010
     660 00005be0 00006980'         .long   sp_pass_19      ;10011
     661 00005c00 00006a80'         .long   sp_pass_20      ;10100
     662 00005c20 00006be0'         .long   sp_pass_21      ;10101
     663 00005c40 00006a80'         .long   sp_pass_22      ;10110
     664 00005c60 00006be0'         .long   sp_pass_23      ;10111
     665                    
     666 00005c80           sp_pass_0                               ;00000 nothing unusual
     667 00005c80     000a          .word   10,1
     668 00005ca0 00006d40'         .long   sp_normal
     669                    
     670 00005cc0           sp_pass_1                               ;00001 nothing unusual - long
     671 00005cc0     000a          .word   10,1
     672 00005ce0 00006e80'         .long   sp_normal_long
     673                    
     674 00005d00           sp_pass_2                               ;00010 across rink
TMS340 COFF Macro Assembler Version 6.10     Wed Apr 21 11:34:12 2021
 Copyright (c) 1985-1991  Texas Instruments Incorporated 

                                                                     PAGE   16

     675 00005d00     000a          .word   10,4
     676 00005d20 00006d40'         .long   sp_normal
     677 00005d40 000071b0'         .long   sp_across
     678 00005d60 000071b0'         .long   sp_across
     679 00005d80 000071b0'         .long   sp_across
     680                    
     681 00005da0           sp_pass_3                               ;00011 across rink - long
     682 00005da0     000a          .word   10,4
     683 00005dc0 00006e80'         .long   sp_normal_long
     684 00005de0 000072f0'         .long   sp_across_long
     685 00005e00 000072f0'         .long   sp_across_long
     686 00005e20 000072f0'         .long   sp_across_long
     687                    
     688 00005e40           sp_pass_4                               ;00100 rink wide
     689 00005e40           sp_pass_6                               ;00110 across rink - rink wide
     690 00005e40     000a          .word   10,8
     691 00005e60 00006d40'         .long   sp_normal
     692 00005e80 000071b0'         .long   sp_across
     693 00005ea0 000071b0'         .long   sp_across
     694 00005ec0 000071b0'         .long   sp_across
     695 00005ee0 000071b0'         .long   sp_across
     696 00005f00 00007470'         .long   sp_rink_wide
     697 00005f20 00007470'         .long   sp_rink_wide
     698 00005f40 00007470'         .long   sp_rink_wide
     699                    
     700 00005f60           sp_pass_5                               ;00101 rink wide - long
     701 00005f60           sp_pass_7                               ;00111 across rink - rink wide - long
     702 00005f60     000a          .word   10,8
     703 00005f80 00006e80'         .long   sp_normal_long
     704 00005fa0 000072f0'         .long   sp_across_long
     705 00005fc0 000072f0'         .long   sp_across_long
     706 00005fe0 000072f0'         .long   sp_across_long
     707 00006000 000072f0'         .long   sp_across_long
     708 00006020 00007470'         .long   sp_rink_wide_long
     709 00006040 00007470'         .long   sp_rink_wide_long
     710 00006060 00007470'         .long   sp_rink_wide_long
     711                    
     712 00006080           sp_pass_8                               ;01000 forward
     713 00006080     000a          .word   10,4
     714 000060a0 00006d40'         .long   sp_normal
     715 000060c0 000074a0'         .long   sp_ahead
     716 000060e0 000074a0'         .long   sp_ahead
     717 00006100 000074a0'         .long   sp_ahead
     718                    
     719 00006120           sp_pass_9                               ;01001 forward - long
     720 00006120     000a          .word   10,4
     721 00006140 00006e80'         .long   sp_normal_long
     722 00006160 00007510'         .long   sp_ahead_long
     723 00006180 00007510'         .long   sp_ahead_long
     724 000061a0 00007510'         .long   sp_ahead_long
     725                    
     726 000061c0           sp_pass_10                              ;01010 forward - across rink
     727 000061c0     000a          .word   10,8
     728 000061e0 00006d40'         .long   sp_normal
     729 00006200 000074a0'         .long   sp_ahead
TMS340 COFF Macro Assembler Version 6.10     Wed Apr 21 11:34:12 2021
 Copyright (c) 1985-1991  Texas Instruments Incorporated 

                                                                     PAGE   17

     730 00006220 000074a0'         .long   sp_ahead
     731 00006240 000074a0'         .long   sp_ahead
     732 00006260 000071b0'         .long   sp_across
     733 00006280 000071b0'         .long   sp_across
     734 000062a0 000071b0'         .long   sp_across
     735 000062c0 000071b0'         .long   sp_across
     736                    
     737 000062e0           sp_pass_11                              ;01011 forward - across rink - long
     738 000062e0     000a          .word   10,8
     739 00006300 00006e80'         .long   sp_normal_long
     740 00006320 00007510'         .long   sp_ahead_long
     741 00006340 00007510'         .long   sp_ahead_long
     742 00006360 00007510'         .long   sp_ahead_long
     743 00006380 000072f0'         .long   sp_across_long
     744 000063a0 000072f0'         .long   sp_across_long
     745 000063c0 000072f0'         .long   sp_across_long
     746 000063e0 000072f0'         .long   sp_across_long
     747                    
     748 00006400           sp_pass_12                              ;01100 forward - rink wide
     749 00006400           sp_pass_14                              ;01110 forward - across rink - rink wide
     750 00006400     000a          .word   10,12
     751 00006420 00006d40'         .long   sp_normal
     752 00006440 000074a0'         .long   sp_ahead
     753 00006460 000074a0'         .long   sp_ahead
     754 00006480 000074a0'         .long   sp_ahead
     755 000064a0 000071b0'         .long   sp_across
     756 000064c0 000071b0'         .long   sp_across
     757 000064e0 000071b0'         .long   sp_across
     758 00006500 000071b0'         .long   sp_across
     759 00006520 00007470'         .long   sp_rink_wide
     760 00006540 00007470'         .long   sp_rink_wide
     761 00006560 00007470'         .long   sp_rink_wide
     762 00006580 00007470'         .long   sp_rink_wide
     763                    
     764 000065a0           sp_pass_13                              ;01101 forward - rink wide - long
     765 000065a0           sp_pass_15                              ;01111 forward - across rink - rink wide - long
     766 000065a0     000a          .word   10,12
     767 000065c0 00006e80'         .long   sp_normal_long
     768 000065e0 00007510'         .long   sp_ahead_long
     769 00006600 00007510'         .long   sp_ahead_long
     770 00006620 00007510'         .long   sp_ahead_long
     771 00006640 000072f0'         .long   sp_across_long
     772 00006660 000072f0'         .long   sp_across_long
     773 00006680 000072f0'         .long   sp_across_long
     774 000066a0 000072f0'         .long   sp_across_long
     775 000066c0 00007470'         .long   sp_rink_wide_long
     776 000066e0 00007470'         .long   sp_rink_wide_long
     777 00006700 00007470'         .long   sp_rink_wide_long
     778 00006720 00007470'         .long   sp_rink_wide_long
     779                    
     780 00006740           sp_pass_16                              ;10000 backward
     781 00006740     000a          .word   10,4
     782 00006760 00006d40'         .long   sp_normal
     783 00006780 00007650'         .long   sp_backward
     784 000067a0 00007650'         .long   sp_backward
TMS340 COFF Macro Assembler Version 6.10     Wed Apr 21 11:34:12 2021
 Copyright (c) 1985-1991  Texas Instruments Incorporated 

                                                                     PAGE   18

     785 000067c0 00007650'         .long   sp_backward
     786 000067e0           sp_pass_17                              ;10001 backward- long
     787 000067e0     000a          .word   10,4
     788 00006800 00006e80'         .long   sp_normal_long
     789 00006820 00007700'         .long   sp_backward_long
     790 00006840 00007700'         .long   sp_backward_long
     791 00006860 00007700'         .long   sp_backward_long
     792                    
     793 00006880           sp_pass_18                              ;10010 backward- across rink
     794 00006880     000a          .word   10,7
     795 000068a0 00006d40'         .long   sp_normal
     796 000068c0 00007650'         .long   sp_backward
     797 000068e0 00007650'         .long   sp_backward
     798 00006900 00007650'         .long   sp_backward
     799 00006920 000071b0'         .long   sp_across
     800 00006940 000071b0'         .long   sp_across
     801 00006960 000071b0'         .long   sp_across
     802                    
     803 00006980           sp_pass_19                              ;10011 backward- across rink - long
     804 00006980     000a          .word   10,7
     805 000069a0 00006e80'         .long   sp_normal_long
     806 000069c0 00007700'         .long   sp_backward_long
     807 000069e0 00007700'         .long   sp_backward_long
     808 00006a00 00007700'         .long   sp_backward_long
     809 00006a20 000072f0'         .long   sp_across_long
     810 00006a40 000072f0'         .long   sp_across_long
     811 00006a60 000072f0'         .long   sp_across_long
     812                    
     813 00006a80           sp_pass_20                              ;10100 backward- rink wide
     814 00006a80           sp_pass_22                              ;10110 backward- across rink - rink wide
     815 00006a80     000a          .word   10,10
     816 00006aa0 00006d40'         .long   sp_normal
     817 00006ac0 00007650'         .long   sp_backward
     818 00006ae0 00007650'         .long   sp_backward
     819 00006b00 00007650'         .long   sp_backward
     820 00006b20 000071b0'         .long   sp_across
     821 00006b40 000071b0'         .long   sp_across
     822 00006b60 000071b0'         .long   sp_across
     823 00006b80 00007470'         .long   sp_rink_wide
     824 00006ba0 00007470'         .long   sp_rink_wide
     825 00006bc0 00007470'         .long   sp_rink_wide
     826                    
     827 00006be0           sp_pass_21                              ;10101 backward- rink wide - long
     828 00006be0           sp_pass_23                              ;10111 backward- across rink - rink wide - long
     829 00006be0     000a          .word   10,10
     830 00006c00 00006d40'         .long   sp_normal
     831 00006c20 00007700'         .long   sp_backward_long
     832 00006c40 00007700'         .long   sp_backward_long
     833 00006c60 00007700'         .long   sp_backward_long
     834 00006c80 000072f0'         .long   sp_across_long
     835 00006ca0 000072f0'         .long   sp_across_long
     836 00006cc0 000072f0'         .long   sp_across_long
     837 00006ce0 00007470'         .long   sp_rink_wide_long
     838 00006d00 00007470'         .long   sp_rink_wide_long
     839 00006d20 00007470'         .long   sp_rink_wide_long
TMS340 COFF Macro Assembler Version 6.10     Wed Apr 21 11:34:12 2021
 Copyright (c) 1985-1991  Texas Instruments Incorporated 

                                                                     PAGE   19

     840                    
     841 00006d40           sp_normal
     842 00006d40     000a          .word   10,3
     843 00006d60 00006dc0'         .long   spp01
     844 00006d80 00006dc0'         .long   spp01
     845 00006da0 00006e10'         .long   spp02
     846 00006dc0     000b  spp01   .word   11              ;embed a1 as name
     847 00006dd0                   WLW     1,nmt_tab,0
     848 00006e10     091f  spp02   .word   0091fh,-20      ;Passed tuh _
     849 00006e30     000b          .word   11              ;embed a1 as name
     850 00006e40                   WLW     1,nmt_tab,0
     851                    
     852 00006e80           sp_normal_long
     853 00006e80     000a          .word   10,7
     854 00006ea0 00006dc0'         .long   spp01
     855 00006ec0 00006e10'         .long   spp02
     856 00006ee0 00006f80'         .long   spp11
     857 00006f00 00006ff0'         .long   spp12
     858 00006f20 00007060'         .long   spp13
     859 00006f40 000070d0'         .long   spp14
     860 00006f60 00007140'         .long   spp15
     861 00006f80     0920  spp11   .word   0920h,-14       ;Passed to _
     862 00006fa0     000b          .word   11              ;embed a1 as name
     863 00006fb0                   WLW     1,nmt_tab,0
     864 00006ff0     000b  spp12   .word   11              ;embed a1 as name
     865 00007000                   WL      1,nm_tab
     866 00007030     094b          .word   094bh,-50,0     ;_ Takes the pass
     867 00007060     091e  spp13   .word   091eh,-45       ;And the puck: passed to _
     868 00007080     000b          .word   11              ;embed a1 as name
     869 00007090                   WLW     1,nmt_tab,0
     870 000070d0     092d  spp14   .word   092dh,-24       ;_ Feeding _ 1
     871 000070f0     000b          .word   11              ;embed a1 as name
     872 00007100                   WLW     1,nm_tab,0
     873 00007140     092e  spp15   .word   092eh,-26       ;_ Feeding _ 2
     874 00007160     000b          .word   11              ;embed a1 as name
     875 00007170                   WLW     1,nm_tab,0
     876                    
     877 000071b0           sp_across
     878 000071b0     000a          .word   10,2
     879 000071d0 00007210'         .long   spp21
     880 000071f0 00007280'         .long   spp22
     881 00007210     0911  spp21   .word   0911h,-17       ;Over to _
     882 00007230     000b          .word   11              ;embed a1 as name
     883 00007240                   WLW     1,nmt_tab,0
     884 00007280     0959  spp22   .word   0959h,-17       ;Over to _
     885 000072a0     000b          .word   11              ;embed a1 as name
     886 000072b0                   WLW     1,nmt_tab,0
     887                    
     888 000072f0           sp_across_long
     889 000072f0     000a          .word   10,4
     890 00007310 00007210'         .long   spp21
     891 00007330 00007280'         .long   spp22
     892 00007350 00007390'         .long   spp31
     893 00007370 00007400'         .long   spp32
     894 00007390     0911  spp31   .word   0911h,-17       ;Over to _ 2
TMS340 COFF Macro Assembler Version 6.10     Wed Apr 21 11:34:12 2021
 Copyright (c) 1985-1991  Texas Instruments Incorporated 

                                                                     PAGE   20

     895 000073b0     000b          .word   11              ;embed a1 as name
     896 000073c0                   WLW     1,nmt_tab,0
     897 00007400     095a  spp32   .word   095ah,-19       ;Across to _
     898 00007420     000b          .word   11              ;embed a1 as name
     899 00007430                   WLW     1,nmt_tab,0
     900                    
     901 00007470           sp_rink_wide
     902 00007470           sp_rink_wide_long
     903 00007470     0943          .word   0943h,-66,0     ;Rink-wide pass
     904                    
     905 000074a0           sp_ahead
     906 000074a0     0958          .word   0958h,-10       ;Up to _
     907 000074c0     000b          .word   11              ;embed a1 as name
     908 000074d0                   WLW     1,nmt_tab,0
     909                    
     910                    
     911 00007510           sp_ahead_long
     912 00007510     000a          .word   10,2
     913 00007530 00007570'         .long   spp91
     914 00007550 000075e0'         .long   spp92
     915 00007570     0912  spp91   .word   0912h,-18       ;Into _
     916 00007590     000b          .word   11              ;embed a1 as name
     917 000075a0                   WLW     1,nmt_tab,0
     918 000075e0     094c  spp92   .word   94ch,-27        ;Up ahead to _
     919 00007600     000b          .word   11              ;embed a1 as name
     920 00007610                   WLW     1,nmt_tab,0
     921                    
     922 00007650           sp_backward
     923 00007650     000a          .word   10,1
     924 00007670 00007690'         .long   spp161
     925 00007690     091a  spp161  .word   091ah,-8        ;Back to _ 2
     926 000076b0     000b          .word   11              ;embed a1 as name
     927 000076c0                   WLW     1,nmt_tab,0
     928                    
     929 00007700           sp_backward_long
     930 00007700     000a          .word   10,4
     931 00007720 00007690'         .long   spp161
     932 00007740 000077a0'         .long   spp171
     933 00007760 00007810'         .long   spp172
     934 00007780 00007880'         .long   spp173
     935 000077a0     07f9  spp171  .word   07f9h,-14       ;Back to _ 1
     936 000077c0     000b          .word   11              ;embed a1 as name
     937 000077d0                   WLW     1,nmt_tab,0
     938 00007810     091a  spp172  .word   091ah,-14       ;Back to _ 1
     939 00007830     000b          .word   11              ;embed a1 as name
     940 00007840                   WLW     1,nmt_tab,0
     941 00007880     091c  spp173  .word   091ch,-39       ;He dropped it back to _
     942 000078a0     000b          .word   11              ;embed a1 as name
     943 000078b0                   WLW     1,nmt_tab,0
     944                    
     945                    **************************************************************************
     946                    *                                                                        *
     947                    * spx_shot1 - on wind up                                                 *
     948                    * spx_shot2 - on letting shot go                                         *
     949                    *       input   a6 = player block doing shoot                            *
TMS340 COFF Macro Assembler Version 6.10     Wed Apr 21 11:34:12 2021
 Copyright (c) 1985-1991  Texas Instruments Incorporated 

                                                                     PAGE   21

     950                    *               a2 = type of shot                                        *
     951                    *                0 - wrist shot                                          *
     952                    *                1 - slap shot                                           *
     953                    *                2 - backhand                                            *
     954                    *                3 - turbo backhand                                      *
     955                    *                4 - spin around                                         *
     956                    *                5 - trick shot                                          *
     957                    *                                                                        *
     958                    **************************************************************************
     959 000078f0           spx_shot1
     960 000078f0     098f          mmtm    sp,a0,a1,a2,a3,a4,a5,a6,a7,a8,a9,a10,a11
         00007900     fff0  
     961 00007910     0582          move    a2,@shot_type,W
         00007920 00000040- 
     962 00007940     1840          movk    2,a0
     963 00007950     0d5f          calla   RANDU
         00007960 00000000! 
     964 00007980     0580          move    a0,@shot_call,W
         00007990 00000050- 
     965 000079b0     0b40          cmpi    1,a0
         000079c0     fffe  
     966 000079d0     cb3a          jrnz    spsh9
     967 000079e0     b6c8          move    *a6(POF_OBJECT),a8,L            ;sender object
         000079f0     0280  
     968 00007a00     b4c1          move    *a6(POF_CHARACTER),a1,W         ;sender character
         00007a10     0070  
     969 00007a20     aecb          movb    *a6(POF_NUMBER),a11
         00007a30     0000  
     970 00007a40     07ae          move    @last_shot_time,a14,L
         00007a50 00000060- 
     971 00007a70     07a3          move    @WAVEIRQS,a3,L
         00007a80 00000000! 
     972 00007aa0     45c3          sub     a14,a3
     973 00007ab0     0b43          cmpi    90,a3
         00007ac0     ffa5  
     974 00007ad0     c22a          jrls    spsh9           ;1.5 seconds no repeat shot call (use unsigned to catch negatives from p
     975 00007ae0     b4c3          move    *a6(POF_TEAM),a3,W              ;team
         00007af0     0080  
     976 00007b00     0d5f          calla   get_speech_time_remaining
         00007b10 00000000! 
     977 00007b30     0b40          cmpi    2,a0
         00007b40     fffd  
     978 00007b50     c322          jrhi    spsh9
     979 00007b60     5600  spsh_e  clr     a0
     980 00007b70     0580          move    a0,@shot_call,W         ;we will make call, clear out pend
         00007b80 00000050- 
     981 00007ba0     b500          move    *a8(OXPOS),a0,W
         00007bb0     0150  
     982 00007bc0     b70e          move    *a8(OXVEL),a14,L
         00007bd0     0100  
     983 00007be0     142b          dec     a11
     984 00007bf0     2fcb          srl     2,a11
     985 00007c00     ca02          jrz     sxs_1
     986 00007c10     03a0          neg     a0
     987 00007c20     03ae          neg     a14
TMS340 COFF Macro Assembler Version 6.10     Wed Apr 21 11:34:12 2021
 Copyright (c) 1985-1991  Texas Instruments Incorporated 

                                                                     PAGE   22

     988 00007c30     4dcb  sxs_1   move    a14,a11
     989 00007c40     b503          move    *a8(OZPOS),a3,W
         00007c50     0190  
     990 00007c60     0d3f          callr   get_location_number
         00007c70     04ca  
     991 00007c80     24a4          sll     5,a4
     992 00007c90     0b24          addi    ssh1l,a4
         00007ca0 00007db0' 
     993 00007cc0     8684          move    *a4,a4,L
     994 00007cd0     0924          call    a4
     995 00007ce0     07c0          move    @WAVEIRQS,@last_shot_time,L
         00007cf0 00000000! 
         00007d10 00000060- 
     996 00007d30     aec0          movb    *a6(POF_NUMBER),a0
         00007d40     0000  
     997 00007d50     0580          move    a0,@last_shot_player
         00007d60 00000080- 
     998 00007d80     09af  spsh9   mmfm    sp,a0,a1,a2,a3,a4,a5,a6,a7,a8,a9,a10,a11
         00007d90     0fff  
     999 00007da0     0960          rets
    1000                    
    1001 00007db0 00007f10' ssh1l   .long   ssh1_reg
    1002 00007dd0 000089f0'         .long   ssh1_crease
    1003 00007df0 00008ca0'         .long   ssh1_far
    1004 00007e10 00008f40'         .long   ssh1_rebound
    1005 00007e30 00009040'         .long   ssh1_breakaway
    1006 00007e50 00009300'         .long   ssh1_deke
    1007 00007e70 00009410'         .long   ssh1_point
    1008 00007e90 00009500'         .long   ssh1_ring
    1009 00007eb0 000095f0'         .long   ssh1_slot
    1010 00007ed0 00009720'         .long   ssh1_center
    1011 00007ef0 00009850'         .long   ssh1_blue
    1012                    
    1013 00007f10           ssh1_reg
    1014 00007f10     0be0          subi    688,a0
         00007f20     fd4f  
    1015 00007f30     03a0          neg     a0
    1016 00007f40     0b40          cmpi    200,a0
         00007f50     ff37  
    1017 00007f60     c40d          jrlt    sx_vf           ;very fast
    1018 00007f70     0b40          cmpi    350,a0
         00007f80     fea1  
    1019 00007f90     c40e          jrlt    sx_fs           ;fast
    1020 00007fa0     0b40          cmpi    500,a0
         00007fb0     fe0b  
    1021 00007fc0     c40f          jrlt    sx_n            ;near
    1022 00007fd0     0b40          cmpi    700,a0
         00007fe0     fd43  
    1023 00007ff0     c710          jrgt    sx_f            ;far
    1024 00008000     09ea  sx_m    movi    spx1_medium,a10
         00008010 000082d0' 
    1025 00008030     c00f          jruc    spxsg
    1026 00008040     09ea  sx_vf   movi    spx1_very_fast,a10
         00008050 00008150' 
    1027 00008070     c00b          jruc    spxsg
TMS340 COFF Macro Assembler Version 6.10     Wed Apr 21 11:34:12 2021
 Copyright (c) 1985-1991  Texas Instruments Incorporated 

                                                                     PAGE   23

    1028 00008080     09ea  sx_fs   movi    spx1_fast,a10
         00008090 00008190' 
    1029 000080b0     c007          jruc    spxsg
    1030 000080c0     09ea  sx_n    movi    spx1_near,a10
         000080d0 00008210' 
    1031 000080f0     c003          jruc    spxsg
    1032 00008100     09ea  sx_f    movi    spx1_far,a10
         00008110 00008370' 
    1033 00008130     c000  spxsg   jruc    handle_speech_string_sc
         00008140     1100  
    1034                    
    1035 00008150           spx1_very_fast
    1036 00008150     000a          .word   10,1
    1037 00008170 00008430'         .long   sx1_1_1
    1038 00008190           spx1_fast
    1039 00008190     000a          .word   10,3
    1040 000081b0 00008430'         .long   sx1_1_1,sx1_2_1,sx1_2_2
    1041 00008210           spx1_near
    1042 00008210     000a          .word   10,5
    1043 00008230 00008430'         .long   sx1_1_1,sx1_2_1,sx1_2_2,sx1_3_1,sx1_3_2
    1044 000082d0           spx1_medium
    1045 000082d0     000a          .word   10,4
    1046 000082f0 000084c0'         .long   sx1_3_1,sx1_3_2,sxtype,sxtype
    1047 00008370           spx1_far
    1048 00008370     000a          .word   10,4
    1049 00008390 000084c0'         .long   sx1_3_1,sx1_3_2,sxtype,sxtype,sx1_5_1
    1050                    
    1051 00008430     07db  sx1_1_1 .word   007dbh,-21,0            ; _ Shooting 
    1052 00008460     08a4  sx1_2_1 .word   008a4h,-27,0            ; _ Shooting
    1053 00008490     08b2  sx1_2_2 .word   008b2h,-30,0            ; _ Shooting
    1054 000084c0     08d4  sx1_3_1 .word   008d4h,-41,0            ; _ Winds up
    1055 000084f0     08c7  sx1_3_2 .word   008c7h,-43,0            ; Heres the shot
    1056                    
    1057 00008520           sxtype  WL      2,sxttab
    1058 00008550     0000          .word   0
    1059 00008560 000086c0' sxttab  .long   sxtwr
    1060 00008580 00008780'         .long   sxtsl
    1061 000085a0 00008890'         .long   sxtbk
    1062 000085c0 00008890'         .long   sxtbk
    1063 000085e0 00008780'         .long   sxtsl
    1064 00008600 00008950'         .long   sxtsp
    1065 00008620 00008950'         .long   sxtsp           ;safety
    1066 00008640 00008950'         .long   sxtsp           ;extra
    1067 00008660 00008950'         .long   sxtsp           ;after
    1068 00008680 00008950'         .long   sxtsp           ;end of
    1069 000086a0 00008950'         .long   sxtsp           ;table
    1070                    
    1071 000086c0     000a  sxtwr   .word   10,2
    1072 000086e0 00008720'         .long   sx1_401,sx1_402
    1073 00008720     08bb  sx1_401 .word   008bbh,-49,0            ; _ With a wristshot
    1074 00008750     08bd  sx1_402 .word   008bdh,-58,0            ; A wristshot
    1075                    
    1076 00008780     000a  sxtsl   .word   10,3
    1077 000087a0 00008800'         .long   sx1_411,sx1_412,sx1_413
    1078 00008800     08b9  sx1_411 .word   008b9h,-63,0            ; Slapshot
TMS340 COFF Macro Assembler Version 6.10     Wed Apr 21 11:34:12 2021
 Copyright (c) 1985-1991  Texas Instruments Incorporated 

                                                                     PAGE   24

    1079 00008830     08b8  sx1_412 .word   008b8h,-69,0            ; _ with the slapshot
    1080 00008860     08ba  sx1_413 .word   008bah,-69,0            ; _ The slapshot
    1081                    
    1082 00008890     000a  sxtbk   .word   10,2
    1083 000088b0 000088f0'         .long   sx1_421,sx1_422
    1084 000088f0     08f8  sx1_421 .word   008f8h,-58,0            ; The backhander
    1085 00008920     08da  sx1_422 .word   008dah,-68,0            ; Heres a backhander
    1086                    
    1087 00008950     000a  sxtsp   .word   10,1
    1088 00008970 00008990'         .long   sx1_431
    1089 00008990     0901  sx1_431 .word   00901h,-67,0            ; Supershot
    1090                    
    1091 000089c0     08f0  sx1_5_1 .word   008f0h,-58,0            ;Here-s a long shot
    1092                    
    1093                    
    1094 000089f0           ssh1_crease
    1095 000089f0     07a1          move    @last_shot_time,a1,L
         00008a00 00000060- 
    1096 00008a20     07ae          move    @WAVEIRQS,a14,L
         00008a30 00000000! 
    1097 00008a50     442e          sub     a1,a14
    1098 00008a60     0b4e          cmpi    200,a14
         00008a70     ff37  
    1099 00008a80     c200          jrls    ssh1_reg        ;minimum time between shot call and crease call 3+ seconds
         00008a90     ff47  
    1100 00008aa0     09ea          movi    spcrs,a10
         00008ab0 00008af0' 
    1101 00008ad0     c000          jruc    handle_speech_string_sc
         00008ae0     1066  
    1102 00008af0     000a  spcrs   .word   10,5
    1103 00008b10 00008bb0'         .long   spcrs1,spcrs2,spcrs3,spcrs4,spcrs5
    1104 00008bb0     07d9  spcrs1  .word   007d9h,-43,0            ; _ To the net: shooting
    1105 00008be0     0806  spcrs2  .word   00806h,-54,0            ; _ Going to the net 2
    1106 00008c10     0847  spcrs3  .word   00847h,-61,0            ; _ Into the crease
    1107 00008c40     0807  spcrs4  .word   00807h,-61,0            ; He cuts to the net 2
    1108 00008c70     0807  spcrs5  .word   00807h,-61,0            ; He cuts to the net
    1109                    
    1110 00008ca0           ssh1_far
    1111 00008ca0     07ae          move    @minutes,a14,L          ;minutes and tenseconds
         00008cb0 00000000! 
    1112 00008cd0     ca00          jrz     ssh1_reg                ;do normal call if no time left (not so bad)
         00008ce0     ff22  
    1113 00008cf0     09ea          movi    spfar,a10
         00008d00 00008d40' 
    1114 00008d20     c000          jruc    handle_speech_string_sc
         00008d30     1041  
    1115 00008d40     000a  spfar   .word   10,6
    1116 00008d60 00008e20'         .long   spfar1,spfar2,spfar3,spfar4,spfar5,spfar6
    1117 00008e20     0904  spfar1  .word   00904h,-53,0            ; Ugly shot
    1118 00008e50     08f0  spfar2  .word   008f0h,-68,0            ; Here-s a long shot
    1119 00008e80     08ff  spfar3  .word   008ffh,-74,0            ; An impossible shot
    1120 00008eb0     0903  spfar4  .word   00903h,-76,0            ; Terrible shot
    1121 00008ee0     0906  spfar5  .word   00906h,-65,0            ; What was he thinking ?
    1122 00008f10     0908  spfar6  .word   00908h,-61,0            ; Oh man (disgusted)
    1123                    
TMS340 COFF Macro Assembler Version 6.10     Wed Apr 21 11:34:12 2021
 Copyright (c) 1985-1991  Texas Instruments Incorporated 

                                                                     PAGE   25

    1124 00008f40           ssh1_rebound
    1125                    ;       movi    800,a0
    1126                    ;       calla   RANDPER
    1127                    ;       jrnc    ssh1_reg
    1128 00008f40     05ae          move    @last_shot_player,a14,W
         00008f50 00000080- 
    1129 00008f70     aec0          movb    *a6(POF_NUMBER),a0
         00008f80     0000  
    1130 00008f90     480e          cmp     a0,a14
    1131 00008fa0     cb00          jrnz    ssh1_reg
         00008fb0     fef5  
    1132 00008fc0     09ea          movi    spreb,a10
         00008fd0 00009010' 
    1133 00008ff0     c000          jruc    handle_speech_string_sc
         00009000     1014  
    1134 00009010     08ed  spreb   .word   008edh,-72,0            ; _ Again with the shot 2
    1135                    
    1136 00009040           ssh1_breakaway
    1137 00009040     09c0          movi    900,a0          ;most of our percentaging was done already
         00009050     0384  
    1138 00009060     0d5f          calla   RANDPER
         00009070 00000000! 
    1139 00009090     c900          jrnc    ssh1_reg
         000090a0     fee6  
    1140 000090b0     09ea          movi    sp_brk,a10
         000090c0 00009100' 
    1141 000090e0     c000          jruc    handle_speech_string_sc
         000090f0     1005  
    1142 00009100     000a  sp_brk  .word   10,6
    1143 00009120 000091e0'         .long   spbrk1,spbrk2,spbrk3,spbrk4,spbrk5,spbrk6
    1144 000091e0     087f  spbrk1  .word   0087fh,-48,0            ; _ On the attack
    1145 00009210     0828  spbrk2  .word   00828h,-52,0            ; _ Out in front
    1146 00009240     082c  spbrk3  .word   0082ch,-61,0            ; Breakaway !
    1147 00009270     0849  spbrk4  .word   00849h,-62,0            ; _ All alone 1
    1148 000092a0     0848  spbrk5  .word   00848h,-71,0            ; He-s all alone
    1149 000092d0     082d  spbrk6  .word   0082dh,-85,0            ; He-s got a breakaway 2
    1150                    
    1151 00009300           ssh1_deke
    1152 00009300     09ea          movi    spdek,a10               ;random is done in get_location_number
         00009310 00009350' 
    1153 00009330     c000          jruc    handle_speech_string_sc
         00009340     0fe0  
    1154 00009350     000a  spdek   .word   10,2
    1155 00009370 000093b0'         .long   spdek1,spdek2
    1156 000093b0     086f  spdek1  .word   0086fh,-51,0            ; He dekes !
    1157 000093e0     0870  spdek2  .word   00870h,-50,0            ; _ Stickhandling !
    1158                    
    1159 00009410           ssh1_point
    1160 00009410     09c0          movi    500,a0
         00009420     01f4  
    1161 00009430     0d5f          calla   RANDPER
         00009440 00000000! 
    1162 00009460     c900          jrnc    ssh1_reg
         00009470     fea9  
    1163 00009480     09ea          movi    sppnt,a10
TMS340 COFF Macro Assembler Version 6.10     Wed Apr 21 11:34:12 2021
 Copyright (c) 1985-1991  Texas Instruments Incorporated 

                                                                     PAGE   26

         00009490 000094d0' 
    1164 000094b0     c000          jruc    handle_speech_string_sc
         000094c0     0fc8  
    1165 000094d0     081d  sppnt   .word   0081dh,-46,0            ; _ At the point
    1166                    
    1167 00009500           ssh1_ring
    1168 00009500     09c0          movi    500,a0
         00009510     01f4  
    1169 00009520     0d5f          calla   RANDPER
         00009530 00000000! 
    1170 00009550     c900          jrnc    ssh1_reg
         00009560     fe9a  
    1171 00009570     09ea          movi    sprng,a10
         00009580 000095c0' 
    1172 000095a0     c000          jruc    handle_speech_string_sc
         000095b0     0fb9  
    1173 000095c0     089d  sprng   .word   0089dh,-69,0            ; _ From the top of the ring 
    1174                    
    1175 000095f0           ssh1_slot
    1176 000095f0     09c0          movi    500,a0
         00009600     01f4  
    1177 00009610     0d5f          calla   RANDPER
         00009620 00000000! 
    1178 00009640     c900          jrnc    ssh1_reg
         00009650     fe8b  
    1179 00009660     09ea          movi    spslt,a10
         00009670 000096b0' 
    1180 00009690     c000          jruc    handle_speech_string_sc
         000096a0     0faa  
    1181 000096b0     000a  spslt   .word   10,1
    1182 000096d0 000096f0'         .long   spslt1
    1183 000096f0     089a  spslt1  .word   0089ah,-67,0            ; _ Shooting from the slot
    1184                    
    1185 00009720           ssh1_center
    1186 00009720     09c0          movi    300,a0
         00009730     012c  
    1187 00009740     0d5f          calla   RANDPER
         00009750 00000000! 
    1188 00009770     c900          jrnc    ssh1_reg
         00009780     fe78  
    1189 00009790     5600          clr     a0
    1190 000097a0     0580          move    a0,@line_crossed,W
         000097b0 000000c0- 
    1191 000097d0     09ea          movi    spcnt,a10
         000097e0 00009820' 
    1192 00009800     c000          jruc    handle_speech_string_sc
         00009810     0f93  
    1193 00009820     0816  spcnt   .word   00816h,-60,0            ; He-s at center ice
    1194                    
    1195 00009850           ssh1_blue
    1196 00009850     0b40          cmpi    230,a0
         00009860     ff19  
    1197 00009870     c400          jrlt    ssh1_reg                ;we crossed blue, but wrong way
         00009880     fe68  
    1198 00009890     09c0          movi    300,a0
TMS340 COFF Macro Assembler Version 6.10     Wed Apr 21 11:34:12 2021
 Copyright (c) 1985-1991  Texas Instruments Incorporated 

                                                                     PAGE   27

         000098a0     012c  
    1199 000098b0     0d5f          calla   RANDPER
         000098c0 00000000! 
    1200 000098e0     c900          jrnc    ssh1_reg
         000098f0     fe61  
    1201 00009900     5600          clr     a0
    1202 00009910     0580          move    a0,@line_crossed,W
         00009920 000000c0- 
    1203 00009940     09ea          movi    spbll,a10
         00009950 00009990' 
    1204 00009970     c000          jruc    handle_speech_string_sc
         00009980     0f7c  
    1205 00009990     000a  spbll   .word   10,4
    1206 000099b0 00009a30'         .long   spbll1,spbll2,spbll3,spbll4
    1207 00009a30     0819  spbll1  .word   00819h,-57,0            ; _ At the blue line
    1208 00009a60     086c  spbll2  .word   0086ch,-63,0            ; Over the blue line
    1209 00009a90     0817  spbll3  .word   00817h,-67,0            ; He-s at the blue line
    1210 00009ac0     0861  spbll4  .word   00861h,-86,0            ; _ Across the line
    1211                    
    1212 00009af0           spx_shot2
    1213 00009af0     098f          mmtm    sp,a0,a1,a2,a3,a4,a5,a6,a7,a8,a9,a10,a11
         00009b00     fff0  
    1214 00009b10     05a2          move    @shot_call,a2,W
         00009b20 00000050- 
    1215 00009b40     ca3a          jrz     spx29
    1216 00009b50     05a2          move    @shot_type,a2,W
         00009b60 00000040- 
    1217 00009b80     b6c8          move    *a6(POF_OBJECT),a8,L            ;sender object
         00009b90     0280  
    1218 00009ba0     b4c1          move    *a6(POF_CHARACTER),a1,W         ;sender character
         00009bb0     0070  
    1219 00009bc0     aecb          movb    *a6(POF_NUMBER),a11
         00009bd0     0000  
    1220 00009be0     07ae          move    @last_shot_time,a14,L
         00009bf0 00000060- 
    1221 00009c10     07a3          move    @WAVEIRQS,a3,L
         00009c20 00000000! 
    1222 00009c40     45c3          sub     a14,a3
    1223 00009c50     0b43          cmpi    90,a3
         00009c60     ffa5  
    1224 00009c70     c227          jrls    spx29           ;don't repeat the last shot called for at least 1.5 seconds
    1225 00009c80     b4c3          move    *a6(POF_TEAM),a3,W              ;team
         00009c90     0080  
    1226 00009ca0     0d5f          calla   get_speech_time_remaining
         00009cb0 00000000! 
    1227 00009cd0     0b40          cmpi    4,a0
         00009ce0     fffb  
    1228 00009cf0     c31f          jrhi    spx29
    1229 00009d00     5600  spsh2_e clr     a0
    1230 00009d10     0580          move    a0,@shot_call,W         ;we will make call, clear out pend
         00009d20 00000050- 
    1231 00009d40     b500          move    *a8(OXPOS),a0,W
         00009d50     0150  
    1232 00009d60     b70e          move    *a8(OXVEL),a14,L
         00009d70     0100  
TMS340 COFF Macro Assembler Version 6.10     Wed Apr 21 11:34:12 2021
 Copyright (c) 1985-1991  Texas Instruments Incorporated 

                                                                     PAGE   28

    1233 00009d80     142b          dec     a11
    1234 00009d90     2fcb          srl     2,a11
    1235 00009da0     ca02          jrz     sxs_2
    1236 00009db0     03a0          neg     a0
    1237 00009dc0     03ae          neg     a14
    1238 00009dd0     4dcb  sxs_2   move    a14,a11
    1239 00009de0     b503          move    *a8(OZPOS),a3,W
         00009df0     0190  
    1240 00009e00     0d3f          callr   get_location_number
         00009e10     02b0  
    1241 00009e20     24a4          sll     5,a4
    1242 00009e30     0b24          addi    ssh2l,a4
         00009e40 00009f20' 
    1243 00009e60     8684          move    *a4,a4,L
    1244 00009e70     0924          call    a4
    1245 00009e80     07c0          move    @WAVEIRQS,@last_shot_time,L
         00009e90 00000000! 
         00009eb0 00000060- 
    1246 00009ed0     aec0          movb    *a6(POF_NUMBER),a0
         00009ee0     0000  
    1247 00009ef0     09af  spx29   mmfm    sp,a0,a1,a2,a3,a4,a5,a6,a7,a8,a9,a10,a11
         00009f00     0fff  
    1248 00009f10     0960          rets
    1249                    
    1250 00009f20 0000a080' ssh2l   .long   ssh2_reg
    1251 00009f40 0000b710'         .long   ssh2_crease
    1252 00009f60 0000b9c0'         .long   ssh2_far
    1253 00009f80 0000bc60'         .long   ssh2_rebound
    1254 00009fa0 0000bdd0'         .long   ssh2_breakaway
    1255 00009fc0 0000c130'         .long   ssh2_deke
    1256 00009fe0 0000c240'         .long   ssh2_point
    1257 0000a000 0000c330'         .long   ssh2_ring
    1258 0000a020 0000c420'         .long   ssh2_slot
    1259 0000a040 0000c550'         .long   ssh2_center
    1260 0000a060 0000c680'         .long   ssh2_blue
    1261                    
    1262 0000a080           ssh2_reg
    1263 0000a080     0be0          subi    688,a0
         0000a090     fd4f  
    1264 0000a0a0     03a0          neg     a0
    1265 0000a0b0     0b40          cmpi    250,a0
         0000a0c0     ff05  
    1266 0000a0d0     c40d          jrlt    sx2_vf          ;very fast
    1267 0000a0e0     0b40          cmpi    400,a0
         0000a0f0     fe6f  
    1268 0000a100     c40e          jrlt    sx2_fs          ;fast
    1269 0000a110     0b40          cmpi    550,a0
         0000a120     fdd9  
    1270 0000a130     c40f          jrlt    sx2_n           ;near
    1271 0000a140     0b40          cmpi    750,a0
         0000a150     fd11  
    1272 0000a160     c710          jrgt    sx2_f           ;far
    1273 0000a170     09ea  sx2_m   movi    spx2_medium,a10
         0000a180 0000a9f0' 
    1274 0000a1a0     c00f          jruc    spx2g
TMS340 COFF Macro Assembler Version 6.10     Wed Apr 21 11:34:12 2021
 Copyright (c) 1985-1991  Texas Instruments Incorporated 

                                                                     PAGE   29

    1275 0000a1b0     09ea  sx2_vf  movi    spx2_very_fast,a10
         0000a1c0 0000a2c0' 
    1276 0000a1e0     c00b          jruc    spx2g
    1277 0000a1f0     09ea  sx2_fs  movi    spx2_fast,a10
         0000a200 0000a3a0' 
    1278 0000a220     c007          jruc    spx2g
    1279 0000a230     09ea  sx2_n   movi    spx2_near,a10
         0000a240 0000a500' 
    1280 0000a260     c003          jruc    spx2g
    1281 0000a270     09ea  sx2_f   movi    spx2_far,a10
         0000a280 0000b650' 
    1282 0000a2a0     c000  spx2g   jruc    handle_speech_string_sc
         0000a2b0     0ee9  
    1283                    
    1284 0000a2c0           spx2_very_fast
    1285 0000a2c0     000a          .word   10,3
    1286 0000a2e0 00008430'         .long   sx1_1_1,sx2_1_2,sx2_1_3
    1287 0000a340     0fa1  sx2_1_2 .word   00fa1h,-19,0            ; He shoots (A)
    1288 0000a370     0fa7  sx2_1_3 .word   00fa7h,-20,0            ; He shoots (D)
    1289                    
    1290 0000a3a0           spx2_fast
    1291 0000a3a0     000a          .word   10,7
    1292 0000a3c0 00008430'         .long   sx1_1_1,sx2_1_2,sx2_1_3,sx1_2_1,sx1_2_2,sx2_2_1,sx2_2_2
    1293 0000a4a0     089c  sx2_2_1 .word   0089ch,-30,0            ; He shoots
    1294 0000a4d0     089c  sx2_2_2 .word   0089ch,-30,0            ; He shoots
    1295                    
    1296 0000a500           spx2_near
    1297 0000a500     000a          .word   10,15
    1298 0000a520 00008430'         .long   sx1_1_1,sx1_2_1,sx1_2_2,sx2_1_2,sx2_1_3,sx2_2_1,sx2_2_2
    1299 0000a600 0000a700'         .long   sx2_3_1,sx2_3_2,sx2_3_3,sx2_3m,sx2_3m,sx2_3m,sx2_3m,sx2_3m
    1300                    
    1301 0000a700     089e  sx2_3_1 .word   0089eh,-39,0            ; _ Shoots one
    1302 0000a730     08c7  sx2_3_2 .word   008c7h,-43,0            ; Heres the shot
    1303 0000a760     084f  sx2_3_3 .word   0084fh,-45,0            ; Great Shot _
    1304                    
    1305 0000a790           sx2_3m  WL      2,sx23l
    1306 0000a7c0     0000          .word   0
    1307 0000a7d0 0000a760' sx23l   .long   sx2_3_3
    1308 0000a7f0 0000a930'         .long   sx23o
    1309 0000a810 0000a760'         .long   sx2_3_3
    1310 0000a830 0000a930'         .long   sx23o
    1311 0000a850 0000a930'         .long   sx23o
    1312 0000a870 0000a930'         .long   sx23o
    1313 0000a890 0000a930'         .long   sx23o   ;extra
    1314 0000a8b0 0000a930'         .long   sx23o
    1315 0000a8d0 0000a930'         .long   sx23o
    1316 0000a8f0 0000a930'         .long   sx23o
    1317 0000a910 0000a930'         .long   sx23o
    1318                    
    1319 0000a930     000a  sx23o   .word   10,2
    1320 0000a950 0000a990'         .long   sx2_3m1,sx2_3m2
    1321 0000a990     08cd  sx2_3m1 .word   008cdh,-37,0            ; A rocket
    1322 0000a9c0     08d2  sx2_3m2 .word   008d2h,-39,0            ; A blast
    1323                    
    1324 0000a9f0           spx2_medium
TMS340 COFF Macro Assembler Version 6.10     Wed Apr 21 11:34:12 2021
 Copyright (c) 1985-1991  Texas Instruments Incorporated 

                                                                     PAGE   30

    1325 0000a9f0     000a          .word   10,6
    1326 0000aa10 0000a700'         .long   sx2_3_1,sx2_3_2,sx2_3_3,satype,satype,satype
    1327                    
    1328 0000aad0           satype  WL      2,salist
    1329 0000ab00     0000          .word   0
    1330 0000ab10 0000ac70' salist  .long   sa2mw
    1331 0000ab30 0000acd0'         .long   sa2ms
    1332 0000ab50 0000ad50'         .long   sa2mb
    1333 0000ab70 0000ad50'         .long   sa2mb
    1334 0000ab90 0000adb0'         .long   sa2mr
    1335 0000abb0 0000ae30'         .long   sa2mx
    1336 0000abd0 0000ae30'         .long   sa2mx
    1337 0000abf0 0000ae30'         .long   sa2mx
    1338 0000ac10 0000ae30'         .long   sa2mx
    1339 0000ac30 0000ae30'         .long   sa2mx
    1340 0000ac50 0000ae30'         .long   sa2mx
    1341                    
    1342 0000ac70     000a  sa2mw   .word   10,2
    1343 0000ac90 0000af50'         .long   sx2mg,sx2mw
    1344 0000acd0     000a  sa2ms   .word   10,3
    1345 0000acf0 0000af50'         .long   sx2mg,sx2msr,s2msrx
    1346 0000ad50     000a  sa2mb   .word   10,2
    1347 0000ad70 0000af50'         .long   sx2mg,sx2mb
    1348 0000adb0     000a  sa2mr   .word   10,3
    1349 0000add0 0000af50'         .long   sx2mg,sx2msr,s2msrx
    1350 0000ae30     000a  sa2mx   .word   10,8
    1351 0000ae50 0000af50'         .long   sx2mg,sx2msr,s2msrx,sx2mx1,sx2mx1,sx2mx1,sx2mx1,sx2mx1
    1352                    
    1353 0000af50     000a  sx2mg   .word   10,2
    1354 0000af70 0000afb0'         .long   sx2mg1,sx2mg2
    1355 0000afb0     08e7  sx2mg1  .word   008e7h,-64              ; Good shot by _
    1356 0000afd0                   WWLW    11,1,nm_tab,0
    1357 0000b020     090c  sx2mg2  .word   0090ch,-65,0            ; He pulled the trigger
    1358                    
    1359 0000b050     000a  sx2mw   .word   10,3
    1360 0000b070 0000b0d0'         .long   sx2mw1,sx2mw2,sx2mw3
    1361 0000b0d0     08bb  sx2mw1  .word   008bbh,-49,0            ; _ With a wristshot
    1362 0000b100     08bd  sx2mw2  .word   008bdh,-58,0            ; A wristshot
    1363 0000b130     08bc  sx2mw3  .word   008bch,-78,0            ; _ Lets go a wristshot
    1364                    
    1365 0000b160     000a  sx2mb   .word   10,2
    1366 0000b180 0000b1c0'         .long   sx2mb1,sx2mb2
    1367 0000b1c0     08f8  sx2mb1  .word   008f8h,-58,0            ; The backhander
    1368 0000b1f0     08da  sx2mb2  .word   008dah,-68,0            ; Heres a backhander
    1369                    
    1370 0000b220     000a  sx2msr  .word   10,5
    1371 0000b240 0000b2e0'         .long   sx2msr1,sx2msr2,sx2msr3,sx2msr4,sx2msr5
    1372 0000b2e0     08ce  sx2msr1 .word   008ceh,-51,0            ; _ With a rocket
    1373 0000b310     08b6  sx2msr2 .word   008b6h,-56,0            ; What a shot
    1374 0000b340     08b9  sx2msr3 .word   008b9h,-63,0            ; Slapshot
    1375 0000b370     08b8  sx2msr4 .word   008b8h,-69,0            ; _ with the slapshot
    1376 0000b3a0     08ba  sx2msr5 .word   008bah,-69,0            ; _ The slapshot
    1377                    
    1378 0000b3d0     000a  s2msrx  .word   10,7
    1379 0000b3f0 0000b4d0'         .long   s2msrx2,s2msrx3,s2msrx4,s2msrx5,s2msrx6,s2msrx7,s2msrx8
TMS340 COFF Macro Assembler Version 6.10     Wed Apr 21 11:34:12 2021
 Copyright (c) 1985-1991  Texas Instruments Incorporated 

                                                                     PAGE   31

    1380 0000b4d0     08af  s2msrx2 .word   008afh,-55,0            ; What a shot
    1381 0000b500     08a3  s2msrx3 .word   008a3h,-57,0            ; He fired it
    1382 0000b530     090e  s2msrx4 .word   0090eh,-58,0            ; _ Fires 
    1383 0000b560     090a  s2msrx5 .word   0090ah,-65,0            ; He-s firing bullets
    1384 0000b590     08f1  s2msrx6 .word   008f1h,-79,0            ; Wow what a shot
    1385 0000b5c0     08f7  s2msrx7 .word   008f7h,-86,0            ; Oh what a powerful shot
    1386 0000b5f0     08db  s2msrx8 .word   008dbh,-102,0           ; He got great wood on that one
    1387                    
    1388 0000b620     0901  sx2mx1  .word   00901h,-67,0            ; Supershot
    1389                    
    1390 0000b650           spx2_far
    1391 0000b650     000a          .word   10,2
    1392 0000b670 0000b6b0'         .long   sx2f1,sx2f2
    1393 0000b6b0     0908  sx2f1   .word   00908h,-61,0            ; Oh man (disgusted)
    1394 0000b6e0     0906  sx2f2   .word   00906h,-65,0            ; What was he thinking ?
    1395                    
    1396 0000b710           ssh2_crease
    1397 0000b710     07a1          move    @last_shot_time,a1,L
         0000b720 00000060- 
    1398 0000b740     07ae          move    @WAVEIRQS,a14,L
         0000b750 00000000! 
    1399 0000b770     442e          sub     a1,a14
    1400 0000b780     0b4e          cmpi    200,a14
         0000b790     ff37  
    1401 0000b7a0     c200          jrls    ssh2_reg        ;minimum time between shot call and crease call 3+ seconds
         0000b7b0     fe8c  
    1402 0000b7c0     09ea          movi    sp2crs,a10
         0000b7d0 0000b810' 
    1403 0000b7f0     c000          jruc    handle_speech_string_sc
         0000b800     0d94  
    1404 0000b810     000a  sp2crs  .word   10,5
    1405 0000b830 0000b8d0'         .long   sp2crs1,sp2crs2,sp2crs3,sp2crs4,sp2crs5
    1406 0000b8d0     07d9  sp2crs1 .word   007d9h,-43,0            ; _ To the net: shooting
    1407 0000b900     0806  sp2crs2 .word   00806h,-54,0            ; _ Going to the net 2
    1408 0000b930     0847  sp2crs3 .word   00847h,-61,0            ; _ Into the crease
    1409 0000b960     0807  sp2crs4 .word   00807h,-61,0            ; He cuts to the net 2
    1410 0000b990     0807  sp2crs5 .word   00807h,-61,0            ; He cuts to the net 2
    1411                    
    1412 0000b9c0           ssh2_far
    1413 0000b9c0     07ae          move    @minutes,a14,L          ;minutes and tenseconds
         0000b9d0 00000000! 
    1414 0000b9f0     ca00          jrz     ssh2_reg                ;do normal call if no time left (not so bad)
         0000ba00     fe67  
    1415 0000ba10     09ea          movi    sp2far,a10
         0000ba20 0000ba60' 
    1416 0000ba40     c000          jruc    handle_speech_string_sc
         0000ba50     0d6f  
    1417 0000ba60     000a  sp2far  .word   10,6
    1418 0000ba80 0000bb40'         .long   sp2far1,sp2far2,sp2far3,sp2far4,sp2far5,sp2far6
    1419 0000bb40     0904  sp2far1 .word   00904h,-53,0            ; Ugly shot
    1420 0000bb70     08f0  sp2far2 .word   008f0h,-68,0            ; Here-s a long shot
    1421 0000bba0     08ff  sp2far3 .word   008ffh,-74,0            ; An impossible shot
    1422 0000bbd0     0903  sp2far4 .word   00903h,-76,0            ; Terrible shot
    1423 0000bc00     0906  sp2far5 .word   00906h,-65,0            ; What was he thinking ?
    1424 0000bc30     0908  sp2far6 .word   00908h,-61,0            ; Oh man (disgusted)
TMS340 COFF Macro Assembler Version 6.10     Wed Apr 21 11:34:12 2021
 Copyright (c) 1985-1991  Texas Instruments Incorporated 

                                                                     PAGE   32

    1425                    
    1426 0000bc60           ssh2_rebound
    1427 0000bc60     09c0          movi    800,a0
         0000bc70     0320  
    1428 0000bc80     0d5f          calla   RANDPER
         0000bc90 00000000! 
    1429 0000bcb0     c900          jrnc    ssh2_reg
         0000bcc0     fe3b  
    1430 0000bcd0     05ae          move    @last_shot_player,a14,W
         0000bce0 00000080- 
    1431 0000bd00     aec0          movb    *a6(POF_NUMBER),a0
         0000bd10     0000  
    1432 0000bd20     480e          cmp     a0,a14
    1433 0000bd30     cb00          jrnz    ssh2_reg
         0000bd40     fe33  
    1434 0000bd50     09ea          movi    sp2reb,a10
         0000bd60 0000bda0' 
    1435 0000bd80     c000          jruc    handle_speech_string_sc
         0000bd90     0d3b  
    1436 0000bda0     08ed  sp2reb  .word   008edh,-72,0            ; _ Again with the shot 2
    1437                    
    1438 0000bdd0           ssh2_breakaway
    1439 0000bdd0     09c0          movi    200,a0
         0000bde0     00c8  
    1440 0000bdf0     0d5f          calla   RANDPER
         0000be00 00000000! 
    1441 0000be20     c900          jrnc    ssh2_reg
         0000be30     fe24  
    1442 0000be40     09ea          movi    sp2brk,a10
         0000be50 0000be90' 
    1443 0000be70     c000          jruc    handle_speech_string_sc
         0000be80     0d2c  
    1444 0000be90     000a  sp2brk  .word   10,8
    1445 0000beb0 0000bfb0'         .long   sp2brk1,sp2brk2,sp2brk3,sp2brk4,sp2brk5,sp2brk6,sp2brk7,sp2brk8
    1446 0000bfb0     080d  sp2brk1 .word   0080dh,-62,0            ; He skates in 2
    1447 0000bfe0     0877  sp2brk2 .word   00877h,-67,0            ; _ With a drive
    1448 0000c010     087f  sp2brk3 .word   0087fh,-48,0            ; _ On the attack
    1449 0000c040     0828  sp2brk4 .word   00828h,-52,0            ; _ Out in front
    1450 0000c070     082c  sp2brk5 .word   0082ch,-61,0            ; Breakaway !
    1451 0000c0a0     0849  sp2brk6 .word   00849h,-62,0            ; _ All alone 1
    1452 0000c0d0     0848  sp2brk7 .word   00848h,-71,0            ; He-s all alone
    1453 0000c100     082d  sp2brk8 .word   0082dh,-85,0            ; He-s got a breakaway 2
    1454                    
    1455 0000c130           ssh2_deke
    1456 0000c130     09ea          movi    sp2dek,a10
         0000c140 0000c180' 
    1457 0000c160     c000          jruc    handle_speech_string_sc
         0000c170     0cfd  
    1458 0000c180     000a  sp2dek  .word   10,2
    1459 0000c1a0 0000c1e0'         .long   sp2dek1,sp2dek2
    1460 0000c1e0     086f  sp2dek1 .word   0086fh,-51,0            ; He dekes !
    1461 0000c210     0870  sp2dek2 .word   00870h,-50,0            ; _ Stickhandling !
    1462                    
    1463 0000c240           ssh2_point
    1464 0000c240     09c0          movi    500,a0
TMS340 COFF Macro Assembler Version 6.10     Wed Apr 21 11:34:12 2021
 Copyright (c) 1985-1991  Texas Instruments Incorporated 

                                                                     PAGE   33

         0000c250     01f4  
    1465 0000c260     0d5f          calla   RANDPER
         0000c270 00000000! 
    1466 0000c290     c900          jrnc    ssh2_reg
         0000c2a0     fddd  
    1467 0000c2b0     09ea          movi    sp2pnt,a10
         0000c2c0 0000c300' 
    1468 0000c2e0     c000          jruc    handle_speech_string_sc
         0000c2f0     0ce5  
    1469 0000c300     081d  sp2pnt  .word   0081dh,-46,0            ; _ At the point
    1470                    
    1471 0000c330           ssh2_ring
    1472 0000c330     09c0          movi    500,a0
         0000c340     01f4  
    1473 0000c350     0d5f          calla   RANDPER
         0000c360 00000000! 
    1474 0000c380     c900          jrnc    ssh2_reg
         0000c390     fdce  
    1475 0000c3a0     09ea          movi    sp2rng,a10
         0000c3b0 0000c3f0' 
    1476 0000c3d0     c000          jruc    handle_speech_string_sc
         0000c3e0     0cd6  
    1477 0000c3f0     089d  sp2rng  .word   0089dh,-69,0            ; _ From the top of the ring 
    1478                    
    1479 0000c420           ssh2_slot
    1480 0000c420     09c0          movi    500,a0
         0000c430     01f4  
    1481 0000c440     0d5f          calla   RANDPER
         0000c450 00000000! 
    1482 0000c470     c900          jrnc    ssh2_reg
         0000c480     fdbf  
    1483 0000c490     09ea          movi    sp2slt,a10
         0000c4a0 0000c4e0' 
    1484 0000c4c0     c000          jruc    handle_speech_string_sc
         0000c4d0     0cc7  
    1485 0000c4e0     000a  sp2slt  .word   10,1
    1486 0000c500 0000c520'         .long   sp2slt1
    1487 0000c520     089a  sp2slt1 .word   0089ah,-67,0            ; _ Shooting from the slot
    1488                    
    1489 0000c550           ssh2_center
    1490 0000c550     09c0          movi    300,a0
         0000c560     012c  
    1491 0000c570     0d5f          calla   RANDPER
         0000c580 00000000! 
    1492 0000c5a0     c900          jrnc    ssh2_reg
         0000c5b0     fdac  
    1493 0000c5c0     5600          clr     a0
    1494 0000c5d0     0580          move    a0,@line_crossed,W
         0000c5e0 000000c0- 
    1495 0000c600     09ea          movi    sp2cnt,a10
         0000c610 0000c650' 
    1496 0000c630     c000          jruc    handle_speech_string_sc
         0000c640     0cb0  
    1497 0000c650     0816  sp2cnt  .word   00816h,-60,0            ; He-s at center ice
    1498                    
TMS340 COFF Macro Assembler Version 6.10     Wed Apr 21 11:34:12 2021
 Copyright (c) 1985-1991  Texas Instruments Incorporated 

                                                                     PAGE   34

    1499 0000c680           ssh2_blue
    1500 0000c680     0b40          cmpi    230,a0
         0000c690     ff19  
    1501 0000c6a0     c400          jrlt    ssh2_reg                ;we crossed blue, but wrong way
         0000c6b0     fd9c  
    1502 0000c6c0     09c0          movi    300,a0
         0000c6d0     012c  
    1503 0000c6e0     0d5f          calla   RANDPER
         0000c6f0 00000000! 
    1504 0000c710     c900          jrnc    ssh2_reg
         0000c720     fd95  
    1505 0000c730     5600          clr     a0
    1506 0000c740     0580          move    a0,@line_crossed,W
         0000c750 000000c0- 
    1507 0000c770     09ea          movi    sp2bll,a10
         0000c780 0000c7c0' 
    1508 0000c7a0     c000          jruc    handle_speech_string_sc
         0000c7b0     0c99  
    1509 0000c7c0     000a  sp2bll  .word   10,4
    1510 0000c7e0 0000c860'         .long   sp2bll1,sp2bll2,sp2bll3,sp2bll4
    1511 0000c860     0819  sp2bll1 .word   00819h,-57,0            ; _ At the blue line
    1512 0000c890     086c  sp2bll2 .word   0086ch,-63,0            ; Over the blue line
    1513 0000c8c0     0817  sp2bll3 .word   00817h,-67,0            ; He-s at the blue line
    1514 0000c8f0     0861  sp2bll4 .word   00861h,-86,0            ; _ Across the line
    1515                    
    1516                    **************************************************************************
    1517                    *                                                                        *
    1518                    * get_location_number                                                    *
    1519                    *       input   a6 = block                                               *
    1520                    *               a0 = xpos                                                *
    1521                    *               a3 = zpos                                                *
    1522                    *               a11= xvel                                                *
    1523                    *       output  a4 =  0 - nothing special                                *
    1524                    *                     1 - in crease                                      *
    1525                    *                     2 - too far away                                   *
    1526                    *                     3 - after a rebound                                *
    1527                    *                     4 - on a breakaway                                 *
    1528                    *                     5 - deking                                         *
    1529                    *                     6 - at the point                                   *
    1530                    *                     7 - top of the ring                                *
    1531                    *                     8 - in the slot                                    *
    1532                    *                     9 - at center ice                                  *
    1533                    *                    10 - at the blue line                               *
    1534                    *                                                                        *
    1535                    **************************************************************************
    1536 0000c920           get_location_number
    1537 0000c920     1824          movk    1,a4
    1538 0000c930     0b43          cmpi    440,a3
         0000c940     fe47  
    1539 0000c950     c70a          jrgt    gln2
    1540 0000c960     0b43          cmpi    236,a3
         0000c970     ff13  
    1541 0000c980     c407          jrlt    gln2
    1542 0000c990     0b40          cmpi    688,a0
         0000c9a0     fd4f  
TMS340 COFF Macro Assembler Version 6.10     Wed Apr 21 11:34:12 2021
 Copyright (c) 1985-1991  Texas Instruments Incorporated 

                                                                     PAGE   35

    1543 0000c9b0     c704          jrgt    gln2
    1544 0000c9c0     0b40          cmpi    585,a0
         0000c9d0     fdb6  
    1545 0000c9e0     c500          jrge    glnx            ;in the crease
         0000c9f0     00a9  
    1546 0000ca00     1844  gln2    movk    2,a4
    1547 0000ca10     4c00          move    a0,a0
    1548 0000ca20     ce00          jrn     glnx            ;bad shot, past center line
         0000ca30     00a5  
    1549 0000ca40     1864          movk    3,a4
    1550 0000ca50     05a5          move    @last_shot_player,a5
         0000ca60 00000080- 
    1551 0000ca80     aece          movb    *a6(POF_NUMBER),a14
         0000ca90     0000  
    1552 0000caa0     1425          dec     a5
    1553 0000cab0     142e          dec     a14
    1554 0000cac0     2fc5          srl     2,a5
    1555 0000cad0     2fce          srl     2,a14
    1556 0000cae0     48ae          cmp     a5,a14
    1557 0000caf0     cb16          jrnz    gln3            ;last person to shoot was not this team
    1558 0000cb00     07ae          move    @last_shot_time,a14,L
         0000cb10 00000060- 
    1559 0000cb30     07a5          move    @WAVEIRQS,a5,L
         0000cb40 00000000! 
    1560 0000cb60     45c5          sub     a14,a5
    1561 0000cb70     0b45          cmpi    150,a5
         0000cb80     ff69  
    1562 0000cb90     c70c          jrgt    gln3            ;it's been to long since a shot to call this a rebound
    1563 0000cba0     0d5f          calla   last_puck_owner_a14
         0000cbb0 00000000! 
    1564 0000cbd0                   GBLOCK  a14,a14
    1565 0000cc10     b5ce          move    *a14(POF_FLAGS),a14,W
         0000cc20     0200  
    1566 0000cc30     1fae          btst    B_PF_GOALIE,a14
    1567 0000cc40     cb00          jrnz    glnx            ;last owner was goalie, call it rebound
         0000cc50     0083  
    1568 0000cc60     1884  gln3    movk    4,a4
    1569 0000cc70     aece          movb    *a6(POF_NUMBER),a14
         0000cc80     0000  
    1570 0000cc90     142e          dec     a14
    1571 0000cca0     2fce          srl     2,a14
    1572 0000ccb0     4dc7          move    a14,a7          ;save for check below
    1573 0000ccc0     142e          dec     a14
    1574 0000ccd0     038e          abs     a14
    1575 0000cce0     244e          sll     2,a14
    1576 0000ccf0     102e          inc     a14
    1577 0000cd00                   GBLOCK  a14,a5
    1578 0000cd50     102e          inc     a14
    1579 0000cd60                   GBLOCK  a14,a14
    1580 0000cda0     b6a5          move    *a5(POF_OBJECT),a5,L
         0000cdb0     0280  
    1581 0000cdc0     b4a5          move    *a5(OXPOS),a5,W
         0000cdd0     0150  
    1582 0000cde0     b7ce          move    *a14(POF_OBJECT),a14,L
         0000cdf0     0280  
TMS340 COFF Macro Assembler Version 6.10     Wed Apr 21 11:34:12 2021
 Copyright (c) 1985-1991  Texas Instruments Incorporated 

                                                                     PAGE   36

    1583 0000ce00     b5ce          move    *a14(OXPOS),a14,W
         0000ce10     0150  
    1584 0000ce20     4ce7          move    a7,a7
    1585 0000ce30     ca02          jrz     gln4
    1586 0000ce40     03a5          neg     a5
    1587 0000ce50     03ae          neg     a14
    1588 0000ce60     0b05  gln4    addi    200,a5
         0000ce70     00c8  
    1589 0000ce80     0b0e          addi    200,a14
         0000ce90     00c8  
    1590 0000cea0     48a0          cmp     a5,a0
    1591 0000ceb0     c410          jrlt    gln5            ;not breakaway
    1592 0000cec0     49c0          cmp     a14,a0
    1593 0000ced0     c40e          jrlt    gln5            ;not breakaway
    1594 0000cee0     0b6b          cmpi    [4,0],a11
         0000cef0 fffbffff  
    1595 0000cf10     c40a          jrlt    gln5
    1596 0000cf20     098f          mmtm    sp,a0
         0000cf30     8000  
    1597 0000cf40     09c0          movi    500,a0
         0000cf50     01f4  
    1598 0000cf60     0d5f          calla   RANDPER
         0000cf70 00000000! 
    1599 0000cf90     09af          mmfm    sp,a0
         0000cfa0     0001  
    1600 0000cfb0     c84d          jrc     glnx            ;breakaway
    1601 0000cfc0     18a4  gln5    movk    5,a4
    1602 0000cfd0     098f          mmtm    sp,a0,a1,a2,a3
         0000cfe0     f000  
    1603 0000cff0     0d5f          calla   do_we_deke_split
         0000d000 00000000! 
    1604 0000d020     09af          mmfm    sp,a0,a1,a2,a3
         0000d030     000f  
    1605 0000d040     ca06          jrz     gln51
    1606 0000d050     09c0          movi    200,a0
         0000d060     00c8  
    1607 0000d070     0d5f          calla   RANDPER
         0000d080 00000000! 
    1608 0000d0a0     c83e          jrc     glnx            ;we deke or split, call it deke
    1609 0000d0b0     18c4  gln51   movk    6,a4
    1610 0000d0c0     0b40          cmpi    240,a0
         0000d0d0     ff0f  
    1611 0000d0e0     c409          jrlt    gln6            ;too far out
    1612 0000d0f0     0b40          cmpi    300,a0
         0000d100     fed3  
    1613 0000d110     c706          jrgt    gln6            ;too close
    1614 0000d120     0b43          cmpi    600,a3
         0000d130     fda7  
    1615 0000d140     c734          jrgt    glnx            ;top point
    1616 0000d150     0b43          cmpi    79,a3
         0000d160     ffb0  
    1617 0000d170     c431          jrlt    glnx            ;bottom point
    1618 0000d180     18e4  gln6    movk    7,a4
    1619 0000d190     0b40          cmpi    350,a0
         0000d1a0     fea1  
TMS340 COFF Macro Assembler Version 6.10     Wed Apr 21 11:34:12 2021
 Copyright (c) 1985-1991  Texas Instruments Incorporated 

                                                                     PAGE   37

    1620 0000d1b0     c40f          jrlt    gln7            ;too far away for faceoff circle
    1621 0000d1c0     0b40          cmpi    400,a0
         0000d1d0     fe6f  
    1622 0000d1e0     c70c          jrgt    gln7            ;too close for top of faceoff circle
    1623 0000d1f0     0b43          cmpi    615,a3
         0000d200     fd98  
    1624 0000d210     c709          jrgt    gln7            ;too high
    1625 0000d220     0b43          cmpi    415,a3
         0000d230     fe60  
    1626 0000d240     c724          jrgt    glnx            ;top of top z faceoff circle
    1627 0000d250     0b43          cmpi    264,a3
         0000d260     fef7  
    1628 0000d270     c703          jrgt    gln7
    1629 0000d280     0b43          cmpi    64,a3
         0000d290     ffbf  
    1630 0000d2a0     c71e          jrgt    glnx            ;top of botton z faceoff circle
    1631 0000d2b0     1904  gln7    movk    8,a4            ;slot
    1632 0000d2c0     0b40          cmpi    250,a0
         0000d2d0     ff05  
    1633 0000d2e0     c409          jrlt    gln8            ;too far out
    1634 0000d2f0     0b40          cmpi    630,a0
         0000d300     fd89  
    1635 0000d310     c706          jrgt    gln8            ;too close
    1636 0000d320     0b43          cmpi    250,a3
         0000d330     ff05  
    1637 0000d340     c403          jrlt    gln8
    1638 0000d350     0b43          cmpi    429,a3
         0000d360     fe52  
    1639 0000d370     c411          jrlt    glnx
    1640 0000d380     1904  gln8    movk    8,a4            ;really 9-10, we add 1 or 2
    1641 0000d390     05ae          move    @line_crossed,a14,W
         0000d3a0 000000c0- 
    1642 0000d3c0     ca0b          jrz     gln9
    1643 0000d3d0     41c4          add     a14,a4          ;no it is 9 or 10
    1644 0000d3e0     07ae          move    @line_crossed_time,a14,L
         0000d3f0 000000d0- 
    1645 0000d410     07a5          move    @WAVEIRQS,a5,L
         0000d420 00000000! 
    1646 0000d440     45c5          sub     a14,a5
    1647 0000d450     0b45          cmpi    15,a5
         0000d460     fff0  
    1648 0000d470     c401          jrlt    glnx            ;just crossed line
    1649 0000d480     5684  gln9    clr     a4              ;nothing special
    1650 0000d490     0584  glnx    move    a4,@VIDCLIP_TYPE,W
         0000d4a0 00000000! 
    1651 0000d4c0     aece          movb    *a6(POF_NUMBER),a14
         0000d4d0     0000  
    1652 0000d4e0     058e          move    a14,@VIDCLIP_PLAYER,W
         0000d4f0 00000000! 
    1653 0000d510     07c0          move    @WAVEIRQS,@VIDCLIP_TIME,L
         0000d520 00000000! 
         0000d540 00000000! 
    1654 0000d560     0b44          cmpi    5,a4
         0000d570     fffa  
    1655 0000d580     ca0c          jrz     glnx5           ;no mod on deke
TMS340 COFF Macro Assembler Version 6.10     Wed Apr 21 11:34:12 2021
 Copyright (c) 1985-1991  Texas Instruments Incorporated 

                                                                     PAGE   38

    1656 0000d590     0b44          cmpi    8,a4
         0000d5a0     fff7  
    1657 0000d5b0     ca09          jrz     glnx5           ;no mod on slot
    1658 0000d5c0     05ae          move    @shot_type,a14,W
         0000d5d0 00000040- 
    1659 0000d5f0     0b4e          cmpi    1,a14
         0000d600     fffe  
    1660 0000d610     ca04          jrz     glnxm1          ;slap shot
    1661 0000d620     0b4e          cmpi    4,a14
         0000d630     fffb  
    1662 0000d640     ca07          jrz     glnxm3
    1663 0000d650     0960  glnx5   rets
    1664 0000d660     57ce  glnxm1  clr     a14
    1665 0000d670     142e          dec     a14
    1666 0000d680     058e          move    a14,@VIDCLIP_TYPE,W
         0000d690 00000000! 
    1667 0000d6b0     0960          rets
    1668 0000d6c0     57ce  glnxm3  clr     a14
    1669 0000d6d0     146e          subk    3,a14
    1670 0000d6e0     058e          move    a14,@VIDCLIP_TYPE,W
         0000d6f0 00000000! 
    1671 0000d710     0960          rets
    1672                    
    1673 0000d720           spx_intercept_bounce
    1674 0000d720     098f          mmtm    sp,a0,a1,a2,a3,a4,a5,a6,a7,a8,a9,a10,a11
         0000d730     fff0  
    1675 0000d740     b4ce          move    *a6(POF_FLAGS),a14,W
         0000d750     0200  
    1676 0000d760     1fae          btst    B_PF_GOALIE,a14
    1677 0000d770     cb29          jrnz    spibgl
    1678 0000d780     0d3f          callr   name_check_a6
         0000d790     0c49  
    1679 0000d7a0     ca23          jrz     spib9
    1680 0000d7b0     0d5f          calla   get_speech_time_remaining
         0000d7c0 00000000! 
    1681 0000d7e0     0b40          cmpi    5,a0
         0000d7f0     fffa  
    1682 0000d800     c31d          jrhi    spib9
    1683 0000d810     05a0          move    @PUCK_INTENDED,a0,W
         0000d820 00000000! 
    1684 0000d840     aec2          movb    *a6(POF_NUMBER),a2
         0000d850     0000  
    1685 0000d860     1420          dec     a0
    1686 0000d870     1422          dec     a2
    1687 0000d880     2bc0          sra     2,a0
    1688 0000d890     2bc2          sra     2,a2
    1689 0000d8a0     4802          cmp     a0,a2
    1690 0000d8b0     ca12          jrz     spib9           ;it is intended for us or a teammate, done
    1691 0000d8c0     b4c1          move    *a6(POF_CHARACTER),a1,W
         0000d8d0     0070  
    1692 0000d8e0     09ea          movi    spib_t,a10
         0000d8f0 0000da70' 
    1693 0000d910     07ae          move    @PUCK_OBJECT,a14,L
         0000d920 00000000! 
    1694 0000d940     b5ce          move    *a14(OYPOS),a14,W
TMS340 COFF Macro Assembler Version 6.10     Wed Apr 21 11:34:12 2021
 Copyright (c) 1985-1991  Texas Instruments Incorporated 

                                                                     PAGE   39

         0000d950     0170  
    1695 0000d960     0b4e          cmpi    -15,a14
         0000d970     000e  
    1696 0000d980     c703          jrgt    spibg           ;not in air
    1697 0000d990     09ea          movi    spibat,a10
         0000d9a0 0000db10' 
    1698 0000d9c0     0d3f  spibg   callr   handle_speech_string
         0000d9d0     0b7b  
    1699 0000d9e0     09af  spib9   mmfm    sp,a0,a1,a2,a3,a4,a5,a6,a7,a8,a9,a10,a11
         0000d9f0     0fff  
    1700 0000da00     0960          rets
    1701 0000da10     5621  spibgl  clr     a1
    1702 0000da20     0d3f          callr   do_goalie_phrase
         0000da30     0871  
    1703 0000da40     09af          mmfm    sp,a0,a1,a2,a3,a4,a5,a6,a7,a8,a9,a10,a11
         0000da50     0fff  
    1704 0000da60     0960          rets
    1705                    
    1706 0000da70     000a  spib_t  .word   10,4
    1707 0000da90 0000dbb0'         .long   spbt1,spbt2,spbt3,spbt4
    1708 0000db10     000a  spibat  .word   10,4
    1709 0000db30 0000dbb0'         .long   spbt1,spbt2,spbt3,spbt4
    1710 0000dbb0     0965  spbt1   .word   00965h,-60,0            ;The puck is loose
    1711 0000dbe0           spbt2   WWL     11,1,nm_tab
    1712 0000dc20     0969          .word   00969h,-56,0            ;_ gets a handle on it
    1713 0000dc50           spbt3   WWL     11,1,nm_tab
    1714 0000dc90     096a          .word   0096ah,-56,0            ;_ gets his stick on it
    1715 0000dcc0     0965  spbt4   .word   00965h,-60,0            ;The puck is loose
    1716                    
    1717 0000dcf0           spx_intercept_control
    1718 0000dcf0     098f          mmtm    sp,a0,a1,a2,a3,a4,a5,a6,a7,a8,a9,a10,a11
         0000dd00     fff0  
    1719 0000dd10     0d3f          callr   name_check_a6
         0000dd20     0bf0  
    1720 0000dd30     ca1c          jrz     spic9
    1721 0000dd40     b4ce          move    *a6(POF_FLAGS),a14,W
         0000dd50     0200  
    1722 0000dd60     1fae          btst    B_PF_GOALIE,a14
    1723 0000dd70     cb18          jrnz    spic9
    1724 0000dd80     0d5f          calla   get_speech_time_remaining
         0000dd90 00000000! 
    1725 0000ddb0     0b40          cmpi    4,a0
         0000ddc0     fffb  
    1726 0000ddd0     c912          jrhs    spic9
    1727 0000dde0     b4c1          move    *a6(POF_CHARACTER),a1,W
         0000ddf0     0070  
    1728 0000de00     09ea          movi    spin,a10
         0000de10 0000df30' 
    1729 0000de30     07ae          move    @PUCK_OBJECT,a14,L
         0000de40 00000000! 
    1730 0000de60     b5ce          move    *a14(OYPOS),a14,W
         0000de70     0170  
    1731 0000de80     0b4e          cmpi    -15,a14
         0000de90     000e  
    1732 0000dea0     c703          jrgt    spicgg          ;not in air, no call, just name
TMS340 COFF Macro Assembler Version 6.10     Wed Apr 21 11:34:12 2021
 Copyright (c) 1985-1991  Texas Instruments Incorporated 

                                                                     PAGE   40

    1733 0000deb0     09ea          movi    spicst,a10
         0000dec0 0000df80' 
    1734 0000dee0     0d3f  spicgg  callr   handle_speech_string
         0000def0     0b29  
    1735 0000df00     09af  spic9   mmfm    sp,a0,a1,a2,a3,a4,a5,a6,a7,a8,a9,a10,a11
         0000df10     0fff  
    1736 0000df20     0960          rets
    1737                    
    1738 0000df30           spin    WWLW    11,1,nm_tab,0           ;just his name
    1739 0000df80     097b  spicst  .word   0097bh,-70,0            ;Picked out of the air
    1740                    
    1741 0000dfb0           spx_missed_shot
    1742 0000dfb0     098f          mmtm    sp,a0,a1,a2,a3,a4,a5,a6,a7,a8,a9,a10,a11
         0000dfc0     fff0  
    1743 0000dfd0     05ae          move    @PUCK_OBJECT,a14,W
         0000dfe0 00000000! 
    1744 0000e000     b5ce          move    *a14(OXPOS),a14,W
         0000e010     0150  
    1745 0000e020     038e          abs     a14
    1746 0000e030     0b4e          cmpi    700,a14
         0000e040     fd43  
    1747 0000e050     c212          jrls    spms9           ;the shot wasn't 'wide' of we are in more than 100 from edge
    1748 0000e060     0d5f          calla   get_speech_time_remaining
         0000e070 00000000! 
    1749 0000e090     0b40          cmpi    10,a0
         0000e0a0     fff5  
    1750 0000e0b0     c30c          jrhi    spms9
    1751 0000e0c0     09ea          movi    smsct,a10
         0000e0d0 0000e1b0' 
    1752 0000e0f0     05a0          move    @shot_call,a0,W
         0000e100 00000050- 
    1753 0000e120     ca03          jrz     smsgo           ;do sound call for shot call made
    1754 0000e130     09ea          movi    smsnct,a10
         0000e140 0000e270' 
    1755 0000e160     0d3f  smsgo   callr   handle_speech_string_sc
         0000e170     0afd  
    1756 0000e180     09af  spms9   mmfm    sp,a0,a1,a2,a3,a4,a5,a6,a7,a8,a9,a10,a11
         0000e190     0fff  
    1757 0000e1a0     0960          rets
    1758                    
    1759 0000e1b0     000a  smsct   .word   10,2
    1760 0000e1d0 0000e210'         .long   smsct1,smsct2
    1761 0000e210     089f  smsct1  .word   0089fh,-67,0            ;_ Just misses
    1762 0000e240     08a2  smsct2  .word   008a2h,-56,0            ;_ Just wide
    1763                    
    1764 0000e270     000a  smsnct  .word   10,2
    1765 0000e290 0000e2d0'         .long   smsnct1,smsnct2
    1766 0000e2d0     08a1  smsnct1 .word   008a1h,-87,0            ;_ Just fired it wide
    1767 0000e300     08a0  smsnct2 .word   008a0h,-62,0            ;_ Fired it wide
    1768                    
    1769 0000e330           spx_one_timer
    1770 0000e330     098f          mmtm    sp,a0,a1,a2,a3,a4,a5,a6,a7,a8,a9,a10,a11
         0000e340     fff0  
    1771 0000e350     09c0          movi    800,a0
         0000e360     0320  
TMS340 COFF Macro Assembler Version 6.10     Wed Apr 21 11:34:12 2021
 Copyright (c) 1985-1991  Texas Instruments Incorporated 

                                                                     PAGE   41

    1772 0000e370     0d5f          calla   RANDPER
         0000e380 00000000! 
    1773 0000e3a0     c82e          jrc     sptreg
    1774 0000e3b0     0d5f          calla   get_speech_time_remaining
         0000e3c0 00000000! 
    1775 0000e3e0     0b40          cmpi    10,a0
         0000e3f0     fff5  
    1776 0000e400     c205          jrls    spxot8
    1777 0000e410     1822          movk    1,a2
    1778 0000e420     0582          move    a2,@shot_call,W
         0000e430 00000050- 
    1779 0000e450     c00b          jruc    spxot9
    1780 0000e460     5642  spxot8  clr     a2
    1781 0000e470     0582          move    a2,@shot_call,W
         0000e480 00000050- 
    1782 0000e4a0     b4c1          move    *a6(POF_CHARACTER),a1,W
         0000e4b0     0070  
    1783 0000e4c0     09ea          movi    spotr,a10
         0000e4d0 0000e540' 
    1784 0000e4f0     0d3f          callr   handle_speech_string_sc
         0000e500     0ac4  
    1785 0000e510     09af  spxot9  mmfm    sp,a0,a1,a2,a3,a4,a5,a6,a7,a8,a9,a10,a11
         0000e520     0fff  
    1786 0000e530     0960          rets
    1787                    
    1788 0000e540     000a  spotr   .word   10,3
    1789 0000e560 0000e5c0'         .long   spotr1,spotr2,spotr3
    1790 0000e5c0     08f3  spotr1  .word   008f3h,-49,0            ;_ One times it 2
    1791 0000e5f0     08f5  spotr2  .word   008f5h,-62,0            ;_ With a one-timer
    1792 0000e620     0a04  spotr3  .word   00a04h,-59              ;The one-timer by _
    1793 0000e640                   WWLW    11,1,nm_tab,0
    1794                    
    1795 0000e690     1822  sptreg  movk    1,a2            ;also is slap shot
    1796 0000e6a0     0582          move    a2,@shot_call,W
         0000e6b0 00000050- 
    1797 0000e6d0     0d3f          callr   spx_shot2
         0000e6e0     fb40  
    1798 0000e6f0     09af          mmfm    sp,a0,a1,a2,a3,a4,a5,a6,a7,a8,a9,a10,a11
         0000e700     0fff  
    1799 0000e710     0960          rets
    1800                    
    1801 0000e720           spx_faceoff_start
    1802 0000e720     098f          mmtm    sp,a0,a2,a4,a10,a14
         0000e730     a822  
    1803 0000e740     07aa          move    @spfaceoff_address,a10,L
         0000e750 00000090- 
    1804 0000e770     ca12          jrz     spfsr9
    1805 0000e780     05a1          move    @PLAYER_2_BLOCK+POF_CHARACTER,a1,W      ;left player
         0000e790 00000070! 
    1806 0000e7b0     05a2          move    @PLAYER_5_BLOCK+POF_CHARACTER,a2,W      ;right player
         0000e7c0 00000070! 
    1807 0000e7e0     05a3          move    @team1,a3,W
         0000e7f0 00000000! 
    1808 0000e810     05a5          move    @team2,a5,W
         0000e820 00000000! 
TMS340 COFF Macro Assembler Version 6.10     Wed Apr 21 11:34:12 2021
 Copyright (c) 1985-1991  Texas Instruments Incorporated 

                                                                     PAGE   42

    1809 0000e840     0d3f          callr   handle_speech_string
         0000e850     0a93  
    1810 0000e860     574a          clr     a10
    1811 0000e870     078a          move    a10,@spfaceoff_address,L
         0000e880 00000090- 
    1812 0000e8a0     09af  spfsr9  mmfm    sp,a0,a2,a4,a10,a14
         0000e8b0     4415  
    1813 0000e8c0     0960          rets
    1814                    
    1815 0000e8d0           spx_period_faceoff
    1816 0000e8d0     098f          mmtm    sp,a0
         0000e8e0     8000  
    1817 0000e8f0     1840          movk    2,a0
    1818 0000e900     0d5f          calla   RANDU
         0000e910 00000000! 
    1819 0000e930     0580          move    a0,@spfaceoff_call,W
         0000e940 000000b0- 
    1820 0000e960     0d5f          calla   get_speech_time_remaining
         0000e970 00000000! 
    1821 0000e990     0b40          cmpi    10,a0
         0000e9a0     fff5  
    1822 0000e9b0     c714          jrgt    spfg9
    1823 0000e9c0     05a0          move    @period,a0,W
         0000e9d0 00000000! 
    1824 0000e9f0     0b40          cmpi    1,a0
         0000ea00     fffe  
    1825 0000ea10     ca04          jrz     spf_gs
    1826                            ;here is where our new call will go
    1827 0000ea20     09e0          movi    sppf,a0
         0000ea30 0000eb30' 
    1828 0000ea50     c003          jruc    spfg8
    1829 0000ea60     09e0  spf_gs  movi    sppfg,a0
         0000ea70 0000ec90' 
    1830 0000ea90     0780  spfg8   move    a0,@spfaceoff_address,L
         0000eaa0 00000090- 
    1831 0000eac0     5600          clr     a0
    1832 0000ead0     0580          move    a0,@spfaceoff_call,W
         0000eae0 000000b0- 
    1833 0000eb00     09af  spfg9   mmfm    sp,a0
         0000eb10     0001  
    1834 0000eb20     0960          rets
    1835                    
    1836                    
    1837 0000eb30     000a  sppf    .word   10,4
    1838 0000eb50 0000ec00'         .long   sppf1,sppf2,sppf3,spphti
    1839 0000ebd0     0b09  spphti  .word   00b09h,-50,0            ;Pat Foley: Hit the Ice
    1840 0000ec00     07e0  sppf1   .word   007e0h,-104,0           ;And were ready for the faceoff
    1841 0000ec30     07e9  sppf2   .word   007e9h,-71,0            ;Here-s the faceoff
    1842 0000ec60     07ec  sppf3   .word   007ech,-89,0            ;Faceoff at center ice 1
    1843                    
    1844 0000ec90     000a  sppfg   .word   10,4
    1845 0000ecb0 0000ec00'         .long   sppf1,sppf2,sppf3,sppf4
    1846 0000ed30     07f7  sppf4   .word   007f7h,-99,0            ;Here-s the opening faceoff
    1847                            
    1848 0000ed60           spx_goal_faceoff
TMS340 COFF Macro Assembler Version 6.10     Wed Apr 21 11:34:12 2021
 Copyright (c) 1985-1991  Texas Instruments Incorporated 

                                                                     PAGE   43

    1849 0000ed60     098f          mmtm    sp,a0
         0000ed70     8000  
    1850 0000ed80     1840          movk    2,a0
    1851 0000ed90     0d5f          calla   RANDU
         0000eda0 00000000! 
    1852 0000edc0     0580          move    a0,@spfaceoff_call,W
         0000edd0 000000b0- 
    1853 0000edf0     0d5f          calla   get_speech_time_remaining
         0000ee00 00000000! 
    1854 0000ee20     0b40          cmpi    10,a0
         0000ee30     fff5  
    1855 0000ee40     c70a          jrgt    spgf9
    1856 0000ee50     09e0          movi    sppgf,a0
         0000ee60 0000ef20' 
    1857 0000ee80     0780          move    a0,@spfaceoff_address,L
         0000ee90 00000090- 
    1858 0000eeb0     5600          clr     a0
    1859 0000eec0     0580          move    a0,@spfaceoff_call,W
         0000eed0 000000b0- 
    1860 0000eef0     09af  spgf9   mmfm    sp,a0
         0000ef00     0001  
    1861 0000ef10     0960          rets
    1862                    
    1863 0000ef20     000a  sppgf   .word   10,7
    1864 0000ef40 0000f020'         .long   sppgf1,sppgf1,sppgf2,sppgf2,sppgf3,sppgf4,sppgf4
    1865                    
    1866 0000f020     07e0  sppgf1  .word   007e0h,-104,0           ;And were ready for the faceoff
    1867 0000f050     07e9  sppgf2  .word   007e9h,-71,0            ;Here-s the faceoff
    1868 0000f080     07ec  sppgf3  .word   007ech,-89,0            ;Faceoff at center ice 1
    1869 0000f0b0     07ec  sppgf4  .word   007ech,-89,0            ;Faceoff at center ice 1
    1870                    
    1871                    
    1872 0000f0e0           spx_zone_faceoff
    1873 0000f0e0     0d3f          callr   spx_holds_on
         0000f0f0     0028  
    1874 0000f100     098f          mmtm    sp,a0
         0000f110     8000  
    1875 0000f120     18a0          movk    5,a0                    ;so it is at drop 20% of the time
    1876 0000f130     0d5f          calla   RANDU
         0000f140 00000000! 
    1877 0000f160     0580          move    a0,@spfaceoff_call,W
         0000f170 000000b0- 
    1878 0000f190     0b40          cmpi    1,a0
         0000f1a0     fffe  
    1879 0000f1b0     cb10          jrnz    spzf9
    1880 0000f1c0     0d5f          calla   get_speech_time_remaining
         0000f1d0 00000000! 
    1881 0000f1f0     0b40          cmpi    10,a0
         0000f200     fff5  
    1882 0000f210     c70a          jrgt    spzf9
    1883 0000f220     09e0          movi    sppzf,a0
         0000f230 0000f2f0' 
    1884 0000f250     0780          move    a0,@spfaceoff_address,L
         0000f260 00000090- 
    1885 0000f280     5600          clr     a0
TMS340 COFF Macro Assembler Version 6.10     Wed Apr 21 11:34:12 2021
 Copyright (c) 1985-1991  Texas Instruments Incorporated 

                                                                     PAGE   44

    1886 0000f290     0580          move    a0,@spfaceoff_call,W
         0000f2a0 000000b0- 
    1887 0000f2c0     09af  spzf9   mmfm    sp,a0
         0000f2d0     0001  
    1888 0000f2e0     0960          rets
    1889                    
    1890 0000f2f0           sppzf   WL      1,nm_tab
    1891 0000f320     07eb          .word   007ebh,-25              ;_ Against _
    1892 0000f340                   WLW     2,nm_tab,0
    1893                    
    1894 0000f380           spx_holds_on
    1895 0000f380     098f          mmtm    sp,a0,a1,a2,a3,a4,a5,a6,a7,a8,a9,a10,a11
         0000f390     fff0  
    1896 0000f3a0     05a1          move    @PLAYER_4_BLOCK+POF_CHARACTER,a1,W
         0000f3b0 00000070! 
    1897 0000f3d0     07ae          move    @PUCK_OBJECT,a14,L
         0000f3e0 00000000! 
    1898 0000f400     b5ce          move    *a14(OXPOS),a14,W
         0000f410     0150  
    1899 0000f420     ce03          jrn     sho_ok
    1900 0000f430     05a1          move    @PLAYER_8_BLOCK+POF_CHARACTER,a1,W
         0000f440 00000070! 
    1901 0000f460     0d5f  sho_ok  calla   get_speech_time_remaining
         0000f470 00000000! 
    1902 0000f490     0b40          cmpi    30,a0
         0000f4a0     ffe1  
    1903 0000f4b0     c906          jrhs    shonok
    1904 0000f4c0     09ea          movi    spz_hln,a10
         0000f4d0 0000f550' 
    1905 0000f4f0     0d5f          calla   handle_speech_string
         0000f500 00019190' 
    1906 0000f520     09af  shonok  mmfm    sp,a0,a1,a2,a3,a4,a5,a6,a7,a8,a9,a10,a11
         0000f530     0fff  
    1907 0000f540     0960          rets
    1908                    
    1909 0000f550     000a  spz_hln .word   10,4
    1910 0000f570 0000f5f0'         .long   szhld1,szhld2,szhld3,szhld4
    1911 0000f5f0           szhld1  WL      1,fnm_tab
    1912 0000f620     0a34          .word   00a34h,-60,0            ;_ Freezes the puck
    1913 0000f650     0a37  szhld2  .word   00a37h,-74,0            ;He freezes the puck
    1914 0000f680     0a68  szhld3  .word   00a68h,-75,0            ;And he holds on
    1915 0000f6b0     0b0b  szhld4  .word   00b0bh,-72,0            ;And the whistle blows (Pat Foley)
    1916                    
    1917 0000f6e0           spx_period_over1
    1918 0000f6e0     098f          mmtm    sp,a0,a1,a2,a3,a4,a5,a6,a7,a8,a9,a10,a11
         0000f6f0     fff0  
    1919 0000f700     05ae          move    @period,a14,W
         0000f710 00000000! 
    1920 0000f730     0b4e          cmpi    3,a14
         0000f740     fffc  
    1921 0000f750     cb08          jrnz    spo_uu
    1922 0000f760     05a0          move    @team1_score,a0,W
         0000f770 00000000! 
    1923 0000f790     05ae          move    @team2_score,a14,W
         0000f7a0 00000000! 
TMS340 COFF Macro Assembler Version 6.10     Wed Apr 21 11:34:12 2021
 Copyright (c) 1985-1991  Texas Instruments Incorporated 

                                                                     PAGE   45

    1924 0000f7c0     440e          sub     a0,a14
    1925 0000f7d0     ca03          jrz     spo_over                ;overtime
    1926 0000f7e0     09af  spo_uu  mmfm    sp,a0,a1,a2,a3,a4,a5,a6,a7,a8,a9,a10,a11
         0000f7f0     0fff  
    1927 0000f800     0960          rets
    1928 0000f810           spo_over
    1929 0000f810     1ac0          movk    ADJPAYOT,a0
    1930 0000f820     0d5f          calla   GET_ADJ
         0000f830 00000000! 
    1931 0000f850     cb08          jrnz    spo_ot
    1932 0000f860     09ea  spo_sdo movi    spz_sdt,a10
         0000f870 0000f960' 
    1933 0000f890     0d3f          callr   handle_speech_string
         0000f8a0     098e  
    1934 0000f8b0     09af          mmfm    sp,a0,a1,a2,a3,a4,a5,a6,a7,a8,a9,a10,a11
         0000f8c0     0fff  
    1935 0000f8d0     0960          rets
    1936 0000f8e0     09ea  spo_ot  movi    spz_ot,a10
         0000f8f0 0000f990' 
    1937 0000f910     0d3f          callr   handle_speech_string
         0000f920     0986  
    1938 0000f930     09af          mmfm    sp,a0,a1,a2,a3,a4,a5,a6,a7,a8,a9,a10,a11
         0000f940     0fff  
    1939 0000f950     0960          rets
    1940                    
    1941 0000f960     0ae7  spz_sdt .word   00ae7h,-88,0            ;sudden death overtime
    1942 0000f990     0ae8  spz_ot  .word   00ae8h,-94,0            ;they send it into overtime
    1943                    
    1944                    
    1945 0000f9c0           spx_period_over2
    1946 0000f9c0     098f          mmtm    sp,a0,a1,a2,a3,a4,a5,a6,a7,a8,a9,a10,a11
         0000f9d0     fff0  
    1947 0000f9e0     05ae          move    @period,a14,W
         0000f9f0 00000000! 
    1948 0000fa10     0b4e          cmpi    3,a14
         0000fa20     fffc  
    1949 0000fa30     c941          jrhs    spo9
    1950 0000fa40     0d5f          calla   get_speech_time_remaining
         0000fa50 00000000! 
    1951 0000fa70     0b40          cmpi    30,a0
         0000fa80     ffe1  
    1952 0000fa90     c93b          jrhs    spo9
    1953 0000faa0     05ae          move    @SUPER_GOALIE,a14,W
         0000fab0 00000000! 
    1954 0000fad0     cb3a          jrnz    spo_superg
    1955                    
    1956 0000fae0     05a0          move    @team1_score,a0,W
         0000faf0 00000000! 
    1957 0000fb10     05a1          move    @team2_score,a1,W
         0000fb20 00000000! 
    1958 0000fb40     4420          sub     a1,a0
    1959 0000fb50     4c0e          move    a0,a14
    1960 0000fb60     038e          abs     a14
    1961 0000fb70     0b4e          cmpi    3,a14
         0000fb80     fffc  
TMS340 COFF Macro Assembler Version 6.10     Wed Apr 21 11:34:12 2021
 Copyright (c) 1985-1991  Texas Instruments Incorporated 

                                                                     PAGE   46

    1962 0000fb90     c223          jrls    sporg
    1963 0000fba0     4c00          move    a0,a0
    1964 0000fbb0     ce03          jrn     spot2
    1965 0000fbc0     1881  spot1   movk    4,a1
    1966 0000fbd0     1902          movk    8,a2            ;other team
    1967 0000fbe0     c002          jruc    spott
    1968 0000fbf0     1901  spot2   movk    8,a1
    1969 0000fc00     1882          movk    4,a2            ;other team
    1970 0000fc10           spott   GBLOCK  a1,a6
    1971 0000fc60                   GBLOCK  a2,a7
    1972 0000fcb0     b4c2          move    *a6(POF_TEAM),a2,W
         0000fcc0     0080  
    1973 0000fcd0     b4c1          move    *a6(POF_CHARACTER),a1,W
         0000fce0     0070  
    1974 0000fcf0     b4c0          move    *a6(POF_SAVES),a0,W
         0000fd00     0840  
    1975 0000fd10     b4ee          move    *a7(POF_SAVES),a14,W
         0000fd20     0840  
    1976 0000fd30     45c0          sub     a14,a0
    1977 0000fd40     ce04          jrn     spnrg
    1978 0000fd50     09ea          movi    spz_so_far_goalie,a10
         0000fd60 0000ff30' 
    1979 0000fd80     c00a          jruc    spo_go
    1980 0000fd90     09ea  spnrg   movi    spz_team_ahead_prd,a10
         0000fda0 0000ff30' 
    1981 0000fdc0     c006          jruc    spo_go
    1982 0000fdd0     05a3  sporg   move    @period,a3,W
         0000fde0 00000000! 
    1983 0000fe00     09ea          movi    spz_po_reg,a10
         0000fe10 0000ffa0' 
    1984 0000fe30     0d3f  spo_go  callr   handle_speech_string
         0000fe40     0934  
    1985 0000fe50     09af  spo9    mmfm    sp,a0,a1,a2,a3,a4,a5,a6,a7,a8,a9,a10,a11
         0000fe60     0fff  
    1986 0000fe70     0960          rets
    1987                    
    1988 0000fe80           spo_superg
    1989 0000fe80     09ea          movi    spz_super_goalie,a10
         0000fe90 0000ff00' 
    1990 0000feb0     0d3f          callr   handle_speech_string
         0000fec0     092c  
    1991 0000fed0     09af          mmfm    sp,a0,a1,a2,a3,a4,a5,a6,a7,a8,a9,a10,a11
         0000fee0     0fff  
    1992 0000fef0     0960          rets
    1993                    
    1994 0000ff00           spz_super_goalie
    1995 0000ff00     0a75          .word   00a75h,-132,0           ;What a goaltending show we've had here
    1996                    
    1997 0000ff30           spz_so_far_goalie
    1998 0000ff30           spz_team_ahead_prd
    1999 0000ff30     ffd3  sz_tm   .word   -45
    2000 0000ff40     0b0d          .word   00b0dh,-76              ;so far its been all
    2001 0000ff60                   WLW     2,random_team_city_version_tab,0
    2002                    
    2003 0000ffa0           spz_po_reg
TMS340 COFF Macro Assembler Version 6.10     Wed Apr 21 11:34:12 2021
 Copyright (c) 1985-1991  Texas Instruments Incorporated 

                                                                     PAGE   47

    2004 0000ffa0           spz_ap_o
    2005 0000ffa0     ffd3          .word   -45
    2006 0000ffb0                   WLW     3,prt_t,0
    2007 0000fff0 00010170' prt_t   .long   spz_cap
    2008 00010010 000101a0'         .long   spz_2p
    2009 00010030 000101d0'         .long   spz_3p
    2010 00010050 00010170'         .long   spz_cap
    2011 00010070 00010170'         .long   spz_cap
    2012 00010090 00010170'         .long   spz_cap
    2013 000100b0 00010170'         .long   spz_cap
    2014 000100d0 00010170'         .long   spz_cap
    2015 000100f0 00010170'         .long   spz_cap
    2016 00010110 00010170'         .long   spz_cap
    2017 00010130 00010170'         .long   spz_cap
    2018 00010150 00010170'         .long   spz_cap
    2019 00010170     0b0c  spz_cap .word   00b0ch,-110,0           ;a capacity crowd on hand
    2020 000101a0     0b0e  spz_2p  .word   00b0eh,-100,0           ;get ready for the 2nd period
    2021 000101d0     0b0f  spz_3p  .word   00b0fh,-95,0            ;get ready for the 3rd period
    2022                    
    2023                    
    2024                    
    2025                    
    2026 00010200           spx_faceoff_taken
    2027 00010200     098f          mmtm    sp,a0,a1,a2,a3,a4,a5,a6,a7,a8,a9,a10,a11
         00010210     fff0  
    2028 00010220     09c0          movi    500,a0
         00010230     01f4  
    2029 00010240     0d5f          calla   RANDPER
         00010250 00000000! 
    2030 00010270     c91e          jrnc    spxft9
    2031 00010280     05ae          move    @spfaceoff_call,a14,W
         00010290 000000b0- 
    2032 000102b0     ca1a          jrz     spxft9
    2033 000102c0     05a2          move    @team1,a2,W
         000102d0 00000000! 
    2034 000102f0     05a3          move    @(PLAYER_2_BLOCK+POF_CHARACTER),a3,W
         00010300 00000070! 
    2035 00010320     0b40          cmpi    1,a0
         00010330     fffe  
    2036 00010340     ca06          jrz     spft2
    2037 00010350     05a2          move    @team2,a2,W
         00010360 00000000! 
    2038 00010380     05a3          move    @(PLAYER_5_BLOCK+POF_CHARACTER),a3,W
         00010390 00000070! 
    2039 000103b0     0d5f  spft2   calla   get_speech_time_remaining
         000103c0 00000000! 
    2040 000103e0     0b40          cmpi    10,a0
         000103f0     fff5  
    2041 00010400     c705          jrgt    spxft9
    2042 00010410     09ea          movi    spfts,a10
         00010420 00010490' 
    2043 00010440     0d3f          callr   handle_speech_string
         00010450     08d3  
    2044 00010460     09af  spxft9  mmfm    sp,a0,a1,a2,a3,a4,a5,a6,a7,a8,a9,a10,a11
         00010470     0fff  
TMS340 COFF Macro Assembler Version 6.10     Wed Apr 21 11:34:12 2021
 Copyright (c) 1985-1991  Texas Instruments Incorporated 

                                                                     PAGE   48

    2045 00010480     0960          rets
    2046 00010490     07f1  spfts   .word   007f1h,-64,0            ;Here-s the draw
    2047                    
    2048 000104c0           spx_score
    2049 000104c0     098f          mmtm    sp,a0,a1,a2,a3,a4,a5,a6,a7,a8,a9,a10,a11
         000104d0     fff0  
    2050 000104e0     0d5f          calla   get_speech_time_remaining
         000104f0 00000000! 
    2051 00010510     0b40          cmpi    30,a0
         00010520     ffe1  
    2052 00010530     c30e          jrhi    sp_js           ;too much time in cue, just do he scores (no he shoots)
    2053 00010540     05ae          move    @shot_call,a14,W
         00010550 00000050- 
    2054 00010570     ca0a          jrz     sp_js           ;we already called the shot, just do he scores (no he shoots)
    2055 00010580     57ce          clr     a14
    2056 00010590     058e          move    a14,@shot_call,W
         000105a0 00000050- 
    2057 000105c0     09ea          movi    sp_fs_ntab,a10
         000105d0 00012350' 
    2058 000105f0     0d3f          callr   handle_speech_string
         00010600     08b8  
    2059 00010610     c005          jruc    sp_p2           ;goto part 2
    2060 00010620     09ea  sp_js   movi    sp_js_ntab,a10
         00010630 000125f0' 
    2061 00010650     0d3f          callr   handle_speech_string
         00010660     08b2  
    2062 00010670     05a1  sp_p2   move    @scored_by,a1,W
         00010680 00000000! 
    2063 000106a0     ca00          jrz     kexit
         000106b0     01c6  
    2064 000106c0                   GBLOCK  a1,a6
    2065 00010710     b4c2          move    *a6(POF_HOT_VALUE),a2,W
         00010720     0b70  
    2066 00010730     09ea          movi    sp_smokin,a10
         00010740 00012890' 
    2067 00010760     0b42          cmpi    18,a2
         00010770     ffed  
    2068 00010780     cb16          jrnz    spp2b           ;he is not smokin'
    2069 00010790     4c22          move    a1,a2
    2070 000107a0     1422          dec     a2
    2071 000107b0     0bc2          xori    1,a2
         000107c0 00000001  
    2072 000107e0     1022          inc     a2
    2073 000107f0                   GBLOCK  a2,a7
    2074 00010840     b4e2          move    *a7(POF_HOT_VALUE),a2,W
         00010850     0b70  
    2075 00010860     0b42          cmpi    18,a2
         00010870     ffed  
    2076 00010880     cb00          jrnz    sp_dne          ;he is smokin'
         00010890     0190  
    2077 000108a0     09ea          movi    sp_tsmokin,a10
         000108b0 00012950' 
    2078 000108d0     c000          jruc    sp_dne          ;they're smokin'
         000108e0     018b  
    2079 000108f0     05a2  spp2b   move    @hot_player,a2,W
TMS340 COFF Macro Assembler Version 6.10     Wed Apr 21 11:34:12 2021
 Copyright (c) 1985-1991  Texas Instruments Incorporated 

                                                                     PAGE   49

         00010900 00000000! 
    2080 00010920     4822          cmp     a1,a2
    2081 00010930     cb08          jrnz    spp3b
    2082 00010940     09ea          movi    sp_on_fire_now,a10
         00010950 00012980' 
    2083 00010970     05ae          move    @just_now_on_fire,a14,W
         00010980 00000000! 
    2084 000109a0     cb00          jrnz    sp_dne          ;he is now on fire
         000109b0     017e  
    2085 000109c0     09ea  spp3b   movi    sp_hatrack,a10
         000109d0 000129b0' 
    2086 000109f0     aec0          movb    *a6(POF_GOALS_P1),a0
         00010a00     07a0  
    2087 00010a10     aece          movb    *a6(POF_GOALS_P2),a14
         00010a20     07a8  
    2088 00010a30     41c0          add     a14,a0
    2089 00010a40     aece          movb    *a6(POF_GOALS_P3),a14
         00010a50     07b0  
    2090 00010a60     41c0          add     a14,a0
    2091 00010a70     aece          movb    *a6(POF_GOALS_PO),a14
         00010a80     07b8  
    2092 00010a90     41c0          add     a14,a0
    2093 00010aa0     4c04          move    a0,a4           ;save us for later
    2094 00010ab0     0b40          cmpi    9,a0
         00010ac0     fff6  
    2095 00010ad0     ca00          jrz     sp_dne          ;hat rack
         00010ae0     016b  
    2096 00010af0     09ea          movi    sp_tied,a10
         00010b00 00012b00' 
    2097 00010b20     05a2          move    @team1_score,a2,W
         00010b30 00000000! 
    2098 00010b50     05a3          move    @team2_score,a3,W
         00010b60 00000000! 
    2099 00010b80     4843          cmp     a2,a3
    2100 00010b90     cb0f          jrnz    spp4b
    2101 00010ba0     09c0          movi    400,a0
         00010bb0     0190  
    2102 00010bc0     0d5f          calla   RANDPER
         00010bd0 00000000! 
    2103 00010bf0     c909          jrnc    spp4b           ;60% of tied up goals don't get announced as a tie
    2104 00010c00     0b42          cmpi    20,a2
         00010c10     ffeb  
    2105 00010c20     c300          jrhi    sp_dne          ;tied up at more than 20
         00010c30     0156  
    2106 00010c40     09ea          movi    sp_tied_tied_score,a10
         00010c50 00012e00' 
    2107 00010c70     c000          jruc    sp_dne          ;tied up at 20 or less
         00010c80     0151  
    2108 00010c90     09ea  spp4b   movi    sp_hattrick,a10
         00010ca0 000129e0' 
    2109 00010cc0     0b44          cmpi    3,a4
         00010cd0     fffc  
    2110 00010ce0     ca00          jrz     sp_dne          ;a hat trick
         00010cf0     014a  
    2111 00010d00     09ea          movi    sp_on_fire,a10
TMS340 COFF Macro Assembler Version 6.10     Wed Apr 21 11:34:12 2021
 Copyright (c) 1985-1991  Texas Instruments Incorporated 

                                                                     PAGE   50

         00010d10 00012a40' 
    2112 00010d30     05a2          move    @hot_player,a2
         00010d40 00000000! 
    2113 00010d60     4822          cmp     a1,a2
    2114 00010d70     ca00          jrz     sp_dne          ;on fire goal
         00010d80     0141  
    2115 00010d90     05a2          move    @score_call_log,a2
         00010da0 000000f0- 
    2116 00010dc0     24a2          sll     5,a2
    2117 00010dd0     0b22          addi    slog_caln,a2
         00010de0 00010e20' 
    2118 00010e00     8642          move    *a2,a2,L
    2119 00010e10     0162          jump    a2              ;jump to a call that will be different from the last one
    2120 00010e20           slog_caln
    2121 00010e20 00010ea0'         .long   score_all_calls
    2122 00010e40 00010ef0'         .long   score_no_name
    2123 00010e60 00010f30'         .long   score_no_description
    2124 00010e80 00010f70'         .long   score_no_score
    2125 00010ea0           score_all_calls
    2126 00010ea0     1860          movk    3,a0
    2127 00010eb0     09e2          movi    snn_sac,a2
         00010ec0 00011020' 
    2128 00010ee0     c00c          jruc    sacsac
    2129 00010ef0           score_no_name
    2130 00010ef0     09e2          movi    snn_snn,a2
         00010f00 00011080' 
    2131 00010f20     c007          jruc    sacsac2
    2132 00010f30           score_no_description
    2133 00010f30     09e2          movi    snn_snd,a2
         00010f40 000110c0' 
    2134 00010f60     c003          jruc    sacsac2
    2135 00010f70           score_no_score
    2136 00010f70     09e2          movi    snn_sns,a2
         00010f80 00011100' 
    2137 00010fa0     1840  sacsac2 movk    2,a0
    2138 00010fb0     0d5f  sacsac  calla   RAND0
         00010fc0 00000000! 
    2139 00010fe0     24a0          sll     5,a0
    2140 00010ff0     4040          add     a2,a0
    2141 00011000     8600          move    *a0,a0,L
    2142 00011010     0160          jump    a0
    2143 00011020 00011140' snn_sac .long   snc_nme         ;this small
    2144 00011040 00011b30'         .long   snc_dsc         ;table could be half sized
    2145 00011060 00011210'         .long   snc_scr         ;by overlapping
    2146 00011080 00011b30' snn_snn .long   snc_dsc
    2147 000110a0 00011210'         .long   snc_scr
    2148 000110c0 00011140' snn_snd .long   snc_nme
    2149 000110e0 00011210'         .long   snc_scr
    2150 00011100 00011140' snn_sns .long   snc_nme
    2151 00011120 00011b30'         .long   snc_dsc
    2152                    
    2153 00011140     1820  snc_nme movk    1,a0
    2154 00011150     0580          move    a0,@score_call_log,W
         00011160 000000f0- 
    2155 00011180     09ea          movi    snm_nme,a10
TMS340 COFF Macro Assembler Version 6.10     Wed Apr 21 11:34:12 2021
 Copyright (c) 1985-1991  Texas Instruments Incorporated 

                                                                     PAGE   51

         00011190 000111d0' 
    2156 000111b0     c000          jruc    sp_dne          ;do name or nickname
         000111c0     00fd  
    2157                    
    2158 000111d0           snm_nme WLW     1,fnnm_tab,0
    2159                    
    2160 00011210     1860  snc_scr movk    3,a0
    2161 00011220     0580          move    a0,@score_call_log,W
         00011230 000000f0- 
    2162 00011250     05a2          move    @team1_score,a2,W
         00011260 00000000! 
    2163 00011280     05a3          move    @team2_score,a3,W
         00011290 00000000! 
    2164 000112b0     4c44          move    a2,a4
    2165 000112c0     09ea          movi    sp_none,a10
         000112d0 00000000! 
    2166 000112f0     4464          sub     a3,a4           ;team 1 point of view
    2167 00011300     ca00          jrz     sp_dne  ;we get all the way to announce score, it is tied and we didn't announce it alre
         00011310     00e8  
    2168 00011320     0b41          cmpi    4,a1
         00011330     fffb  
    2169 00011340     c204          jrls    sscr1           ;team1
    2170 00011350                   SWAP    a2,a3
    2171 00011380     03a4          neg     a4              ;a2,a3,a4 = our score data from our point of view
    2172 00011390     18e5  sscr1   movk    0111b,a5        ;bits represent type of call we can make
    2173 000113a0     4c8e          move    a4,a14
    2174 000113b0     038e          abs     a14
    2175 000113c0     0b4e          cmpi    5,a14
         000113d0     fffa  
    2176 000113e0     c304          jrhi    sscnb           ;blow out, not giving up is ok
    2177 000113f0     0b85          andni   0100b,a5        ; don't do blow out/giving up call
         00011400 00000004  
    2178 00011420     c006          jruc    sscdo           ;we know that differential is ok
    2179 00011430     0b4e  sscnb   cmpi    21,a14
         00011440     ffea  
    2180 00011450     c203          jrls    sscdo           ;not too big to call difference
    2181 00011460     0b85          andni   0001b,a5        ; don't do score differential
         00011470 00000001  
    2182 00011490     0b42  sscdo   cmpi    21,a2
         000114a0     ffea  
    2183 000114b0     c903          jrhs    sscns           ;too high for just scores
    2184 000114c0     0b43          cmpi    21,a3
         000114d0     ffea  
    2185 000114e0     c803          jrlo    sscdx           ;scores are ok
    2186 000114f0     0b85  sscns   andni   0010b,a5        ; don't do score announcement
         00011500 00000002  
    2187 00011520     24a5  sscdx   sll     5,a5
    2188 00011530     0b25          addi    sr_sctb,a5
         00011540 00011580' 
    2189 00011560     86a5          move    *a5,a5,L
    2190 00011570     0165          jump    a5
    2191                    
    2192 00011580 00011680' sr_sctb .long   skr_none        ;000    ;we never get here
    2193 000115a0 000116d0'         .long   skr_scrd        ;001    ;score differential only
    2194 000115c0 000117d0'         .long   skr_scra        ;010    ;score announcement only
TMS340 COFF Macro Assembler Version 6.10     Wed Apr 21 11:34:12 2021
 Copyright (c) 1985-1991  Texas Instruments Incorporated 

                                                                     PAGE   52

    2195 000115e0 00011870'         .long   skr_scrda       ;011    ;score differential or announcement
    2196 00011600 000118d0'         .long   skr_scrb        ;100    ;blow out/not giving up only
    2197 00011620 00011970'         .long   skr_scrbd       ;101    ;blow out or differential
    2198 00011640 000119d0'         .long   skr_scrba       ;110    ;blow out or score announcement
    2199 00011660 00011a30'         .long   skr_scrbad      ;111    ;call any announcement (under 21 points both teams, 6 point diff
    2200                    
    2201 00011680           skr_none
    2202 00011680     09ea          movi    sp_none,a10
         00011690 00000000! 
    2203 000116b0     c000          jruc    sp_dne
         000116c0     00ad  
    2204                    
    2205 000116d0           skr_scrd
    2206 000116d0     09ea          movi    sp_score_down,a10
         000116e0 00013120' 
    2207 00011700     4c84          move    a4,a4
    2208 00011710     ce09          jrn     sld_1           ;we are down
    2209 00011720     09ea          movi    sp_score_up,a10 ;we are ahead 2 or more
         00011730 00013350' 
    2210 00011750     0b44          cmpi    1,a4
         00011760     fffe  
    2211 00011770     cb03          jrnz    sld_1
    2212 00011780     09ea          movi    sp_new_lead,a10 ;we are ahead by 1
         00011790 000130c0' 
    2213 000117b0     c000  sld_1   jruc    sp_dne
         000117c0     009d  
    2214                    
    2215 000117d0           skr_scra
    2216 000117d0     09ea          movi    sp_scores_up,a10
         000117e0 00013290' 
    2217 00011800     4c84          move    a4,a4
    2218 00011810     c103          jrp     sla_1           ;we are ahead
    2219 00011820     09ea          movi    sp_scores_down,a10      ;we are down
         00011830 000131b0' 
    2220 00011850     c000  sla_1   jruc    sp_dne
         00011860     0093  
    2221                    
    2222 00011870           skr_scrda
    2223 00011870     1840          movk    2,a0
    2224 00011880     0d5f          calla   RAND0
         00011890 00000000! 
    2225 000118b0     caf1          jrz     skr_scra        ;50% announce
    2226 000118c0     c0e0          jruc    skr_scrd        ;50% differential
    2227                    
    2228 000118d0           skr_scrb
    2229 000118d0     09ea          movi    sp_blow_out,a10
         000118e0 000133e0' 
    2230 00011900     4c84          move    a4,a4
    2231 00011910     c103          jrp     slb_1                   ;we are blowing out
    2232 00011920     09ea          movi    sp_not_giving,a10       ;we are being blown out and we score
         00011930 00013540' 
    2233 00011950     c000  slb_1   jruc    sp_dne
         00011960     0083  
    2234                    
    2235 00011970           skr_scrbd
TMS340 COFF Macro Assembler Version 6.10     Wed Apr 21 11:34:12 2021
 Copyright (c) 1985-1991  Texas Instruments Incorporated 

                                                                     PAGE   53

    2236 00011970     1840          movk    2,a0
    2237 00011980     0d5f          calla   RAND0
         00011990 00000000! 
    2238 000119b0     caf1          jrz     skr_scrb        ;50% blowout
    2239 000119c0     c0d0          jruc    skr_scrd        ;50% differential
    2240                    
    2241 000119d0           skr_scrba
    2242 000119d0     1840          movk    2,a0
    2243 000119e0     0d5f          calla   RAND0
         000119f0 00000000! 
    2244 00011a10     cadb          jrz     skr_scra        ;50% announce
    2245 00011a20     c0ea          jruc    skr_scrb        ;50% blowout
    2246                    
    2247 00011a30           skr_scrbad
    2248 00011a30     1860          movk    3,a0
    2249 00011a40     0d5f          calla   RAND0
         00011a50 00000000! 
    2250 00011a70     24a0          sll     5,a0
    2251 00011a80     0b20          addi    sbadl,a0
         00011a90 00011ad0' 
    2252 00011ab0     8600          move    *a0,a0,L
    2253 00011ac0     0160          jump    a0
    2254 00011ad0 000117d0' sbadl   .long   skr_scra        ;33% announce
    2255 00011af0 000118d0'         .long   skr_scrb        ;33% blow out
    2256 00011b10 000116d0'         .long   skr_scrd        ;33% differential
    2257                    
    2258 00011b30           snc_dsc
    2259 00011b30     09ea          movi    sp_how,a10
         00011b40 00013b80' 
    2260 00011b60     0d5f          calla   get_very_last_player    ;we trash our score, ok we don't need it anymore
         00011b70 00000000! 
    2261 00011b90     4823          cmp     a1,a3
    2262 00011ba0     cb5f          jrnz    sp_dne          ;we didn't shoot this in, do a how
    2263 00011bb0     07a7          move    @PUCK_OBJECT,a7,L
         00011bc0 00000000! 
    2264 00011be0     b4ee          move    *a7(OYPOS),a14,W
         00011bf0     0170  
    2265 00011c00     03ae          neg     a14
    2266 00011c10     0b4e          cmpi    20,a14
         00011c20     ffeb  
    2267 00011c30     c40f          jrlt    swd_nt          ;not a top shelf goal
    2268 00011c40     09ea          movi    sp_top_shelf_corner,a10
         00011c50 000135a0' 
    2269 00011c70     b4ee          move    *a7(OZPOS),a14,W
         00011c80     0190  
    2270 00011c90     0b4e          cmpi    350,a14
         00011ca0     fea1  
    2271 00011cb0     c74e          jrgt    sp_dne          ;we are in the top corner
    2272 00011cc0     0b4e          cmpi    329,a14
         00011cd0     feb6  
    2273 00011ce0     c44b          jrlt    sp_dne          ;we are in the top corner
    2274 00011cf0     09ea          movi    sp_top_shelf,a10
         00011d00 000136e0' 
    2275 00011d20     c047          jruc    sp_dne          ;top shelf center of goal
    2276 00011d30     09ea  swd_nt  movi    sp_5_hole,a10
TMS340 COFF Macro Assembler Version 6.10     Wed Apr 21 11:34:12 2021
 Copyright (c) 1985-1991  Texas Instruments Incorporated 

                                                                     PAGE   54

         00011d40 000138c0' 
    2277 00011d60     4c2e          move    a1,a14
    2278 00011d70     142e          dec     a14
    2279 00011d80     2fce          srl     2,a14
    2280 00011d90     0bce          xori    1,a14
         00011da0 00000001  
    2281 00011dc0     244e          sll     2,a14
    2282 00011dd0     108e          addk    4,a14           ;opposite goalie
    2283 00011de0                   GBLOCK  a14,a14
    2284 00011e20     b7c9          move    *a14(POF_OBJECT),a9,L
         00011e30     0280  
    2285 00011e40     b72e          move    *a9(ODT_GSAVE),a14,L
         00011e50     0650  
    2286 00011e60     0b6e          cmpi    SET_GFULLBUTT_SCRIPT,a14
         00011e70 ffffffff! 
    2287 00011e90     cb08          jrnz    swd_n5          ;not 5 hole
    2288 00011ea0     b4ee          move    *a7(OZPOS),a14,W
         00011eb0     0190  
    2289 00011ec0     0b4e          cmpi    350,a14
         00011ed0     fea1  
    2290 00011ee0     c703          jrgt    swd_n5          ;not 5 hole
    2291 00011ef0     0b4e          cmpi    329,a14
         00011f00     feb6  
    2292 00011f10     c728          jrgt    sp_dne          ;5 hole
    2293 00011f20     09ea  swd_n5  movi    sp_dsc_any,a10
         00011f30 00013c10' 
    2294 00011f50     c024          jruc    sp_dne
    2295                    
    2296 00011f60           spx_score_game_over
    2297 00011f60     098f          mmtm    sp,a0,a1,a2,a3,a4,a5,a6,a7,a8,a9,a10,a11
         00011f70     fff0  
    2298 00011f80     05a1          move    @scored_by,a1,W
         00011f90 00000000! 
    2299 00011fb0     ca36          jrz     kexit
    2300 00011fc0     05a2          move    @team1_score,a2,W
         00011fd0 00000000! 
    2301 00011ff0     05a3          move    @team2_score,a3,W
         00012000 00000000! 
    2302 00012020     05a5          move    @team1_score_P2,a5,W
         00012030 00000000! 
    2303 00012050     05ae          move    @team2_score_P2,a14,W
         00012060 00000000! 
    2304 00012080     45c5          sub     a14,a5
    2305 00012090     0b41          cmpi    4,a1
         000120a0     fffb  
    2306 000120b0     c204          jrls    kr1             ;team1
    2307 000120c0                   SWAP    a2,a3
    2308 000120f0     03a5          neg     a5              ;a5 is our differential at the end of two
    2309 00012100     1824  kr1     movk    1,a4            ;our differential is 1
    2310 00012110     09ea          movi    sp_otgw,a10     ;game over
         00012120 00013e90' 
    2311 00012140     4ca5          move    a5,a5
    2312 00012150     cf04          jrnn    sp_dne          ;not a come from behind victory
    2313 00012160     09ea          movi    sp_otgw_cb,a10
         00012170 00014000' 
TMS340 COFF Macro Assembler Version 6.10     Wed Apr 21 11:34:12 2021
 Copyright (c) 1985-1991  Texas Instruments Incorporated 

                                                                     PAGE   55

    2314 00012190     0300          jruc    sp_dne          ;a come from behind victory
    2315                    
    2316 000121a0     05a6  sp_dne  move    @team1,a6,W
         000121b0 00000000! 
    2317 000121d0     0b41          cmpi    4,a1
         000121e0     fffb  
    2318 000121f0     c203          jrls    spdk1
    2319 00012200     05a6          move    @team2,a6,W
         00012210 00000000! 
    2320 00012230     4c85  spdk1   move    a4,a5
    2321 00012240     0385          abs     a5
    2322 00012250     4c21          move    a1,a1
    2323 00012260     ca06          jrz     klor            ;we were scored by noone, announce as noone
    2324 00012270                   GBLOCK  a1,a1
    2325 000122b0     b421          move    *a1(POF_CHARACTER),a1,W
         000122c0     0070  
    2326 000122d0     078a  klor    move    a10,@last_dne,L
         000122e0 00000100- 
    2327 00012300     0d3f          callr   handle_speech_string
         00012310     06e7  
    2328 00012320     09af  kexit   mmfm    sp,a0,a1,a2,a3,a4,a5,a6,a7,a8,a9,a10,a11
         00012330     0fff  
    2329 00012340     0960          rets
    2330                    
    2331 00012350           sp_fs_ntab
    2332 00012350     000a          .word   10,8
    2333 00012370 00012470'         .long   spfs1,spfs2,spfs3,spfs5,spfs6,spfs7,spfs8,spfs9
    2334 00012470     08ab  spfs1   .word   008abh,-85,0            ;He shoots He scores 1
    2335 000124a0     08ac  spfs2   .word   008ach,-123,0           ;_ Shooting : he scores
    2336 000124d0     08b0  spfs3   .word   008b0h,-100,0           ;He shoots He scores 3
    2337 00012500     09dd  spfs5   .word   009ddh,-93,0            ;He shoots, he scores (fast)
    2338 00012530     09e2  spfs6   .word   009e2h,-66,0            ;They score
    2339 00012560     09e8  spfs7   .word   009e8h,-49,0            ;Its in the net
    2340 00012590     09e2  spfs8   .word   009e2h,-66,0            ;They score
    2341 000125c0     09da  spfs9   .word   009dah,-75,0            ;The red light goes on
    2342                    
    2343                    
    2344 000125f0           sp_js_ntab
    2345 000125f0     000a          .word   10,8
    2346 00012610 00012710'         .long   spjs1,spjs2,spjs3,spjs4,spjs7,spjs9,spjs9a,spjsa
    2347 00012710     08b3  spjs1   .word   008b3h,-69,0            ;He scores 1
    2348 00012740     08b3  spjs2   .word   008b3h,-69,0            ;He scores 1
    2349 00012770     09f4  spjs3   .word   009f4h,-74,0            ;He scores
    2350 000127a0     0a1b  spjs4   .word   00a1bh,-64,0            ;He scores
    2351 000127d0     0fa6  spjs7   .word   00fa6h,-72,0            ;He scores (C)
    2352 00012800     09e8  spjs9   .word   009e8h,-51,0            ;Its in the net
    2353 00012830     0a1b  spjs9a  .word   00a1bh,-64,0            ;He scores
    2354 00012860     07d7  spjsa   .word   007d7h,-74,0            ;He scores !
    2355                    
    2356 00012890           sp_smokin
    2357 00012890     000a          .word   10,2
    2358 000128b0 000128f0'         .long   spsmk1,spsmk2
    2359 000128f0     0907  spsmk1  .word   00907h,-45,0            ;He-s heating up
    2360 00012920     0af3  spsmk2  .word   00af3h,-60,0            ;He's smokin
    2361                    
TMS340 COFF Macro Assembler Version 6.10     Wed Apr 21 11:34:12 2021
 Copyright (c) 1985-1991  Texas Instruments Incorporated 

                                                                     PAGE   56

    2362 00012950           sp_tsmokin
    2363 00012950     0af4          .word   00af4h,-59,0            ;They're smokin
    2364                    
    2365 00012980           sp_on_fire_now
    2366 00012980     0905          .word   00905h,-76,0            ;He-s on fire
    2367                    
    2368 000129b0           sp_hatrack
    2369 000129b0     09e4          .word   009e4h,-126,0           ;So many hat tricks he needs a hat rack
    2370                    
    2371 000129e0           sp_hattrick
    2372 000129e0     09e3          .word   009e3h,-58              ;The hat trick for _
    2373 00012a00                   WLW     1,fnm_tab,0
    2374                    
    2375 00012a40           sp_on_fire
    2376 00012a40     000a          .word   10,2
    2377 00012a60 00012aa0'         .long   sponf1,sponf2
    2378 00012aa0     0905  sponf1  .word   00905h,-76,0            ;He-s on fire
    2379 00012ad0     0975  sponf2  .word   00975h,-70,0            ;Toasty
    2380                    
    2381 00012b00           sp_tied
    2382 00012b00     000a          .word   10,8
    2383 00012b20 00012c20'         .long   sptd1,sptd2,sptd3,sptd4,sptd5,sptd6,sptd7,sptd10
    2384 00012c20           sptd1   WL      1,fnm_tab
    2385 00012c50     09e7          .word   009e7h,-48,0            ;_ Ties it up
    2386 00012c80     09e7  sptd2   .word   009e7h,-48,0            ;_ Ties it up
    2387 00012cb0           sptd3   WL      1,fnm_tab
    2388 00012ce0     09fa          .word   009fah,-45,0            ;Ties it up
    2389 00012d10     09fa  sptd4   .word   009fah,-45,0            ;Ties it up
    2390 00012d40     0acd  sptd5   .word   00acdh,-72,0            ;He ties the game
    2391 00012d70     0ace  sptd6   .word   00aceh,-85,0            ;He's tied the game
    2392 00012da0     0ad6  sptd7   .word   00ad6h,-54,0            ;Tie Game
    2393 00012dd0     0ad9  sptd10  .word   00ad9h,-64,0            ;All tied up
    2394                    
    2395 00012e00           sp_tied_tied_score
    2396 00012e00     000a          .word   10,2
    2397 00012e20 00012b00'         .long   sp_tied,spttd
    2398 00012e60     000a  spttd   .word   10,3
    2399 00012e80 00012ee0'         .long   spttd1,spttd2,spttd5
    2400 00012ee0     0acb  spttd1  .word   00acbh,-61              ;Its tied at _
    2401 00012f00                   WLW     3,nmb_tab,0
    2402 00012f40     0ad6  spttd2  .word   00ad6h,-54,0            ;Tie Game
    2403 00012f70                   WL      3,nmb_tab
    2404 00012fa0     0914          .word   00914h,-9               ;To _ 2
    2405 00012fc0                   WLW     3,nmb_tab,0
    2406 00013000     0ad9  spttd5  .word   00ad9h,-64,0            ;All tied up
    2407 00013030                   WL      3,nmb_tab
    2408 00013060     0914          .word   00914h,-9               ;To _ 2
    2409 00013080                   WLW     3,nmb_tab,0
    2410                    
    2411 000130c0           sp_new_lead
    2412 000130c0                   WL      6,random_team_version_tab
    2413 000130f0     0ad4          .word   00ad4h,-51,0            ;_ Take the lead #2
    2414 00013120           sp_score_down
    2415 00013120                   WL      6,random_team_version_tab
    2416 00013150     0adc          .word   00adch,-46              ;Down by _
TMS340 COFF Macro Assembler Version 6.10     Wed Apr 21 11:34:12 2021
 Copyright (c) 1985-1991  Texas Instruments Incorporated 

                                                                     PAGE   57

    2417 00013170                   WLW     5,nmb_tab,0
    2418 000131b0           sp_scores_down
    2419 000131b0                   WL      6,random_team_version_tab
    2420 000131e0     0ad5          .word   00ad5h,-31              ;_ Trail
    2421 00013200                   WL      2,nmb_tab
    2422 00013230     0914          .word   00914h,-9               ;To _ 2
    2423 00013250                   WLW     3,nmb_tab,0
    2424 00013290           sp_scores_up
    2425 00013290                   WL      6,random_team_version_tab
    2426 000132c0                   WL      2,nmb_tab
    2427 000132f0     0914          .word   00914h,-9               ;To _ 2
    2428 00013310                   WLW     3,nmb_tab,0
    2429 00013350           sp_score_up
    2430 00013350                   WL      6,random_team_version_tab
    2431 00013380     0adb          .word   00adbh,-45              ;Up by _
    2432 000133a0                   WLW     5,nmb_tab,0
    2433 000133e0           sp_blow_out
    2434 000133e0     000a          .word   10,4
    2435 00013400 00013480'         .long   sppbl1,sppbl3,sppbl4,sppbl5
    2436 00013480     0afe  sppbl1  .word   00afeh,-13,0            ;Stick a Fork in 'em, they're done
    2437 000134b0     0a08  sppbl3  .word   00a08h,-06,0            ;What an offensive show
    2438 000134e0     09ff  sppbl4  .word   009ffh,-59,0            ;Oh My !
    2439 00013510     0ade  sppbl5  .word   00adeh,-69,0            ;That's all she wrote
    2440 00013540           sp_not_giving
    2441 00013540                   WL      6,random_team_version_tab
    2442 00013570     0afb          .word   00afbh,-54,0            ;_ Aren't giving up
    2443                    
    2444 000135a0           sp_top_shelf_corner
    2445 000135a0     000a          .word   10,3
    2446 000135c0 00013620'         .long   sptsc,spts,sp_dsc_any
    2447 00013620     000a  sptsc   .word   10,2
    2448 00013640 00013680'         .long   sptsc1,sptsc2
    2449 00013680     084e  sptsc1  .word   0084eh,-77,0            ;Into the top corner
    2450 000136b0     0850  sptsc2  .word   00850h,-78,0            ;Put it into the top corner
    2451                    
    2452 000136e0           sp_top_shelf
    2453 000136e0     000a          .word   10,3
    2454 00013700 00013760'         .long   spts,spts,sp_dsc_any
    2455 00013760     000a  spts    .word   10,4
    2456 00013780 00013800'         .long   spts3,spts4,spts5,sp_dsa7
    2457 00013800     0855  spts3   .word   00855h,-78,0            ;Onto the top shelf
    2458 00013830     0856  spts4   .word   00856h,-65,0            ;Top shelf !
    2459 00013860     087d  spts5   .word   0087dh,-87,0            ;He went up top !
    2460 00013890     0a13  sp_dsa7 .word   00a13h,-77,0            ;He dents the twine
    2461                    
    2462 000138c0           sp_5_hole
    2463 000138c0     000a          .word   10,3
    2464 000138e0 00013940'         .long   sp_5h,sp_5h,sp_dsc_any
    2465 00013940     000a  sp_5h   .word   10,6
    2466 00013960 00013a20'         .long   sp5h1,sp5h2,sp5h5,sp5h6,sp5h7,sp5h8
    2467 00013a20     084f  sp5h1   .word   0084fh,-45              ;Great Shot _
    2468 00013a40     0a20          .word   00a20h,-108,0           ;He pumped it through the five-hole
    2469 00013a70     0a20  sp5h2   .word   00a20h,-108,0           ;He pumped it through the five-hole
    2470 00013aa0     0a23  sp5h5   .word   00a23h,-99,0            ;He opened up the pearly gates
    2471 00013ad0     0a95  sp5h6   .word   00a95h,-84,0            ;Right between the legs
TMS340 COFF Macro Assembler Version 6.10     Wed Apr 21 11:34:12 2021
 Copyright (c) 1985-1991  Texas Instruments Incorporated 

                                                                     PAGE   58

    2472 00013b00     0a94  sp5h7   .word   00a94h,-49,0            ;Through the legs
    2473 00013b30     084f  sp5h8   .word   0084fh,-45              ;Great Shot _
    2474 00013b50     0a95          .word   00a95h,-84,0            ;Right between the legs
    2475                    
    2476 00013b80           sp_how
    2477 00013b80     000a          .word   10,2
    2478 00013ba0 00013be0'         .long   sp_hh,sp_dsc_any
    2479 00013be0     0a1e  sp_hh   .word   00a1eh,-103,0           ;Oh how did that one go in ?
    2480                    
    2481 00013c10           sp_dsc_any
    2482 00013c10     000a          .word   10,7
    2483 00013c30 00013d10'         .long   sp_dsa1,sp_dsa2,sp_dsa3,sp_dsa4,sp_dsa5,sp_dsa6,sp_dsa8
    2484 00013d10     084f  sp_dsa1 .word   0084fh,-45,0            ;Great Shot _
    2485 00013d40           sp_dsa2 WL      1,fnm_tab
    2486 00013d70     0a05          .word   00a05h,-60,0            ;_ drives it home
    2487 00013da0     0a06  sp_dsa3 .word   00a06h,-62,0            ;He tucks it home
    2488 00013dd0           sp_dsa8
    2489 00013dd0     0a0e  sp_dsa4 .word   00a0eh,-61              ;A big goal by _
    2490 00013df0                   WLW     1,fnm_tab,0
    2491 00013e30     0a0f  sp_dsa5 .word   00a0fh,-71,0            ;A big goal
    2492 00013e60     0a11  sp_dsa6 .word   00a11h,-103,0           ;He puts the biscuit in the basket 2
    2493                    
    2494 00013e90     000a  sp_otgw .word   10,2
    2495 00013eb0 00013ef0'         .long   sp_ogw1,sp_ogw2
    2496 00013ef0           sp_ogw1 WL      1,fnm_tab
    2497 00013f20     0ad2          .word   00ad2h,-78,0            ;Wins the Game
    2498 00013f50     0add  sp_ogw2 .word   00addh,-99              ;a sudden-death goal
    2499 00013f70     0ad2          .word   00ad2h,-78,0            ;Wins the Game
    2500 00013fa0           sp_ogw3 WL      1,fnm_tab
    2501 00013fd0     09d7          .word   009d7h,-86,0            ;_ scores the game winner
    2502                    
    2503 00014000           sp_otgw_cb
    2504 00014000     000a          .word   10,2
    2505 00014020 00014060'         .long   sp_otw1,sp_otw2
    2506 00014060           sp_otw1 WL      1,fnm_tab
    2507 00014090     0ad2          .word   00ad2h,-78              ;Wins the Game
    2508 000140b0     0adf          .word   00adfh,-67,0            ;What a comeback
    2509 000140e0     0add  sp_otw2 .word   00addh,-99              ;a sudden-death goal
    2510 00014100     0ad2          .word   00ad2h,-78              ;Wins the Game
    2511 00014120     0adf          .word   00adfh,-67,0            ;What a comeback
    2512                    
    2513 00014150           spx_game_over
    2514 00014150     098f          mmtm    sp,a1,a2,a3,a4,a5,a6,a7,a8,a9,a10,a11
         00014160     7ff0  
    2515 00014170     05a2          move    @team1_score,a2,W
         00014180 00000000! 
    2516 000141a0     05a3          move    @team2_score,a3,W
         000141b0 00000000! 
    2517 000141d0     05a6          move    @team1,a6,W
         000141e0 00000000! 
    2518 00014200     05a5          move    @team1_score_P2,a5,W
         00014210 00000000! 
    2519 00014230     05ae          move    @team2_score_P2,a14,W
         00014240 00000000! 
    2520 00014260     45c5          sub     a14,a5
TMS340 COFF Macro Assembler Version 6.10     Wed Apr 21 11:34:12 2021
 Copyright (c) 1985-1991  Texas Instruments Incorporated 

                                                                     PAGE   59

    2521 00014270     09ea          movi    sp_tie,a10
         00014280 00014500' 
    2522 000142a0     4862          cmp     a3,a2
    2523 000142b0     ca0b          jrz     sgot            ;tie game
    2524 000142c0     c707          jrgt    sgoa
    2525 000142d0     05a6          move    @team2,a6,W
         000142e0 00000000! 
    2526 00014300                   SWAP    a3,a2
    2527 00014330     03a5          neg     a5
    2528 00014340     09ea  sgoa    movi    sp_win,a10
         00014350 00014530' 
    2529 00014370     0d3f  sgot    callr   handle_speech_string
         00014380     04e0  
    2530 00014390     0b42          cmpi    20,a2
         000143a0     ffeb  
    2531 000143b0     c708          jrgt    sgob            ;we can't announce scores
    2532 000143c0     0b43          cmpi    20,a3
         000143d0     ffeb  
    2533 000143e0     c705          jrgt    sgob            ;we can't announce scores
    2534 000143f0     09ea          movi    sp_wscores,a10
         00014400 00014650' 
    2535 00014420     0d3f          callr   handle_speech_string
         00014430     04d5  
    2536 00014440     4ca5  sgob    move    a5,a5
    2537 00014450     cf07          jrnn    sgoc            ;not a comeback
    2538 00014460     4843          cmp     a2,a3
    2539 00014470     ca05          jrz     sgoc            ;a tie is not a comeback
    2540 00014480     09ea          movi    sp_comeback,a10
         00014490 000146e0' 
    2541 000144b0     0d3f          callr   handle_speech_string
         000144c0     04cc  
    2542 000144d0     09af  sgoc    mmfm    sp,a1,a2,a3,a4,a5,a6,a7,a8,a9,a10,a11
         000144e0     0ffe  
    2543 000144f0     0960          rets
    2544                    
    2545 00014500     0ad6  sp_tie  .word   00ad6h,-54,0            ;Tie Game
    2546                    
    2547                    ;************************** add just win city call
    2548 00014530     000a  sp_win  .word   10,2
    2549 00014550 00014590'         .long   spwn1,spwn2
    2550 00014590           spwn1   WL      6,city_team_name_tab
    2551 000145c0     0aa2          .word   00aa2h,-31,0            ;_ Win !
    2552 000145f0           spwn2   WL      6,city_team_name_tab
    2553 00014620     0ad0          .word   00ad0h,-59,0            ;Win the Game #4
    2554                    
    2555 00014650           sp_wscores
    2556 00014650                   WL      2,nmb_tab
    2557 00014680     0914          .word   00914h,-9               ;To _ 2
    2558 000146a0                   WLW     3,nmb_tab,0
    2559                    
    2560 000146e0           sp_comeback
    2561 000146e0     0adf          .word   00adfh,-67,0            ;What a comeback
    2562                    
    2563 00014710           spx_check_hit_glass_only
    2564 00014710     098f          mmtm    sp,a0,a1,a2,a3,a4,a5,a6,a7,a8,a9,a10,a11
TMS340 COFF Macro Assembler Version 6.10     Wed Apr 21 11:34:12 2021
 Copyright (c) 1985-1991  Texas Instruments Incorporated 

                                                                     PAGE   60

         00014720     fff0  
    2565 00014730     09ea          movi    sp_glass,a10
         00014740 00014910' 
    2566 00014760     05ae          move    @glass_break_now,a14,W
         00014770 00000000! 
    2567 00014790     cb12          jrnz    schb1
    2568 000147a0     09af          mmfm    sp,a0,a1,a2,a3,a4,a5,a6,a7,a8,a9,a10,a11
         000147b0     0fff  
    2569 000147c0     0960          rets
    2570                    
    2571 000147d0           spx_check_hit_boards
    2572 000147d0     098f          mmtm    sp,a0,a1,a2,a3,a4,a5,a6,a7,a8,a9,a10,a11
         000147e0     fff0  
    2573 000147f0     09ea          movi    sp_bench,a10
         00014800 00014910' 
    2574                            ;do bench check
    2575 00014820     09ea          movi    sp_glass,a10
         00014830 00014910' 
    2576 00014850     05ae          move    @glass_break_now,a14,W
         00014860 00000000! 
    2577 00014880     cb03          jrnz    schb1
    2578 00014890     09ea          movi    sp_boards,a10
         000148a0 000149d0' 
    2579 000148c0     57ce  schb1   clr     a14
    2580 000148d0     058e          move    a14,@glass_break_now,W
         000148e0 00000000! 
    2581 00014900     c057          jruc    check_common
    2582                    
    2583 00014910           sp_bench
    2584                    ;  2484 $09b4  5     80.4    92.2  Oh he put him right in the bench
    2585                    
    2586 00014910           sp_glass
    2587 00014910     000a          .word   10,2
    2588 00014930 00014970'         .long   spgls1,spgls2
    2589 00014970     098c  spgls1  .word   0098ch,-90,0            ;_ crashing through the glass
    2590 000149a0     08f6  spgls2  .word   008f6h,-66,0            ;He broke the glass
    2591                    
    2592 000149d0           sp_boards
    2593 000149d0     000a          .word   10,2
    2594 000149f0 000154f0'         .long   spz_any,spzbrds
    2595 00014a30     000a  spzbrds .word   10,5
    2596 00014a50 00014af0'         .long   spbr1,spbr2,spbr3,spbr4,spbr5
    2597 00014af0     09b3  spbr1   .word   009b3h,-77,0            ;_ checked into the boards
    2598 00014b20     0993  spbr2   .word   00993h,-89,0            ;_ slammed into the boards
    2599 00014b50     0997  spbr3   .word   00997h,-97,0            ;_ hit hard into the boards
    2600 00014b80     09b2  spbr4   .word   009b2h,-74,0            ;_ checked into the glass
    2601 00014bb0     09b3  spbr5   .word   009b3h,-77,0            ;_ checked into the boards
    2602                    
    2603 00014be0           spx_check_hit_elbow     ;a6 = hitter, a7 = hittee
    2604 00014be0     098f          mmtm    sp,a0,a1,a2,a3,a4,a5,a6,a7,a8,a9,a10,a11
         00014bf0     fff0  
    2605 00014c00     09ea          movi    sp_elbow,a10
         00014c10 00015150' 
    2606 00014c30     c024          jruc    check_common
    2607                    
TMS340 COFF Macro Assembler Version 6.10     Wed Apr 21 11:34:12 2021
 Copyright (c) 1985-1991  Texas Instruments Incorporated 

                                                                     PAGE   61

    2608 00014c40           spx_check_hit_push1     ;a6 = hitter, a7 = hittee
    2609 00014c40     098f          mmtm    sp,a0,a1,a2,a3,a4,a5,a6,a7,a8,a9,a10,a11
         00014c50     fff0  
    2610 00014c60     09ea          movi    sp_push1,a10
         00014c70 00015190' 
    2611 00014c90     c01e          jruc    check_common
    2612                    
    2613 00014ca0           spx_check_hit_push2
    2614 00014ca0     098f          mmtm    sp,a0,a1,a2,a3,a4,a5,a6,a7,a8,a9,a10,a11
         00014cb0     fff0  
    2615 00014cc0     09ea          movi    sp_push2,a10
         00014cd0 00015230' 
    2616 00014cf0     c018          jruc    check_common
    2617                    
    2618 00014d00           spx_check_hit_slash
    2619 00014d00     098f          mmtm    sp,a0,a1,a2,a3,a4,a5,a6,a7,a8,a9,a10,a11
         00014d10     fff0  
    2620 00014d20     09ea          movi    sp_slashed,a10
         00014d30 000152d0' 
    2621 00014d50     c012          jruc    check_common
    2622                    
    2623 00014d60           spx_check_hit_high
    2624 00014d60     098f          mmtm    sp,a0,a1,a2,a3,a4,a5,a6,a7,a8,a9,a10,a11
         00014d70     fff0  
    2625 00014d80     09ea          movi    sp_high_sticked,a10
         00014d90 00015370' 
    2626 00014db0     c00c          jruc    check_common
    2627                    
    2628 00014dc0           spx_check_hit_hip
    2629 00014dc0     098f          mmtm    sp,a0,a1,a2,a3,a4,a5,a6,a7,a8,a9,a10,a11
         00014dd0     fff0  
    2630 00014de0     09ea          movi    sp_hipped,a10
         00014df0 00015410' 
    2631 00014e10     c006          jruc    check_common
    2632                    
    2633 00014e20           spx_check_hit_flying
    2634 00014e20     098f          mmtm    sp,a0,a1,a2,a3,a4,a5,a6,a7,a8,a9,a10,a11
         00014e30     fff0  
    2635 00014e40     09ea          movi    sp_flying,a10
         00014e50 000154b0' 
    2636 00014e70     0300          jruc    check_common
    2637                    
    2638 00014e80           check_common
    2639 00014e80     0d5f          calla   get_speech_time_remaining
         00014e90 00000000! 
    2640 00014eb0     0b40          cmpi    3,a0
         00014ec0     fffc  
    2641 00014ed0     c924          jrhs    scp1_9
    2642                    ;       movi    sp_push1,a10
    2643                    
    2644 00014ee0     b6c8          move    *a6(POF_OBJECT),a8,L
         00014ef0     0280  
    2645 00014f00     b50e          move    *a8(OFLAGS),a14,W
         00014f10     0420  
    2646 00014f20     1f0e          btst    B_OFSCRN,a14
TMS340 COFF Macro Assembler Version 6.10     Wed Apr 21 11:34:12 2021
 Copyright (c) 1985-1991  Texas Instruments Incorporated 

                                                                     PAGE   62

    2647 00014f30     cb1e          jrnz    scp1_9                          ;one guy is off screen, no speech
    2648 00014f40     b6e9          move    *a7(POF_OBJECT),a9,L
         00014f50     0280  
    2649 00014f60     b52e          move    *a9(OFLAGS),a14,W
         00014f70     0420  
    2650 00014f80     1f0e          btst    B_OFSCRN,a14
    2651 00014f90     cb18          jrnz    scp1_9                          ;other guy is off screen, no speech
    2652 00014fa0     05ae          move    @PUCK_CONTROL,a14,W
         00014fb0 00000000! 
    2653 00014fd0     ca0e          jrz     scp1k                           ;puck is free, ok to call
    2654 00014fe0     aec2          movb    *a6(POF_NUMBER),a2
         00014ff0     0000  
    2655 00015000     484e          cmp     a2,a14
    2656 00015010     ca0a          jrz     scp1k                           ;we just got the puck, ok to call
    2657 00015020     aee2          movb    *a7(POF_NUMBER),a2
         00015030     0000  
    2658 00015040     484e          cmp     a2,a14
    2659 00015050     ca06          jrz     scp1k                           ;he still has the puck, ok to call
    2660 00015060     09c0          movi    250,a0
         00015070     00fa  
    2661 00015080     0d5f          calla   RANDPER
         00015090 00000000! 
    2662 000150b0     c906          jrnc    scp1_9
    2663 000150c0     b4c2  scp1k   move    *a6(POF_CHARACTER),a2,W
         000150d0     0070  
    2664 000150e0     b4e3          move    *a7(POF_CHARACTER),a3,W
         000150f0     0070  
    2665 00015100     0d3f          callr   handle_speech_string
         00015110     0407  
    2666 00015120     09af  scp1_9  mmfm    sp,a0,a1,a2,a3,a4,a5,a6,a7,a8,a9,a10,a11
         00015130     0fff  
    2667 00015140     0960          rets
    2668                    
    2669 00015150           sp_elbow
    2670 00015150     000a          .word   10,1
    2671 00015170 000154f0'         .long   spz_any
    2672                    
    2673 00015190           sp_push1
    2674 00015190     000a          .word   10,4
    2675 000151b0 000154f0'         .long   spz_any,spz_any,spz_any,spz_cross
    2676                    
    2677 00015230           sp_push2
    2678 00015230     000a          .word   10,4
    2679 00015250 000154f0'         .long   spz_any,spz_any,spz_knocked,spz_cross
    2680                    
    2681 000152d0           sp_slashed
    2682 000152d0     000a          .word   10,4
    2683 000152f0 000154f0'         .long   spz_any,spz_any,spz_knocked,spz_slashed
    2684                    
    2685 00015370           sp_high_sticked
    2686 00015370     000a          .word   10,4
    2687 00015390 000154f0'         .long   spz_any,spz_any,spz_knocked,spz_high
    2688                    
    2689 00015410           sp_hipped
    2690 00015410     000a          .word   10,4
TMS340 COFF Macro Assembler Version 6.10     Wed Apr 21 11:34:12 2021
 Copyright (c) 1985-1991  Texas Instruments Incorporated 

                                                                     PAGE   63

    2691 00015430 000154f0'         .long   spz_any,spz_any,spz_knocked,spz_hip
    2692                    
    2693 000154b0           sp_flying
    2694 000154b0     000a          .word   10,1
    2695 000154d0 000154f0'         .long   spz_any
    2696                    
    2697 000154f0     000a  spz_any .word   10,18
    2698 00015510 00015750'         .long   spa1,spa2,spa3,spa4,spa5,spa6,spa7,spa8,spa9,spa10
    2699 00015650 00015930'         .long   spa11,spa12,spa13,spa15,spa16,spa17,spa18,spa19
    2700 00015750     0981  spa1    .word   00981h,-67,0            ;Brutal hit
    2701 00015780     0980  spa2    .word   00980h,-108,0           ;_ He really clocked him
    2702 000157b0     0981  spa3    .word   00981h,-67,0            ;Brutal hit
    2703 000157e0     0982  spa4    .word   00982h,-92,0            ;Oh brother that had to hurt
    2704 00015810     0983  spa5    .word   00983h,-76,0            ;He really corked him
    2705 00015840     0984  spa6    .word   00984h,-71,0            ;He unloaded on him
    2706 00015870     0985  spa7    .word   00985h,-79,0            ;A rude greeting
    2707 000158a0     0986  spa8    .word   00986h,-105,0           ;Its getting rough out there
    2708 000158d0     0987  spa9    .word   00987h,-62,0            ;What a mugging
    2709 00015900     0988  spa10   .word   00988h,-79,0            ;He-s hit hard
    2710 00015930     098b  spa11   .word   0098bh,-90,0            ;No penalty called
    2711 00015960     098d  spa12   .word   0098dh,-54,0            ;_ hit hard
    2712 00015990     098e  spa13   .word   0098eh,-65,0            ;_ checked hard
    2713 000159c0           spa15   WL      3,nm_tab
    2714 000159f0     09a7          .word   009a7h,-73,0            ;_ pays the price
    2715 00015a20     09a8  spa16   .word   009a8h,-33,0            ;Wham 
    2716 00015a50     09a9  spa17   .word   009a9h,-37,0            ;Bam 
    2717 00015a80     09aa  spa18   .word   009aah,-46,0            ;Slam 
    2718 00015ab0     09af  spa19   .word   009afh,-59              ;Clobbered by _
    2719 00015ad0                   WLW     2,nm_tab,0
    2720                    
    2721 00015b10           spz_cross
    2722 00015b10     000a          .word   10,2
    2723 00015b30 00015b70'         .long   spcr1,spcr2
    2724 00015b70           spcr1   WL      2,nm_tab
    2725 00015ba0     09a1          .word   009a1h,-61,0            ;_ with a cross-check
    2726 00015bd0     09ad  spcr2   .word   009adh,-54,0            ;_ cross-checked
    2727                    
    2728                    
    2729 00015c00           spz_knocked
    2730 00015c00     000a          .word   10,11
    2731 00015c20 00015d80'         .long   spkn1,spkn2,spkn3,spkn4,spkn5,spkn6,spkn7,spkn8,spkn9,spkn10,spkn11
    2732 00015d80     0991  spkn1   .word   00991h,-77,0            ;_ taken out of the play
    2733 00015db0     0992  spkn2   .word   00992h,-55,0            ;_ taken down
    2734 00015de0     0995  spkn3   .word   00995h,-56,0            ;He leveled him
    2735 00015e10     0996  spkn4   .word   00996h,-40,0            ;_ leveled !
    2736 00015e40     099a  spkn5   .word   0099ah,-68,0            ;He-s unconscious
    2737 00015e70     099d  spkn6   .word   0099dh,-89,0            ;Oh man what a hit
    2738 00015ea0     09ac  spkn7   .word   009ach,-72,0            ;_ taken out of the play
    2739 00015ed0     09ac  spkn8   .word   009ach,-72,0            ;_ taken out of the play
    2740 00015f00     09b9  spkn9   .word   009b9h,-87,0            ;Oh that should be a major
    2741 00015f30     09c2  spkn10  .word   009c2h,-77,0            ;He took him out
    2742 00015f60     09c7  spkn11  .word   009c7h,-77,0            ;That knocked the wind out of him
    2743                    
    2744 00015f90           spz_hip
    2745 00015f90                   WL      2,nm_tab
TMS340 COFF Macro Assembler Version 6.10     Wed Apr 21 11:34:12 2021
 Copyright (c) 1985-1991  Texas Instruments Incorporated 

                                                                     PAGE   64

    2746 00015fc0     09a0          .word   009a0h,-59,0            ;_ with a hip-check
    2747                    
    2748 00015ff0           spz_slashed
    2749 00015ff0     0999          .word   00999h,-35,0            ;_ tripped up
    2750                    
    2751 00016020           spz_high
    2752 00016020     000a          .word   10,2
    2753 00016040 00016080'         .long   sphg1,sphg2
    2754 00016080     099f  sphg1   .word   0099fh,-74,0            ;He goes flying
    2755 000160b0           sphg2   WL      2,nm_tab
    2756 000160e0     0994          .word   00994h,-80,0            ;_ with the high stick
    2757                    
    2758                    
    2759                    ;misc
    2760                    ;  2462 $099e  5     50.2    57.6  He-s wrapped up
    2761                    ;  2501 $09c5  5     69.9    80.2  He-s back on his feet
    2762                    ;  2502 $09c6  5     73.2    84.0  but with spaghetti legs
    2763                    ;  2506 $09ca  5     87.1    99.8  Ya hate to see that happen
    2764                    
    2765                    
    2766                    
    2767 00016110           GOALIE_SPEECH
    2768 00016110     098f          mmtm    sp,a0,a1,a2,a3,a4,a5,a6,a7,a8,a9,a10,a11
         00016120     fff0  
    2769 00016130     4c01          move    a0,a1
    2770 00016140     c002          jruc    gsgo
    2771 00016150           do_goalie_phrase
    2772 00016150     098f          mmtm    sp,a0,a1,a2,a3,a4,a5,a6,a7,a8,a9,a10,a11
         00016160     fff0  
    2773 00016170     05ae  gsgo    move    @scored_by,a14,W
         00016180 00000000! 
    2774 000161a0     cb16          jrnz    dgpr9
    2775 000161b0     0d5f          calla   get_speech_time_remaining
         000161c0 00000000! 
    2776 000161e0     0b40          cmpi    25,a0
         000161f0     ffe6  
    2777 00016200     c910          jrhs    dgpr9
    2778 00016210     07ae          move    @goalie_phrase_time,a14,L
         00016220 00000120- 
    2779 00016240     07a0          move    @WAVEIRQS,a0,L
         00016250 00000000! 
    2780 00016270     45c0          sub     a14,a0
    2781 00016280     0b40          cmpi    180,a0
         00016290     ff4b  
    2782 000162a0     c206          jrls    dgpr9           ;3 seconds between goalie calls
    2783 000162b0     24a1          sll     5,a1
    2784 000162c0     0b21          addi    gs_mapl,a1
         000162d0 00016340' 
    2785 000162f0     8621          move    *a1,a1,L
    2786 00016300     0921          call    a1
    2787 00016310     09af  dgpr9   mmfm    sp,a0,a1,a2,a3,a4,a5,a6,a7,a8,a9,a10,a11
         00016320     0fff  
    2788 00016330     0960          rets
    2789                    ;big crowd cheer on big save
    2790                    
TMS340 COFF Macro Assembler Version 6.10     Wed Apr 21 11:34:12 2021
 Copyright (c) 1985-1991  Texas Instruments Incorporated 

                                                                     PAGE   65

    2791 00016340 00016650' gs_mapl .long   gsg_rebound
    2792 00016360 00016690'         .long   gsg_smothered
    2793 00016380 000166e0'         .long   gsg_pokecheck   
    2794 000163a0 00016720'         .long   gsg_crosscheck
    2795 000163c0 00016730'         .long   gsg_frustrated
    2796 000163e0 00016740'         .long   gsg_passed      
    2797 00016400 00016750'         .long   gsg_frozen      
    2798 00016420 00016790'         .long   gsg_save                
    2799 00016440 000167d0'         .long   gsg_butterfly   
    2800 00016460 00016810'         .long   gsg_padstack    
    2801 00016480 00016850'         .long   gsg_stick       
    2802 000164a0 00016890'         .long   gsg_glove       
    2803 000164c0 000168d0'         .long   gsg_blocker     
    2804 000164e0 00016910'         .long   gsg_stomach     
    2805 00016500 00016950'         .long   gsg_skate       
    2806 00016520 00016640'         .long   gsg_none                ;gained control
    2807 00016540 00016640'         .long   gsg_none
    2808 00016560 00016640'         .long   gsg_none
    2809 00016580 00016640'         .long   gsg_none
    2810 000165a0 00016640'         .long   gsg_none
    2811 000165c0 00016640'         .long   gsg_none
    2812 000165e0 00016640'         .long   gsg_none
    2813 00016600 00016640'         .long   gsg_none
    2814 00016620 00016640'         .long   gsg_none
    2815                    
    2816 00016640           gsg_none
    2817 00016640     0960          rets
    2818                    
    2819 00016650           gsg_rebound
    2820 00016650     09ea          movi    spg_rebound,a10
         00016660 00016cf0' 
    2821 00016680     c02f          jruc    sd_wc                   ;do a10, or close if close call
    2822 00016690           gsg_smothered
    2823 00016690     0960          rets
    2824 000166a0     09ea          movi    spg_smothered,a10
         000166b0 00016d30' 
    2825 000166d0     c048          jruc    sd_go                   ;do a10 goalie save call
    2826 000166e0           gsg_pokecheck   
    2827 000166e0     09ea          movi    spg_pokecheck,a10
         000166f0 00016d70' 
    2828 00016710     c044          jruc    sd_go
    2829 00016720           gsg_crosscheck
    2830 00016720     0960          rets                            ;already called in crosscheck routine
    2831 00016730           gsg_frustrated
    2832 00016730     0960          rets                            ;we don't know what to call
    2833 00016740           gsg_passed      
    2834 00016740     0960          rets                            ;already called
    2835 00016750           gsg_frozen      
    2836 00016750     09ea          movi    spg_frozen,a10
         00016760 00016db0' 
    2837 00016780     c03d          jruc    sd_go
    2838 00016790           gsg_save                
    2839 00016790     09ea          movi    spg_save,a10
         000167a0 00016df0' 
    2840 000167c0     c01b          jruc    sd_wc
TMS340 COFF Macro Assembler Version 6.10     Wed Apr 21 11:34:12 2021
 Copyright (c) 1985-1991  Texas Instruments Incorporated 

                                                                     PAGE   66

    2841 000167d0           gsg_butterfly   
    2842 000167d0     09ea          movi    spg_butterfly,a10
         000167e0 00016e30' 
    2843 00016800     c017          jruc    sd_wc
    2844 00016810           gsg_padstack    
    2845 00016810     09ea          movi    spg_padstack,a10
         00016820 00016fb0' 
    2846 00016840     c013          jruc    sd_wc
    2847 00016850           gsg_stick       
    2848 00016850     09ea          movi    spg_stick,a10
         00016860 00017030' 
    2849 00016880     c00f          jruc    sd_wc
    2850 00016890           gsg_glove       
    2851 00016890     09ea          movi    spg_glove,a10
         000168a0 000170b0' 
    2852 000168c0     c00b          jruc    sd_wc
    2853 000168d0           gsg_blocker     
    2854 000168d0     09ea          movi    spg_blocker,a10
         000168e0 00017110' 
    2855 00016900     c007          jruc    sd_wc
    2856 00016910           gsg_stomach     
    2857 00016910     09ea          movi    spg_stomach,a10
         00016920 00017190' 
    2858 00016940     c003          jruc    sd_wc
    2859 00016950           gsg_skate       
    2860 00016950     09ea          movi    spg_skate,a10
         00016960 000171f0' 
    2861                            ;
    2862 00016980     07a1  sd_wc   move    @WAVEIRQS,a1,L
         00016990 00000000! 
    2863 000169b0     07a2          move    @goalie_phrase_time,a2,L
         000169c0 00000120- 
    2864 000169e0     4441          sub     a2,a1
    2865 000169f0     0b41          cmpi    180,a1          ;3 seconds
         00016a00     ff4b  
    2866 00016a10     c914          jrhs    sd_gob          ;don't do again call (keep unsigned branch)
    2867 00016a20     07ae          move    @PUCK_OBJECT,a14,L
         00016a30 00000000! 
    2868 00016a50     b5ce          move    *a14(OXPOS),a14,W
         00016a60     0150  
    2869 00016a70     2a2e          sra     15,a14
    2870 00016a80     05a0          move    @goalie_phrase_num,a0,W
         00016a90 00000140- 
    2871 00016ab0     49c0          cmp     a14,a0
    2872 00016ac0     cb09          jrnz    sd_gob
    2873 00016ad0     09c0          movi    300,a0
         00016ae0     012c  
    2874 00016af0     0d5f          calla   RANDPER
         00016b00 00000000! 
    2875 00016b20     c903          jrnc    sd_gob
    2876 00016b30     09ea          movi    sp_close,a10
         00016b40 00017270' 
    2877 00016b60           sd_gob  ;do big save check
    2878                    
    2879                    
TMS340 COFF Macro Assembler Version 6.10     Wed Apr 21 11:34:12 2021
 Copyright (c) 1985-1991  Texas Instruments Incorporated 

                                                                     PAGE   67

    2880 00016b60     07c0  sd_go   move    @WAVEIRQS,@goalie_phrase_time,L
         00016b70 00000000! 
         00016b90 00000120- 
    2881 00016bb0     07ae          move    @PUCK_OBJECT,a14,L
         00016bc0 00000000! 
    2882 00016be0     b5ce          move    *a14(OXPOS),a14,W
         00016bf0     0150  
    2883 00016c00     2a2e          sra     15,a14
    2884 00016c10     058e          move    a14,@goalie_phrase_num,W
         00016c20 00000140- 
    2885 00016c40     05a1          move    @PLAYER_4_BLOCK+POF_CHARACTER,a1
         00016c50 00000070! 
    2886 00016c70     4dce          move    a14,a14
    2887 00016c80     cb03          jrnz    sdg2
    2888 00016c90     05a1          move    @PLAYER_8_BLOCK+POF_CHARACTER,a1
         00016ca0 00000070! 
    2889 00016cc0     c080  sdg2    jauc    handle_speech_string
         00016cd0 00019190' 
    2890                    
    2891                    
    2892                    
    2893 00016cf0           spg_rebound
    2894 00016cf0     000a          .word   10,1
    2895 00016d10 00017270'         .long   sp_gs_regular
    2896 00016d30           spg_smothered
    2897 00016d30     000a          .word   10,1
    2898 00016d50 000181b0'         .long   sp_smother
    2899                    ;       .long   sp_frozen
    2900 00016d70           spg_pokecheck
    2901 00016d70     000a          .word   10,1
    2902 00016d90 00018710'         .long   sp_poke
    2903 00016db0           spg_frozen
    2904 00016db0     000a          .word   10,1
    2905 00016dd0 000181b0'         .long   sp_frozen
    2906 00016df0           spg_save
    2907 00016df0     000a          .word   10,1
    2908 00016e10 00017270'         .long   sp_gs_regular
    2909 00016e30           spg_butterfly
    2910 00016e30     000a          .word   10,11
    2911 00016e50 00017270'         .long   sp_gs_regular
    2912 00016e70 00017270'         .long   sp_gs_regular
    2913 00016e90 00017270'         .long   sp_gs_regular
    2914 00016eb0 00017270'         .long   sp_gs_regular
    2915 00016ed0 00017270'         .long   sp_gs_regular
    2916 00016ef0 00017f70'         .long   sp_deflect
    2917 00016f10 00017f70'         .long   sp_deflect
    2918 00016f30 00017f70'         .long   sp_deflect
    2919 00016f50 00017f70'         .long   sp_deflect
    2920 00016f70 00017f70'         .long   sp_deflect
    2921 00016f90 00017d80'         .long   sp_butterfly
    2922 00016fb0           spg_padstack
    2923 00016fb0     000a          .word   10,3
    2924 00016fd0 00017270'         .long   sp_gs_regular
    2925 00016ff0 000178b0'         .long   sp_pad
    2926 00017010 00017f70'         .long   sp_deflect
TMS340 COFF Macro Assembler Version 6.10     Wed Apr 21 11:34:12 2021
 Copyright (c) 1985-1991  Texas Instruments Incorporated 

                                                                     PAGE   68

    2927 00017030           spg_stick
    2928 00017030     000a          .word   10,3
    2929 00017050 00017270'         .long   sp_gs_regular
    2930 00017070 00017f70'         .long   sp_deflect
    2931 00017090 00018800'         .long   sp_stick_save
    2932 000170b0           spg_glove
    2933 000170b0     000a          .word   10,2
    2934 000170d0 00017270'         .long   sp_gs_regular
    2935 000170f0 00017bc0'         .long   sp_glove
    2936 00017110           spg_blocker
    2937 00017110     000a          .word   10,3
    2938 00017130 00017270'         .long   sp_gs_regular
    2939 00017150 00017db0'         .long   sp_blocker
    2940 00017170 00017f70'         .long   sp_deflect
    2941 00017190           spg_stomach
    2942 00017190     000a          .word   10,2
    2943 000171b0 00017270'         .long   sp_gs_regular
    2944 000171d0 000189c0'         .long   sp_sting
    2945 000171f0           spg_skate
    2946 000171f0     000a          .word   10,3
    2947 00017210 00017270'         .long   sp_gs_regular
    2948 00017230 00017f70'         .long   sp_deflect
    2949 00017250 00018490'         .long   sp_skate_save
    2950                    
    2951 00017270           sp_close
    2952 00017270           sp_gs_regular
    2953 00017270     000a          .word   10,20
    2954 00017290 00017510'         .long   sags1,sags2,sags3,sags4,sags5,sags6,sags7,sags8,sags9
    2955 000173b0 00017660'         .long   sagsa,sagsb,sagsc,sagsd,sagse,sagsf,sagsg,sagsh
    2956 000174b0 00017870'         .long   sagsi,sagsi,sagsi
    2957 00017510           sags1
    2958 00017510     0a27  sags3   .word   00a27h,-34,0            ;Save !
    2959 00017540           sags2
    2960 00017540     0a27  sags4   .word   00a27h,-30              ;Save !
    2961 00017560                   WLW     1,nmt_tab,0
    2962 000175a0           sags5
    2963 000175a0     0a2b  sags7   .word   00a2bh,-42,0            ;The save !
    2964 000175d0           sags6
    2965 000175d0     0a2b  sags8   .word   00a2bh,-37              ;The save !
    2966 000175f0                   WLW     1,nmt_tab,0
    2967 00017630     0a2d  sags9   .word   00a2dh,-66,0            ;And a save
    2968 00017660     0a2d  sagsa   .word   00a2dh,-58              ;And a save
    2969 00017680                   WLW     1,nmt_tab,0
    2970 000176c0     0a2e  sagsb   .word   00a2eh,-67,0            ;And a save #2
    2971 000176f0     0a2e  sagsc   .word   00a2eh,-59              ;And a save #2
    2972 00017710                   WLW     1,nmt_tab,0
    2973 00017750     0a52  sagsd   .word   00a52h,-62,0            ;He stopped him
    2974 00017780     0a52  sagse   .word   00a52h,-62,0            ;He stopped him
    2975 000177b0     0a53  sagsf   .word   00a53h,-69,0            ;He stops him
    2976 000177e0     0a78  sagsg   .word   00a78h,-59,0            ;The save !
    2977 00017810     0a78  sagsh   .word   00a78h,-52              ;The save !
    2978 00017830                   WLW     1,nmt_tab,0
    2979 00017870           sagsi   WLW     1,nm_tab,0              ;just last name
    2980                    
    2981 000178b0           sp_pad
TMS340 COFF Macro Assembler Version 6.10     Wed Apr 21 11:34:12 2021
 Copyright (c) 1985-1991  Texas Instruments Incorporated 

                                                                     PAGE   69

    2982 000178b0     000a          .word   10,10
    2983 000178d0 00017a10'         .long   sapd1,sapd2,sapd3,sapd4,sapd5,sapd6,sapd7,sapd8,sapd9,sapda
    2984 00017a10           sapd1   WL      1,nm_tab
    2985 00017a40     0a44          .word   00a44h,-79,0            ;_ Just got a leg on it
    2986 00017a70     0a44  sapd2   .word   00a44h,-79,0            ;_ Just got a leg on it
    2987 00017aa0     0a47  sapd3   .word   00a47h,-73,0            ;He just got a leg on it #2
    2988 00017ad0     0a49  sapd4   .word   00a49h,-86,0            ;He just got a pad on it
    2989 00017b00           sapd6
    2990 00017b00           sapd7
    2991 00017b00     0a58  sapd5   .word   00a58h,-86,0            ;He flashed out the pad
    2992 00017b30     0a81  sapd8   .word   00a81h,-65,0            ;He goes into the stack #2
    2993 00017b60     0a81  sapd9   .word   00a81h,-65,0            ;He goes into the stack #2
    2994 00017b90     0a82  sapda   .word   00a82h,-70,0            ;He stacks the pads
    2995                    
    2996 00017bc0           sp_glove
    2997 00017bc0     000a          .word   10,4
    2998 00017be0 00017c60'         .long   sagl1,sagl2,sagl3,sagl4
    2999 00017c60     0a57  sagl1   .word   00a57h,-66,0            ;Glove Save
    3000 00017c90     0a57  sagl2   .word   00a57h,-60              ;Glove Save
    3001 00017cb0                   WLW     1,nmt_tab,0
    3002 00017cf0           sagl3   WL      1,nm_tab
    3003 00017d20     0a67          .word   00a67h,-49,0            ;Got a glove on it
    3004 00017d50     0a67  sagl4   .word   00a67h,-49,0            ;Got a glove on it
    3005                    
    3006 00017d80           sp_butterfly
    3007 00017d80     0a84          .word   00a84h,-58,0            ;_ with the Butterfly
    3008                    
    3009 00017db0           sp_blocker
    3010 00017db0     000a          .word   10,4
    3011 00017dd0 00017e50'         .long   sabk1,sabk2,sabk3,sabk4
    3012 00017e50     0a89  sabk1   .word   00a89h,-64,0            ;Blocker Save !
    3013 00017e80     0a89  sabk2   .word   00a89h,-61              ;Blocker Save !
    3014 00017ea0                   WLW     1,nmt_tab,0
    3015 00017ee0     0a73  sabk3   .word   00a73h,-31,0            ;Blocked !
    3016 00017f10     0a73  sabk4   .word   00a73h,-31              ;Blocked !
    3017 00017f30                   WLW     1,nmt_tab,0
    3018                    
    3019 00017f70           sp_deflect
    3020 00017f70     000a          .word   10,5
    3021 00017f90 00018030'         .long   sadf1,sadf2,sadf3,sadf4,sadf5
    3022 00018030           sadf4
    3023 00018030     08fc  sadf1   .word   008fch,-64,0            ;De-flected
    3024 00018060           sadf5
    3025 00018060     08fc  sadf2   .word   008fch,-64              ;De-flected
    3026 00018080                   WLW     1,nmt_tab,0
    3027 000180c0           sadf3   WL      1,nm_tab
    3028 000180f0     0a3d          .word   00a3dh,-51,0            ;Dee-flects it
    3029 00018120           sadf6   WL      1,nm_tab
    3030 00018150     0a79          .word   00a79h,-61,0            ;_ Got a piece of it
    3031 00018180     0a62  sadf7   .word   00a62h,-49,0            ;Rebound
    3032                    
    3033 000181b0           sp_smother
    3034                    ;       .word   10,2
    3035                    ;       .long   sp_smt1,sp_smt2
    3036                    ;sp_smt1        .word   00a36h,-37,0            ;He dives
TMS340 COFF Macro Assembler Version 6.10     Wed Apr 21 11:34:12 2021
 Copyright (c) 1985-1991  Texas Instruments Incorporated 

                                                                     PAGE   70

    3037                    ;sp_smt2        .word   00a36h,-37,0            ;He dives
    3038                    
    3039 000181b0           sp_frozen
    3040 000181b0     000a          .word   10,10
    3041 000181d0 00018310'         .long   safz1,safz2,safz3,safz4,safz5,safz6,safz7,safz8,safz9,safza
    3042 00018310     0a68  safz1   .word   00a68h,-75,0            ;And he holds on
    3043 00018340           safz2   WL      1,nm_tab
    3044 00018370     0a34          .word   00a34h,-60,0            ;_ Freezes the puck
    3045 000183a0     0a37  safz3   .word   00a37h,-74,0            ;He freezes the puck
    3046 000183d0     0a63  safz4   .word   00a63h,-68,0            ;He freezes it
    3047 00018400           safz7
    3048 00018400           safz5
    3049 00018400           safz8
    3050 00018400           safz6
    3051 00018400     0a65  safz9   .word   00a65h,-85,0            ;And the puck is frozen #2
    3052 00018430     0a65  safza   .word   00a65h,-85              ;And the puck is frozen #2
    3053 00018450                   WLW     1,nmt_tab,0
    3054                    
    3055 00018490           sp_skate_save
    3056 00018490     000a          .word   10,10
    3057 000184b0 000186e0'         .long   sakv1,sakv2,sakv3,sakv4,sakv5,sakv6,sakv7,sakv8,sakv9,sakva
    3058 000185f0     0a3a  sakv3   .word   00a3ah,-67,0            ;Skate Save #2
    3059 00018620     0a3a  sakv4   .word   00a3ah,-63              ;Skate Save #2
    3060 00018640                   WLW     1,nmt_tab,0
    3061 00018680     0a3b  sakv5   .word   00a3bh,-55              ;Off the skate of _
    3062 000186a0                   WLW     1,nm_tab,0
    3063 000186e0           sakv1
    3064 000186e0           sakv9
    3065 000186e0           sakv6
    3066 000186e0           sakv2
    3067 000186e0           sakva
    3068 000186e0           sakv7
    3069 000186e0           sakv8
    3070 000186e0     0a5c  sakvb   .word   00a5ch,-82,0            ;Kick Save and a beauty
    3071                    
    3072 00018710           sp_poke
    3073 00018710     000a          .word   10,2
    3074 00018730 00018770'         .long   sapk1,sapk2
    3075 00018770     0968  sapk1   .word   00968h,-43,0            ;_ pokes at it
    3076 000187a0           sapk2   WL      1,nm_tab
    3077 000187d0     0968          .word   00968h,-43,0            ;_ pokes at it
    3078                    
    3079 00018800           sp_stick_save
    3080 00018800     000a          .word   10,4
    3081 00018820 000188a0'         .long   satv1,satv2,satv3,satv4
    3082 000188a0           satv1   WL      1,nm_tab
    3083 000188d0     096a          .word   0096ah,-56,0            ;_ gets his stick on it
    3084 00018900     0a48  satv2   .word   00a48h,-77,0            ;He just got a stick on it
    3085 00018930           satv4   WL      1,nm_tab
    3086 00018960     0969          .word   00969h,-57,0            ;_ gets a handle on it
    3087 00018990     0a48  satv3   .word   00a48h,-77,0            ;He just got a stick on it
    3088                    
    3089                    ;sp_big
    3090                    ;       .word   10,17
    3091                    ;       .long   spbg1,spbg2,spbg3,spbg4,spbg5,spbg6,spbg7,spbg8,spbg9,spbga,spbgb,spbgc,spbgd,spbge,spbg
TMS340 COFF Macro Assembler Version 6.10     Wed Apr 21 11:34:12 2021
 Copyright (c) 1985-1991  Texas Instruments Incorporated 

                                                                     PAGE   71

    3092                    ;spbg1  .word   00a24h,-63,0            ;What a Save #1
    3093                    ;spbg2  .word   00a25h,-50,0            ;What a Save #2
    3094                    ;spbg3  .word   00a5dh,-58,0            ;Big Save #1
    3095                    ;spbg4  .word   00a5eh,-57,0            ;Big Save #2
    3096                    ;spbg5  .word   00a5fh,-68,0            ;What a save #3
    3097                    ;spbg6  .word   00a4bh,-70,0            ;Brilliant Goaltending
    3098                    ;spbg8  .word   00a4dh,-69,0            ;Great Goaltending
    3099                    ;spbgb  .word   00a75h,-132,0           ;What a goaltending show we've had here
    3100                    ;spbgc  .word   00a93h,-57,0            ;He shut 'em down
    3101                    ;spbgd  .word   00a8ch,-111,0           ;Oh an impossible save
    3102                    ;spbge  .word   00af5h,-61,0            ;Great Save
    3103                    ;spbgf  .word   00a70h,-64,0            ;Beautiful Save !
    3104                    ;spbgg  .word   00a71h,-50,0            ;_ Robs him #1
    3105                    
    3106                    ;sp_stick_side
    3107                    ;       .word   00a6ch,-51,0            ;Swept aside _ (byX)
    3108                    ;       .word   0085fh,-68,0            ;Cleared away 
    3109                    ;       .word   00a43h,-89,0            ;Deflected Wide
    3110                    
    3111                    
    3112                    ;sp_mask
    3113                    ;       .word   00a8ah,-55,0            ;Off the mask
    3114                    ;       .word   00a8bh,-57,0            ;He stoned him
    3115                    
    3116                    ;sp_shoulder
    3117                    
    3118 000189c0           sp_sting
    3119 000189c0     000a          .word   10,2
    3120 000189e0 00018a20'         .long   spsg1,spsg2
    3121 00018a20     0a87  spsg1   .word   00a87h,-52,0            ;That stung him !
    3122 00018a50                   WL      1,nm_tab
    3123 00018a80     0a88  spsg2   .word   00a88h,-53,0            ;_Shaken up !
    3124                    
    3125 00018ab0           spx_steal
    3126 00018ab0     b4c1          move    *a6(POF_CHARACTER),a1
         00018ac0     0070  
    3127 00018ad0     05a0          move    @PUCK_CONTROL,a0,W
         00018ae0 00000000! 
    3128 00018b00     ca04          jrz     spx_freed
    3129 00018b10     09ea          movi    spstlt,a10
         00018b20 00018b90' 
    3130 00018b40     c064          jruc    handle_speech_string
    3131 00018b50           spx_freed
    3132 00018b50     09ea          movi    spfrdt,a10
         00018b60 00018d00' 
    3133 00018b80     c060          jruc    handle_speech_string
    3134                    
    3135 00018b90     000a  spstlt  .word   10,6
    3136 00018bb0 00018c70'         .long   sftk1,sftk1,sftk1,sftk2,sftk3,sftk3
    3137 00018c70     0970  sftk1   .word   00970h,-53,0            ;Stolen
    3138 00018ca0     0972  sftk2   .word   00972h,-51,0            ;He Jaked it
    3139 00018cd0     0973  sftk3   .word   00973h,-61,0            ;What a steal
    3140                    
    3141 00018d00     000a  spfrdt  .word   10,6
    3142 00018d20 00018de0'         .long   sfrd1,sfrd3,sfrd3,sfrd4,sfrd5,sfrd6
TMS340 COFF Macro Assembler Version 6.10     Wed Apr 21 11:34:12 2021
 Copyright (c) 1985-1991  Texas Instruments Incorporated 

                                                                     PAGE   72

    3143 00018de0     0965  sfrd1   .word   00965h,-60,0            ;The puck is loose
    3144 00018e10     0966  sfrd2   .word   00966h,-67,0            ;He looses the puck
    3145 00018e40           sfrd3   WL      1,nm_tab
    3146 00018e70     0968          .word   00968h,-43,0            ;_ pokes at it
    3147 00018ea0     096b  sfrd4   .word   0096bh,-63,0            ;The puck comes out
    3148 00018ed0     096c  sfrd5   .word   0096ch,-58,0            ;Knocked away
    3149 00018f00     0978  sfrd6   .word   00978h,-47,0            ;He looses it
    3150                    
    3151 00018f30           spx_off_goalpost
    3152 00018f30     0d5f          calla   get_speech_time_remaining
         00018f40 00000000! 
    3153 00018f60     0b40          cmpi    10,a0
         00018f70     fff5  
    3154 00018f80     c70a          jrgt    spogpt9
    3155 00018f90     05ae          move    @PUCK_MODE,a14,W
         00018fa0 00000000! 
    3156 00018fc0     0b4e          cmpi    PUM_SCORE,a14
         00018fd0     ff9c  
    3157 00018fe0     c904          jrhs    spogpt9
    3158 00018ff0     09ea          movi    spgpl,a10
         00019000 00019040' 
    3159 00019020     c016          jruc    handle_speech_string
    3160 00019030     0960  spogpt9 rets
    3161 00019040     000a  spgpl   .word   10,3
    3162 00019060 000190c0'         .long   szgl1,szgl2,szgl3
    3163 000190c0     08a9  szgl1   .word   008a9h,-77,0            ;Off the goalpost
    3164 000190f0     08c1  szgl2   .word   008c1h,-69,0            ;He hit the goalpost
    3165 00019120     08c2  szgl3   .word   008c2h,-79,0            ;He rattled it off the pipe
    3166                    
    3167 00019150           handle_speech_string_sc
    3168 00019150     57ce          clr     a14
    3169 00019160     058e          move    a14,@shot_call,W
         00019170 00000050- 
    3170 00019190           handle_speech_string
    3171 00019190     098f          mmtm    sp,a10
         000191a0     0020  
    3172 000191b0     05a4          move    @SOUNDSUP,a4,W
         000191c0 00000000! 
    3173 000191e0     cb0d          jrnz    hss_9
    3174 000191f0     9544  hss_0   move    *a10+,a4,W
    3175 00019200     ca0b          jrz     hss_9
    3176 00019210     ce24          jrn     hss_tm
    3177 00019220     0b44          cmpi    20,a4
         00019230     ffeb  
    3178 00019240     c31d          jrhi    hss_snd
    3179 00019250     24a4          sll     5,a4
    3180 00019260     0b24          addi    hss_dt,a4
         00019270 000194a0' 
    3181 00019290     8684          move    *a4,a4,L
    3182 000192a0     0924          call    a4
    3183 000192b0     c0f3          jruc    hss_0
    3184 000192c0     0d5f  hss_9   calla   get_speech_time_remaining
         000192d0 00000000! 
    3185 000192f0     4c00          move    a0,a0
    3186 00019300     ca0e          jrz     hss99
TMS340 COFF Macro Assembler Version 6.10     Wed Apr 21 11:34:12 2021
 Copyright (c) 1985-1991  Texas Instruments Incorporated 

                                                                     PAGE   73

    3187 00019310     07ae          move    @WAVEIRQS,a14,L
         00019320 00000000! 
    3188 00019340     400e          add     a0,a14
    3189 00019350     078e          move    a14,@estimated_speech_end,L
         00019360 00000150- 
    3190 00019380     0b40          cmpi    900,a0
         00019390     fc7b  
    3191 000193a0     c404          jrlt    hss99
    3192 000193b0     0300          nop                     ;error here
    3193 000193c0     0d5f          calla   init_speech_buffer
         000193d0 00000000! 
    3194 000193f0     09af  hss99   mmfm    sp,a10
         00019400     0400  
    3195 00019410     0960          rets
    3196 00019420     0d5f  hss_snd calla   add_speech_sound
         00019430 00000000! 
    3197 00019450     c0d9          jruc    hss_0
    3198 00019460     0d5f  hss_tm  calla   add_speech_time
         00019470 00000000! 
    3199 00019490     c0d5          jruc    hss_0
    3200 000194a0 00019740' hss_dt  .long   hss_ie          ;0  - we never get here
    3201 000194c0 00019780'         .long   hss_t1          ;1  - use a1 as table index to embed (L) (player (source))
    3202 000194e0 000197a0'         .long   hss_t2          ;2  - use a2 as table index to embed (L) (player (destination))
    3203 00019500 000197c0'         .long   hss_t3          ;3  - use a3 as table index to embed (L) (team)
    3204 00019520 00019900'         .long   hss_sn          ;4  - use a2 as last name called (call just before name)
    3205 00019540 000197e0'         .long   hss_t5          ;5  - use a5 as table index to embed (L) (he/she (source))
    3206 00019560 00019800'         .long   hss_t6          ;6  - use a6 as table index to embed (L) (he/she (destination))
    3207 00019580 000199e0'         .long   hss_ad          ;7  - call address (move a10 past parameters) (L..)
    3208 000195a0 00019a00'         .long   hss_br          ;8  - branch to long (L)
    3209 000195c0 00019a20'         .long   hss_eb          ;9  - embed string (L)
    3210 000195e0 00019ab0'         .long   hss_rb          ;10 - randomly branch to 1 of W L's (WL[L..])
    3211 00019600 000198c0'         .long   hss_s2          ;11 - use a1 as last name called (call just before name)
    3212 00019620 00019740'         .long   hss_ie
    3213 00019640 00019740'         .long   hss_ie
    3214 00019660 00019740'         .long   hss_ie
    3215 00019680 00019740'         .long   hss_ie
    3216 000196a0 00019740'         .long   hss_ie
    3217 000196c0 00019740'         .long   hss_ie
    3218 000196e0 00019740'         .long   hss_ie
    3219 00019700 00019740'         .long   hss_ie
    3220 00019720 00019740'         .long   hss_ie
    3221                    
    3222 00019740           hss_ie  LOCKUP
    3223 00019770     0960          rets
    3224 00019780     4c24  hss_t1  move    a1,a4
    3225 00019790     c007          jruc    hss_tb
    3226 000197a0     4c44  hss_t2  move    a2,a4
    3227 000197b0     c005          jruc    hss_tb
    3228 000197c0     4c64  hss_t3  move    a3,a4
    3229 000197d0     c003          jruc    hss_tb
    3230 000197e0     4ca4  hss_t5  move    a5,a4
    3231 000197f0     c001          jruc    hss_tb
    3232 00019800     4cc4  hss_t6  move    a6,a4
    3233 00019810     24a4  hss_tb  sll     5,a4
    3234 00019820     974e          move    *a10+,a14,L
TMS340 COFF Macro Assembler Version 6.10     Wed Apr 21 11:34:12 2021
 Copyright (c) 1985-1991  Texas Instruments Incorporated 

                                                                     PAGE   74

    3235 00019830     408e          add     a4,a14
    3236 00019840     098f          mmtm    sp,a10
         00019850     0020  
    3237 00019860     87ca          move    *a14,a10,L
    3238 00019870     0d3f          callr   handle_speech_string
         00019880     ff90  
    3239 00019890     09af          mmfm    sp,a10
         000198a0     0400  
    3240 000198b0     0960          rets
    3241 000198c0     0581  hss_s2  move    a1,@last_name_spoken,W
         000198d0 00000000- 
    3242 000198f0     c003          jruc    ak47
    3243 00019900     0582  hss_sn  move    a2,@last_name_spoken,W
         00019910 00000000- 
    3244 00019930     0d5f  ak47    calla   get_speech_time_remaining
         00019940 00000000! 
    3245 00019960     07ae          move    @WAVEIRQS,a14,L
         00019970 00000000! 
    3246 00019990     400e          add     a0,a14
    3247 000199a0     078e          move    a14,@last_name_time,L
         000199b0 00000010- 
    3248 000199d0     0960          rets
    3249 000199e0     974e  hss_ad  move    *a10+,a14,L
    3250 000199f0     016e          jump    a14
    3251 00019a00     874a  hss_br  move    *a10,a10,L
    3252 00019a10     0960          rets
    3253 00019a20     974e  hss_eb  move    *a10+,a14,L
    3254 00019a30     098f          mmtm    sp,a10
         00019a40     0020  
    3255 00019a50     4dca          move    a14,a10
    3256 00019a60     0d3f          callr   handle_speech_string
         00019a70     ff71  
    3257 00019a80     09af          mmfm    sp,a10
         00019a90     0400  
    3258 00019aa0     0960          rets
    3259 00019ab0     9540  hss_rb  move    *a10+,a0,W
    3260 00019ac0     0d5f          calla   RAND0
         00019ad0 00000000! 
    3261 00019af0     24a0          sll     5,a0
    3262 00019b00     400a          add     a0,a10
    3263 00019b10     874a          move    *a10,a10,L
    3264 00019b20     0960          rets
    3265                    
    3266                    
    3267                    
    3268 00019b30           name_check_a0
    3269 00019b30     098f          mmtm    sp,a0
         00019b40     8000  
    3270 00019b50                   GBLOCK  a0,a14
    3271 00019ba0     b5c0          move    *a14(POF_CHARACTER),a0,W
         00019bb0     0070  
    3272 00019bc0     05ae          move    @last_name_spoken,a14,W
         00019bd0 00000000- 
    3273 00019bf0     480e          cmp     a0,a14
    3274 00019c00     09af          mmfm    sp,a0
TMS340 COFF Macro Assembler Version 6.10     Wed Apr 21 11:34:12 2021
 Copyright (c) 1985-1991  Texas Instruments Incorporated 

                                                                     PAGE   75

         00019c10     0001  
    3275 00019c20     0960          rets
    3276                    
    3277 00019c30           name_check_a6
    3278 00019c30     098f          mmtm    sp,a0
         00019c40     8000  
    3279 00019c50     b4c0          move    *a6(POF_CHARACTER),a0,W
         00019c60     0070  
    3280 00019c70     05ae          move    @last_name_spoken,a14,W
         00019c80 00000000- 
    3281 00019ca0     480e          cmp     a0,a14
    3282 00019cb0     09af          mmfm    sp,a0
         00019cc0     0001  
    3283 00019cd0     0960          rets
    3284                    
    3285                    
    3286                    
    3287                    
    3288                    
    3289                    
    3290                    
    3291                    
    3292                    

 No Errors,  No Warnings
